---
triple:          'x86_64-apple-darwin'
binary-path:     a.out
relocations:
  - { offsetInCU: 0x902, offset: 0x902, size: 0x8, addend: 0x0, symName: __ZN6spdlog7details2osL11folder_sepsE, symObjAddr: 0x6A570, symBinAddr: 0x100089030, symSize: 0x0 }
  - { offsetInCU: 0x90F, offset: 0x90F, size: 0x8, addend: 0x0, symName: __ZN6spdlog7details2os17is_color_terminalEv, symObjAddr: 0xA5D0, symBinAddr: 0x10000CAC0, symSize: 0x80 }
  - { offsetInCU: 0x95E, offset: 0x95E, size: 0x8, addend: 0x0, symName: __ZN6spdlog7details2os11in_terminalEP7__sFILE, symObjAddr: 0xA580, symBinAddr: 0x10000CA70, symSize: 0x50 }
  - { offsetInCU: 0x98C, offset: 0x98C, size: 0x8, addend: 0x0, symName: __ZN6spdlog7details2os18utc_minutes_offsetERK2tm, symObjAddr: 0x1DB70, symBinAddr: 0x100020060, symSize: 0x50 }
  - { offsetInCU: 0x9E9, offset: 0x9E9, size: 0x8, addend: 0x0, symName: __ZN6spdlog7details2os6gmtimeEv, symObjAddr: 0x1DD60, symBinAddr: 0x100020250, symSize: 0x50 }
  - { offsetInCU: 0xA15, offset: 0xA15, size: 0x8, addend: 0x0, symName: __ZN6spdlog7details2os6gmtimeERKl, symObjAddr: 0x1DDB0, symBinAddr: 0x1000202A0, symSize: 0x40 }
  - { offsetInCU: 0xA50, offset: 0xA50, size: 0x8, addend: 0x0, symName: __ZN6spdlog7details2os3pidEv, symObjAddr: 0x1E360, symBinAddr: 0x100020850, symSize: 0x40 }
  - { offsetInCU: 0xA6E, offset: 0xA6E, size: 0x8, addend: 0x0, symName: __ZN6spdlog7details2os9localtimeERKl, symObjAddr: 0x3A380, symBinAddr: 0x10003C870, symSize: 0x40 }
  - { offsetInCU: 0xADA, offset: 0xADA, size: 0x8, addend: 0x0, symName: __ZN6spdlog7detailsL4daysE, symObjAddr: 0x6BFC8, symBinAddr: 0x1000942A8, symSize: 0x0 }
  - { offsetInCU: 0xAF3, offset: 0xAF3, size: 0x8, addend: 0x0, symName: __ZN6spdlog7detailsL9full_daysE, symObjAddr: 0x6C000, symBinAddr: 0x1000942E0, symSize: 0x0 }
  - { offsetInCU: 0xB0C, offset: 0xB0C, size: 0x8, addend: 0x0, symName: __ZN6spdlog7detailsL6monthsE, symObjAddr: 0x68E68, symBinAddr: 0x100092198, symSize: 0x0 }
  - { offsetInCU: 0xB25, offset: 0xB25, size: 0x8, addend: 0x0, symName: __ZN6spdlog7detailsL11full_monthsE, symObjAddr: 0x68F08, symBinAddr: 0x100092238, symSize: 0x0 }
  - { offsetInCU: 0x1085, offset: 0x1085, size: 0x8, addend: 0x0, symName: __ZN6spdlog7details10fmt_helper12count_digitsImEEjT_, symObjAddr: 0x14790, symBinAddr: 0x100016C80, symSize: 0x20 }
  - { offsetInCU: 0x10C5, offset: 0x10C5, size: 0x8, addend: 0x0, symName: __ZN6spdlog7details10fmt_helper12count_digitsIjEEjT_, symObjAddr: 0x1E3D0, symBinAddr: 0x1000208C0, symSize: 0x20 }
  - { offsetInCU: 0x1105, offset: 0x1105, size: 0x8, addend: 0x0, symName: __ZN6spdlog7details10fmt_helper12count_digitsIiEEjT_, symObjAddr: 0x1F4C0, symBinAddr: 0x1000219B0, symSize: 0x20 }
  - { offsetInCU: 0x1145, offset: 0x1145, size: 0x8, addend: 0x0, symName: __ZN6spdlog7details10fmt_helper18append_string_viewEN3fmt3v1117basic_string_viewIcEERNS3_19basic_memory_bufferIcLm250ENSt3__19allocatorIcEEEE, symObjAddr: 0x67D0, symBinAddr: 0x100008CC0, symSize: 0x60 }
  - { offsetInCU: 0x1189, offset: 0x1189, size: 0x8, addend: 0x0, symName: __ZN6spdlog7details10fmt_helper10append_intIiEEvT_RN3fmt3v1119basic_memory_bufferIcLm250ENSt3__19allocatorIcEEEE, symObjAddr: 0x7220, symBinAddr: 0x100009710, symSize: 0x90 }
  - { offsetInCU: 0x11D6, offset: 0x11D6, size: 0x8, addend: 0x0, symName: __ZN6spdlog7details10fmt_helper4pad2EiRN3fmt3v1119basic_memory_bufferIcLm250ENSt3__19allocatorIcEEEE, symObjAddr: 0x72B0, symBinAddr: 0x1000097A0, symSize: 0xF0 }
  - { offsetInCU: 0x126F, offset: 0x126F, size: 0x8, addend: 0x0, symName: __ZN6spdlog7details10fmt_helper13time_fractionINSt3__16chrono8durationIxNS3_5ratioILl1ELl1000EEEEEEET_NS4_10time_pointINS4_12system_clockENS5_IxNS6_ILl1ELl1000000EEEEEEE, symObjAddr: 0x73E0, symBinAddr: 0x1000098D0, symSize: 0x60 }
  - { offsetInCU: 0x12C7, offset: 0x12C7, size: 0x8, addend: 0x0, symName: __ZN6spdlog7details10fmt_helper4pad3IjEEvT_RN3fmt3v1119basic_memory_bufferIcLm250ENSt3__19allocatorIcEEEE, symObjAddr: 0x7440, symBinAddr: 0x100009930, symSize: 0xB0 }
  - { offsetInCU: 0x1306, offset: 0x1306, size: 0x8, addend: 0x0, symName: __ZN6spdlog7details10fmt_helper10append_intIjEEvT_RN3fmt3v1119basic_memory_bufferIcLm250ENSt3__19allocatorIcEEEE, symObjAddr: 0x80C0, symBinAddr: 0x10000A5B0, symSize: 0x90 }
  - { offsetInCU: 0x1353, offset: 0x1353, size: 0x8, addend: 0x0, symName: __ZN6spdlog7details10fmt_helper10append_intImEEvT_RN3fmt3v1119basic_memory_bufferIcLm250ENSt3__19allocatorIcEEEE, symObjAddr: 0x14700, symBinAddr: 0x100016BF0, symSize: 0x90 }
  - { offsetInCU: 0x13A0, offset: 0x13A0, size: 0x8, addend: 0x0, symName: __ZN6spdlog7details10fmt_helper13time_fractionINSt3__16chrono8durationIxNS3_5ratioILl1ELl1000000EEEEEEET_NS4_10time_pointINS4_12system_clockES8_EE, symObjAddr: 0x1A9F0, symBinAddr: 0x10001CEE0, symSize: 0x60 }
  - { offsetInCU: 0x13F8, offset: 0x13F8, size: 0x8, addend: 0x0, symName: __ZN6spdlog7details10fmt_helper4pad6ImEEvT_RN3fmt3v1119basic_memory_bufferIcLm250ENSt3__19allocatorIcEEEE, symObjAddr: 0x1AA50, symBinAddr: 0x10001CF40, symSize: 0x30 }
  - { offsetInCU: 0x1437, offset: 0x1437, size: 0x8, addend: 0x0, symName: __ZN6spdlog7details10fmt_helper8pad_uintImEEvT_jRN3fmt3v1119basic_memory_bufferIcLm250ENSt3__19allocatorIcEEEE, symObjAddr: 0x1AC20, symBinAddr: 0x10001D110, symSize: 0x60 }
  - { offsetInCU: 0x14A0, offset: 0x14A0, size: 0x8, addend: 0x0, symName: __ZN6spdlog7details10fmt_helper13time_fractionINSt3__16chrono8durationIxNS3_5ratioILl1ELl1000000000EEEEEEET_NS4_10time_pointINS4_12system_clockENS5_IxNS6_ILl1ELl1000000EEEEEEE, symObjAddr: 0x1B220, symBinAddr: 0x10001D710, symSize: 0x60 }
  - { offsetInCU: 0x14F8, offset: 0x14F8, size: 0x8, addend: 0x0, symName: __ZN6spdlog7details10fmt_helper4pad9ImEEvT_RN3fmt3v1119basic_memory_bufferIcLm250ENSt3__19allocatorIcEEEE, symObjAddr: 0x1B280, symBinAddr: 0x10001D770, symSize: 0x30 }
  - { offsetInCU: 0x1537, offset: 0x1537, size: 0x8, addend: 0x0, symName: __ZN6spdlog7details10fmt_helper10append_intIxEEvT_RN3fmt3v1119basic_memory_bufferIcLm250ENSt3__19allocatorIcEEEE, symObjAddr: 0x1BA10, symBinAddr: 0x10001DF00, symSize: 0x90 }
  - { offsetInCU: 0x394B, offset: 0x394B, size: 0x8, addend: 0x0, symName: __ZN6spdlog7detailsL5to12hERK2tm, symObjAddr: 0x193D0, symBinAddr: 0x10001B8C0, symSize: 0x40 }
  - { offsetInCU: 0x3977, offset: 0x3977, size: 0x8, addend: 0x0, symName: __ZN6spdlog7detailsL4ampmERK2tm, symObjAddr: 0x1C160, symBinAddr: 0x10001E650, symSize: 0x40 }
  - { offsetInCU: 0x39A3, offset: 0x39A3, size: 0x8, addend: 0x0, symName: __ZN6spdlog7details23conditional_static_castIiiLi0EEET_T0_, symObjAddr: 0x1E3C0, symBinAddr: 0x1000208B0, symSize: 0x10 }
  - { offsetInCU: 0x42EE, offset: 0x42EE, size: 0x8, addend: 0x0, symName: __ZN6spdlog5levelL18level_string_viewsE, symObjAddr: 0x6BEC0, symBinAddr: 0x1000941A0, symSize: 0x0 }
  - { offsetInCU: 0x4307, offset: 0x4307, size: 0x8, addend: 0x0, symName: __ZN6spdlog5levelL17short_level_namesE, symObjAddr: 0x6BF90, symBinAddr: 0x100094270, symSize: 0x0 }
  - { offsetInCU: 0x4314, offset: 0x4314, size: 0x8, addend: 0x0, symName: __ZN6spdlog5level14to_string_viewENS0_10level_enumE, symObjAddr: 0x7510, symBinAddr: 0x100009A00, symSize: 0x20 }
  - { offsetInCU: 0x4340, offset: 0x4340, size: 0x8, addend: 0x0, symName: __ZN6spdlog5level14to_short_c_strENS0_10level_enumE, symObjAddr: 0x14150, symBinAddr: 0x100016640, symSize: 0x20 }
  - { offsetInCU: 0x480C, offset: 0x480C, size: 0x8, addend: 0x0, symName: __ZN6spdlog9set_levelENS_5level10level_enumE, symObjAddr: 0xA40, symBinAddr: 0x100002F30, symSize: 0x30 }
  - { offsetInCU: 0x9AEB, offset: 0x9AEB, size: 0x8, addend: 0x0, symName: __ZNSt3__16chronomiB7v160006IxNS_5ratioILl1ELl1000EEExS3_EENS_11common_typeIJNS0_8durationIT_T0_EENS5_IT1_T2_EEEE4typeERKS8_RKSB_, symObjAddr: 0x7F10, symBinAddr: 0x10000A400, symSize: 0x70 }
  - { offsetInCU: 0x9DD7, offset: 0x9DD7, size: 0x8, addend: 0x0, symName: __ZNSt3__16chronomiB7v160006IxNS_5ratioILl1ELl1000000EEExS3_EENS_11common_typeIJNS0_8durationIT_T0_EENS5_IT1_T2_EEEE4typeERKS8_RKSB_, symObjAddr: 0x1AA80, symBinAddr: 0x10001CF70, symSize: 0x70 }
  - { offsetInCU: 0x9E8F, offset: 0x9E8F, size: 0x8, addend: 0x0, symName: __ZNSt3__16chronomiB7v160006IxNS_5ratioILl1ELl1000000000EEExS3_EENS_11common_typeIJNS0_8durationIT_T0_EENS5_IT1_T2_EEEE4typeERKS8_RKSB_, symObjAddr: 0x1B2D0, symBinAddr: 0x10001D7C0, symSize: 0x70 }
  - { offsetInCU: 0x9FE3, offset: 0x9FE3, size: 0x8, addend: 0x0, symName: __ZNSt3__16chrono13duration_castB7v160006INS0_8durationIxNS_5ratioILl1ELl1EEEEExNS3_ILl1ELl1000000EEEEENS_9enable_ifIXsr13__is_durationIT_EE5valueES8_E4typeERKNS2_IT0_T1_EE, symObjAddr: 0x7150, symBinAddr: 0x100009640, symSize: 0x30 }
  - { offsetInCU: 0xA02A, offset: 0xA02A, size: 0x8, addend: 0x0, symName: __ZNSt3__16chrononeB7v160006IxNS_5ratioILl1ELl1EEExS3_EEbRKNS0_8durationIT_T0_EERKNS4_IT1_T2_EE, symObjAddr: 0x7180, symBinAddr: 0x100009670, symSize: 0x30 }
  - { offsetInCU: 0xA08B, offset: 0xA08B, size: 0x8, addend: 0x0, symName: __ZNSt3__16chronoeqB7v160006IxNS_5ratioILl1ELl1EEExS3_EEbRKNS0_8durationIT_T0_EERKNS4_IT1_T2_EE, symObjAddr: 0x7660, symBinAddr: 0x100009B50, symSize: 0x30 }
  - { offsetInCU: 0xA129, offset: 0xA129, size: 0x8, addend: 0x0, symName: __ZNSt3__16chrono13duration_castB7v160006INS0_8durationIxNS_5ratioILl1ELl1000EEEEExNS3_ILl1ELl1000000EEEEENS_9enable_ifIXsr13__is_durationIT_EE5valueES8_E4typeERKNS2_IT0_T1_EE, symObjAddr: 0x7F80, symBinAddr: 0x10000A470, symSize: 0x30 }
  - { offsetInCU: 0xA170, offset: 0xA170, size: 0x8, addend: 0x0, symName: __ZNSt3__16chrono13duration_castB7v160006INS0_8durationIxNS_5ratioILl1ELl1000EEEEExNS3_ILl1ELl1EEEEENS_9enable_ifIXsr13__is_durationIT_EE5valueES8_E4typeERKNS2_IT0_T1_EE, symObjAddr: 0x7FB0, symBinAddr: 0x10000A4A0, symSize: 0x30 }
  - { offsetInCU: 0xA1B7, offset: 0xA1B7, size: 0x8, addend: 0x0, symName: __ZNSt3__16chrono13duration_castB7v160006INS0_8durationIxNS_5ratioILl1ELl1000000EEEEExS4_EENS_9enable_ifIXsr13__is_durationIT_EE5valueES7_E4typeERKNS2_IT0_T1_EE, symObjAddr: 0x1AAF0, symBinAddr: 0x10001CFE0, symSize: 0x30 }
  - { offsetInCU: 0xA1FE, offset: 0xA1FE, size: 0x8, addend: 0x0, symName: __ZNSt3__16chrono13duration_castB7v160006INS0_8durationIxNS_5ratioILl1ELl1000000EEEEExNS3_ILl1ELl1EEEEENS_9enable_ifIXsr13__is_durationIT_EE5valueES8_E4typeERKNS2_IT0_T1_EE, symObjAddr: 0x1AB20, symBinAddr: 0x10001D010, symSize: 0x30 }
  - { offsetInCU: 0xA290, offset: 0xA290, size: 0x8, addend: 0x0, symName: __ZNSt3__16chrono13duration_castB7v160006INS0_8durationIxNS_5ratioILl1ELl1000000000EEEEExNS3_ILl1ELl1000000EEEEENS_9enable_ifIXsr13__is_durationIT_EE5valueES8_E4typeERKNS2_IT0_T1_EE, symObjAddr: 0x1B340, symBinAddr: 0x10001D830, symSize: 0x30 }
  - { offsetInCU: 0xA2D7, offset: 0xA2D7, size: 0x8, addend: 0x0, symName: __ZNSt3__16chrono13duration_castB7v160006INS0_8durationIxNS_5ratioILl1ELl1000000000EEEEExNS3_ILl1ELl1EEEEENS_9enable_ifIXsr13__is_durationIT_EE5valueES8_E4typeERKNS2_IT0_T1_EE, symObjAddr: 0x1B370, symBinAddr: 0x10001D860, symSize: 0x30 }
  - { offsetInCU: 0xA31E, offset: 0xA31E, size: 0x8, addend: 0x0, symName: __ZNSt3__16chronogeB7v160006IxNS_5ratioILl1ELl1000000EEExNS2_ILl1ELl1EEEEEbRKNS0_8durationIT_T0_EERKNS5_IT1_T2_EE, symObjAddr: 0x1DAF0, symBinAddr: 0x10001FFE0, symSize: 0x30 }
  - { offsetInCU: 0xA37F, offset: 0xA37F, size: 0x8, addend: 0x0, symName: __ZNSt3__16chronomiB7v160006INS0_12system_clockENS0_8durationIxNS_5ratioILl1ELl1000000EEEEES6_EENS_11common_typeIJT0_T1_EE4typeERKNS0_10time_pointIT_S8_EERKNSC_ISD_S9_EE, symObjAddr: 0x1DB20, symBinAddr: 0x100020010, symSize: 0x50 }
  - { offsetInCU: 0xA3D4, offset: 0xA3D4, size: 0x8, addend: 0x0, symName: __ZNSt3__16chronoltB7v160006IxNS_5ratioILl1ELl1000000EEExNS2_ILl1ELl1EEEEEbRKNS0_8durationIT_T0_EERKNS5_IT1_T2_EE, symObjAddr: 0x1DBC0, symBinAddr: 0x1000200B0, symSize: 0x30 }
  - { offsetInCU: 0xA435, offset: 0xA435, size: 0x8, addend: 0x0, symName: __ZNSt3__16chronoltB7v160006IxNS_5ratioILl1ELl1000000EEExS3_EEbRKNS0_8durationIT_T0_EERKNS4_IT1_T2_EE, symObjAddr: 0x21960, symBinAddr: 0x100023E50, symSize: 0x30 }
  - { offsetInCU: 0x166CC, offset: 0x166CC, size: 0x8, addend: 0x0, symName: __ZNSt3__1L19piecewise_constructE, symObjAddr: 0x6BB82, symBinAddr: 0x10008A642, symSize: 0x0 }
  - { offsetInCU: 0x3ECFE, offset: 0x3ECFE, size: 0x8, addend: 0x0, symName: __ZNSt3__117__cxx_atomic_loadB7v160006IiEET_PKNS_22__cxx_atomic_base_implIS1_EENS_12memory_orderE, symObjAddr: 0x3A2C0, symBinAddr: 0x10003C7B0, symSize: 0x70 }
  - { offsetInCU: 0x3F5D1, offset: 0x3F5D1, size: 0x8, addend: 0x0, symName: __ZNSt3__117__cxx_atomic_loadB7v160006IbEET_PKNS_22__cxx_atomic_base_implIS1_EENS_12memory_orderE, symObjAddr: 0x41CA0, symBinAddr: 0x100044190, symSize: 0x70 }
  - { offsetInCU: 0x3F62E, offset: 0x3F62E, size: 0x8, addend: 0x0, symName: __ZNSt3__17advanceB7v160006IPN6spdlog7details14log_msg_bufferEmmvEEvRT_T0_, symObjAddr: 0x41FF0, symBinAddr: 0x1000444E0, symSize: 0x50 }
  - { offsetInCU: 0x3F9ED, offset: 0x3F9ED, size: 0x8, addend: 0x0, symName: __ZNSt3__124__put_character_sequenceB7v160006IcNS_11char_traitsIcEEEERNS_13basic_ostreamIT_T0_EES7_PKS4_m, symObjAddr: 0x435E0, symBinAddr: 0x100045AD0, symSize: 0x1F0 }
  - { offsetInCU: 0x42A77, offset: 0x42A77, size: 0x8, addend: 0x0, symName: __ZNSt3__114__copy_alignedB7v160006INS_6vectorIbNS_9allocatorIbEEEELb0EEENS_14__bit_iteratorIT_Lb0EXLi0EEEENS5_IS6_XT0_EXLi0EEEES8_S7_, symObjAddr: 0x50BA0, symBinAddr: 0x100053090, symSize: 0x280 }
  - { offsetInCU: 0x42BA7, offset: 0x42BA7, size: 0x8, addend: 0x0, symName: __ZNSt3__16copy_nB7v160006IPmmS1_EENS_9enable_ifIXsr33__is_cpp17_random_access_iteratorIT_EE5valueET1_E4typeES3_T0_S4_, symObjAddr: 0x51350, symBinAddr: 0x100053840, symSize: 0x40 }
  - { offsetInCU: 0x42C4E, offset: 0x42C4E, size: 0x8, addend: 0x0, symName: __ZNSt3__116__copy_unalignedB7v160006INS_6vectorIbNS_9allocatorIbEEEELb0EEENS_14__bit_iteratorIT_Lb0EXLi0EEEENS5_IS6_XT0_EXLi0EEEES8_S7_, symObjAddr: 0x50E20, symBinAddr: 0x100053310, symSize: 0x500 }
  - { offsetInCU: 0x446A9, offset: 0x446A9, size: 0x8, addend: 0x0, symName: __ZNSt3__17advanceB7v160006INS_21__tree_const_iteratorINS_12__value_typeINS_12basic_stringIcNS_11char_traitsIcEENS_9allocatorIcEEEEN8nlohmann16json_abi_v3_11_310basic_jsonINS_3mapENS_6vectorES8_bxydS6_NSA_14adl_serializerENSD_IhNS6_IhEEEEvEEEEPNS_11__tree_nodeISI_PvEElEEllvEEvRT_T0_, symObjAddr: 0x57610, symBinAddr: 0x100059B00, symSize: 0x50 }
  - { offsetInCU: 0x44D6A, offset: 0x44D6A, size: 0x8, addend: 0x0, symName: __ZNSt3__17advanceB7v160006INS_14__map_iteratorINS_15__tree_iteratorINS_12__value_typeINS_12basic_stringIcNS_11char_traitsIcEENS_9allocatorIcEEEEN8nlohmann16json_abi_v3_11_310basic_jsonINS_3mapENS_6vectorES9_bxydS7_NSB_14adl_serializerENSE_IhNS7_IhEEEEvEEEEPNS_11__tree_nodeISJ_PvEElEEEEiivEEvRT_T0_, symObjAddr: 0x5C520, symBinAddr: 0x10005EA10, symSize: 0x50 }
  - { offsetInCU: 0x44DFB, offset: 0x44DFB, size: 0x8, addend: 0x0, symName: __ZNSt3__17advanceB7v160006INS_11__wrap_iterIPN8nlohmann16json_abi_v3_11_310basic_jsonINS_3mapENS_6vectorENS_12basic_stringIcNS_11char_traitsIcEENS_9allocatorIcEEEEbxydSA_NS3_14adl_serializerENS6_IhNSA_IhEEEEvEEEEiivEEvRT_T0_, symObjAddr: 0x5C570, symBinAddr: 0x10005EA60, symSize: 0x50 }
  - { offsetInCU: 0x47523, offset: 0x47523, size: 0x8, addend: 0x0, symName: __ZNSt3__1neB7v160006ERKNS_25__hash_map_const_iteratorINS_21__hash_const_iteratorIPNS_11__hash_nodeINS_17__hash_value_typeIcNS_10unique_ptrIN6spdlog21custom_flag_formatterENS_14default_deleteIS6_EEEEEEPvEEEEEESH_, symObjAddr: 0x2A0, symBinAddr: 0x100002790, symSize: 0x30 }
  - { offsetInCU: 0x47560, offset: 0x47560, size: 0x8, addend: 0x0, symName: __ZNSt3__111make_uniqueB7v160006IN6spdlog17pattern_formatterEJRKNS_12basic_stringIcNS_11char_traitsIcEENS_9allocatorIcEEEERKNS1_17pattern_time_typeESA_NS_13unordered_mapIcNS_10unique_ptrINS1_21custom_flag_formatterENS_14default_deleteISG_EEEENS_4hashIcEENS_8equal_toIcEENS6_INS_4pairIKcSJ_EEEEEEEEENS_11__unique_ifIT_E15__unique_singleEDpOT0_, symObjAddr: 0x430, symBinAddr: 0x100002920, symSize: 0x180 }
  - { offsetInCU: 0x475DE, offset: 0x475DE, size: 0x8, addend: 0x0, symName: __ZNSt3__111make_sharedB7v160006IN6spdlog6loggerEJRS2_EvEENS_10shared_ptrIT_EEDpOT0_, symObjAddr: 0x6D0, symBinAddr: 0x100002BC0, symSize: 0x40 }
  - { offsetInCU: 0x47E35, offset: 0x47E35, size: 0x8, addend: 0x0, symName: __ZNSt3__1lsB7v160006INS_11char_traitsIcEEEERNS_13basic_ostreamIcT_EES6_PKc, symObjAddr: 0xC00, symBinAddr: 0x1000030F0, symSize: 0x40 }
  - { offsetInCU: 0x47E7B, offset: 0x47E7B, size: 0x8, addend: 0x0, symName: __ZNSt3__14endlB7v160006IcNS_11char_traitsIcEEEERNS_13basic_ostreamIT_T0_EES7_, symObjAddr: 0xC60, symBinAddr: 0x100003150, symSize: 0x50 }
  - { offsetInCU: 0x47EC6, offset: 0x47EC6, size: 0x8, addend: 0x0, symName: __ZNSt3__111make_sharedB7v160006IN6spdlog5sinks21ansicolor_stdout_sinkINS1_7details13console_mutexEEEJEvEENS_10shared_ptrIT_EEDpOT0_, symObjAddr: 0x1EF0, symBinAddr: 0x1000043E0, symSize: 0x40 }
  - { offsetInCU: 0x47EF4, offset: 0x47EF4, size: 0x8, addend: 0x0, symName: __ZNSt3__111make_sharedB7v160006IN6spdlog6loggerEJRPKcNS_10shared_ptrINS1_5sinks21ansicolor_stdout_sinkINS1_7details13console_mutexEEEEEEvEENS6_IT_EEDpOT0_, symObjAddr: 0x1F30, symBinAddr: 0x100004420, symSize: 0x50 }
  - { offsetInCU: 0x48135, offset: 0x48135, size: 0x8, addend: 0x0, symName: __ZNSt3__119__debug_db_insert_cB7v160006INS_13unordered_mapINS_12basic_stringIcNS_11char_traitsIcEENS_9allocatorIcEEEENS_10shared_ptrIN6spdlog6loggerEEENS_4hashIS7_EENS_8equal_toIS7_EENS5_INS_4pairIKS7_SB_EEEEEEEEvPT_, symObjAddr: 0x2200, symBinAddr: 0x1000046F0, symSize: 0x10 }
  - { offsetInCU: 0x48166, offset: 0x48166, size: 0x8, addend: 0x0, symName: __ZNSt3__119__debug_db_insert_cB7v160006INS_13unordered_mapINS_12basic_stringIcNS_11char_traitsIcEENS_9allocatorIcEEEEN6spdlog5level10level_enumENS_4hashIS7_EENS_8equal_toIS7_EENS5_INS_4pairIKS7_SA_EEEEEEEEvPT_, symObjAddr: 0x27A0, symBinAddr: 0x100004C90, symSize: 0x10 }
  - { offsetInCU: 0x48197, offset: 0x48197, size: 0x8, addend: 0x0, symName: __ZNSt3__119__debug_db_insert_cB7v160006INS_12basic_stringIcNS_11char_traitsIcEENS_9allocatorIcEEEEEEvPT_, symObjAddr: 0x2D50, symBinAddr: 0x100005240, symSize: 0x10 }
  - { offsetInCU: 0x481C8, offset: 0x481C8, size: 0x8, addend: 0x0, symName: __ZNSt3__118__constexpr_strlenB7v160006EPKc, symObjAddr: 0x2DF0, symBinAddr: 0x1000052E0, symSize: 0x20 }
  - { offsetInCU: 0x48212, offset: 0x48212, size: 0x8, addend: 0x0, symName: __ZNSt3__111make_uniqueB7v160006IN6spdlog7details14full_formatterEJNS2_12padding_infoEEEENS_11__unique_ifIT_E15__unique_singleEDpOT0_, symObjAddr: 0x30F0, symBinAddr: 0x1000055E0, symSize: 0x90 }
  - { offsetInCU: 0x48254, offset: 0x48254, size: 0x8, addend: 0x0, symName: __ZNSt3__115__debug_db_swapB7v160006INS_12basic_stringIcNS_11char_traitsIcEENS_9allocatorIcEEEEEEvPT_S8_, symObjAddr: 0x3360, symBinAddr: 0x100005850, symSize: 0x10 }
  - { offsetInCU: 0x48293, offset: 0x48293, size: 0x8, addend: 0x0, symName: __ZNSt3__119__debug_db_insert_cB7v160006INS_6vectorINS_10unique_ptrIN6spdlog7details14flag_formatterENS_14default_deleteIS5_EEEENS_9allocatorIS8_EEEEEEvPT_, symObjAddr: 0x3480, symBinAddr: 0x100005970, symSize: 0x10 }
  - { offsetInCU: 0x482C4, offset: 0x482C4, size: 0x8, addend: 0x0, symName: __ZNSt3__112__to_addressB7v160006INS_10unique_ptrIN6spdlog7details14flag_formatterENS_14default_deleteIS4_EEEEEEPT_S9_, symObjAddr: 0x3770, symBinAddr: 0x100005C60, symSize: 0x10 }
  - { offsetInCU: 0x482F9, offset: 0x482F9, size: 0x8, addend: 0x0, symName: __ZNSt3__13maxB7v160006ImEERKT_S3_S3_, symObjAddr: 0x3D50, symBinAddr: 0x100006240, symSize: 0x30 }
  - { offsetInCU: 0x4833C, offset: 0x4833C, size: 0x8, addend: 0x0, symName: __ZNSt3__13minB7v160006ImEERKT_S3_S3_, symObjAddr: 0x3D80, symBinAddr: 0x100006270, symSize: 0x30 }
  - { offsetInCU: 0x48580, offset: 0x48580, size: 0x8, addend: 0x0, symName: __ZNSt3__13minB7v160006ImNS_6__lessImmEEEERKT_S5_S5_T0_, symObjAddr: 0x3E00, symBinAddr: 0x1000062F0, symSize: 0x50 }
  - { offsetInCU: 0x48616, offset: 0x48616, size: 0x8, addend: 0x0, symName: __ZNSt3__120__throw_length_errorB7v160006EPKc, symObjAddr: 0x3EE0, symBinAddr: 0x1000063D0, symSize: 0x70 }
  - { offsetInCU: 0x4863E, offset: 0x4863E, size: 0x8, addend: 0x0, symName: __ZNSt3__13maxB7v160006ImNS_6__lessImmEEEERKT_S5_S5_T0_, symObjAddr: 0x4010, symBinAddr: 0x100006500, symSize: 0x50 }
  - { offsetInCU: 0x48698, offset: 0x48698, size: 0x8, addend: 0x0, symName: __ZNSt3__119__allocate_at_leastB7v160006INS_9allocatorINS_10unique_ptrIN6spdlog7details14flag_formatterENS_14default_deleteIS5_EEEEEEEENS_19__allocation_resultINS_16allocator_traitsIT_E7pointerEEERSC_m, symObjAddr: 0x4160, symBinAddr: 0x100006650, symSize: 0x40 }
  - { offsetInCU: 0x486DB, offset: 0x486DB, size: 0x8, addend: 0x0, symName: __ZNSt3__117__libcpp_allocateB7v160006Emm, symObjAddr: 0x42D0, symBinAddr: 0x1000067C0, symSize: 0x20 }
  - { offsetInCU: 0x48718, offset: 0x48718, size: 0x8, addend: 0x0, symName: __ZNSt3__121__libcpp_operator_newB7v160006IJmEEEPvDpT_, symObjAddr: 0x42F0, symBinAddr: 0x1000067E0, symSize: 0x20 }
  - { offsetInCU: 0x48751, offset: 0x48751, size: 0x8, addend: 0x0, symName: __ZNSt3__142__uninitialized_allocator_move_if_noexceptB7v160006INS_9allocatorINS_10unique_ptrIN6spdlog7details14flag_formatterENS_14default_deleteIS5_EEEEEENS_16reverse_iteratorIPS8_EESC_SC_EET2_RT_T0_T1_SD_, symObjAddr: 0x4420, symBinAddr: 0x100006910, symSize: 0x180 }
  - { offsetInCU: 0x487F0, offset: 0x487F0, size: 0x8, addend: 0x0, symName: __ZNSt3__14swapB7v160006IPNS_10unique_ptrIN6spdlog7details14flag_formatterENS_14default_deleteIS4_EEEEEENS_9enable_ifIXaasr21is_move_constructibleIT_EE5valuesr18is_move_assignableISA_EE5valueEvE4typeERSA_SD_, symObjAddr: 0x45F0, symBinAddr: 0x100006AE0, symSize: 0x40 }
  - { offsetInCU: 0x48841, offset: 0x48841, size: 0x8, addend: 0x0, symName: __ZNSt3__125__debug_db_invalidate_allB7v160006INS_6vectorINS_10unique_ptrIN6spdlog7details14flag_formatterENS_14default_deleteIS5_EEEENS_9allocatorIS8_EEEEEEvPT_, symObjAddr: 0x46E0, symBinAddr: 0x100006BD0, symSize: 0x10 }
  - { offsetInCU: 0x48872, offset: 0x48872, size: 0x8, addend: 0x0, symName: __ZNSt3__122__make_exception_guardB7v160006INS_29_AllocatorDestroyRangeReverseINS_9allocatorINS_10unique_ptrIN6spdlog7details14flag_formatterENS_14default_deleteIS6_EEEEEENS_16reverse_iteratorIPS9_EEEEEENS_28__exception_guard_exceptionsIT_EESG_, symObjAddr: 0x4730, symBinAddr: 0x100006C20, symSize: 0x60 }
  - { offsetInCU: 0x488A7, offset: 0x488A7, size: 0x8, addend: 0x0, symName: __ZNSt3__1neB7v160006IPNS_10unique_ptrIN6spdlog7details14flag_formatterENS_14default_deleteIS4_EEEES8_EEbRKNS_16reverse_iteratorIT_EERKNS9_IT0_EE, symObjAddr: 0x47D0, symBinAddr: 0x100006CC0, symSize: 0x40 }
  - { offsetInCU: 0x488F3, offset: 0x488F3, size: 0x8, addend: 0x0, symName: __ZNSt3__112__to_addressB7v160006INS_16reverse_iteratorIPNS_10unique_ptrIN6spdlog7details14flag_formatterENS_14default_deleteIS5_EEEEEEvEENS_5decayIDTclsr19__to_address_helperIT_EE6__callclsr3stdE7declvalIRKSC_EEEEE4typeESE_, symObjAddr: 0x4810, symBinAddr: 0x100006D00, symSize: 0x20 }
  - { offsetInCU: 0x48954, offset: 0x48954, size: 0x8, addend: 0x0, symName: __ZNSt3__119__allocator_destroyB7v160006INS_9allocatorINS_10unique_ptrIN6spdlog7details14flag_formatterENS_14default_deleteIS5_EEEEEENS_16reverse_iteratorINSA_IPS8_EEEESD_EEvRT_T0_T1_, symObjAddr: 0x4B00, symBinAddr: 0x100006FF0, symSize: 0x70 }
  - { offsetInCU: 0x489B7, offset: 0x489B7, size: 0x8, addend: 0x0, symName: __ZNSt3__1neB7v160006INS_16reverse_iteratorIPNS_10unique_ptrIN6spdlog7details14flag_formatterENS_14default_deleteIS5_EEEEEESA_EEbRKNS1_IT_EERKNS1_IT0_EE, symObjAddr: 0x4BA0, symBinAddr: 0x100007090, symSize: 0x50 }
  - { offsetInCU: 0x48A03, offset: 0x48A03, size: 0x8, addend: 0x0, symName: __ZNSt3__112__to_addressB7v160006INS_16reverse_iteratorINS1_IPNS_10unique_ptrIN6spdlog7details14flag_formatterENS_14default_deleteIS5_EEEEEEEEvEENS_5decayIDTclsr19__to_address_helperIT_EE6__callclsr3stdE7declvalIRKSD_EEEEE4typeESF_, symObjAddr: 0x4C20, symBinAddr: 0x100007110, symSize: 0x20 }
  - { offsetInCU: 0x48A64, offset: 0x48A64, size: 0x8, addend: 0x0, symName: __ZNSt3__119__libcpp_deallocateB7v160006EPvmm, symObjAddr: 0x4FC0, symBinAddr: 0x1000074B0, symSize: 0x30 }
  - { offsetInCU: 0x48AAD, offset: 0x48AAD, size: 0x8, addend: 0x0, symName: __ZNSt3__127__do_deallocate_handle_sizeB7v160006IJEEEvPvmDpT_, symObjAddr: 0x4FF0, symBinAddr: 0x1000074E0, symSize: 0x20 }
  - { offsetInCU: 0x48AEC, offset: 0x48AEC, size: 0x8, addend: 0x0, symName: __ZNSt3__124__libcpp_operator_deleteB7v160006IJPvEEEvDpT_, symObjAddr: 0x5010, symBinAddr: 0x100007500, symSize: 0x20 }
  - { offsetInCU: 0x48B54, offset: 0x48B54, size: 0x8, addend: 0x0, symName: __ZNSt3__1neB7v160006ERKNS_20__map_const_iteratorINS_21__tree_const_iteratorINS_12__value_typeINS_12basic_stringIcNS_11char_traitsIcEENS_9allocatorIcEEEES8_EEPNS_11__tree_nodeIS9_PvEElEEEESH_, symObjAddr: 0x6720, symBinAddr: 0x100008C10, symSize: 0x30 }
  - { offsetInCU: 0x48B91, offset: 0x48B91, size: 0x8, addend: 0x0, symName: __ZNSt3__116__tree_prev_iterB7v160006IPNS_16__tree_node_baseIPvEEPNS_15__tree_end_nodeIS4_EEEET_T0_, symObjAddr: 0x69C0, symBinAddr: 0x100008EB0, symSize: 0xA0 }
  - { offsetInCU: 0x48BDD, offset: 0x48BDD, size: 0x8, addend: 0x0, symName: __ZNSt3__110__tree_maxB7v160006IPNS_16__tree_node_baseIPvEEEET_S5_, symObjAddr: 0x6A60, symBinAddr: 0x100008F50, symSize: 0x30 }
  - { offsetInCU: 0x48C12, offset: 0x48C12, size: 0x8, addend: 0x0, symName: __ZNSt3__120__tree_is_left_childB7v160006IPNS_16__tree_node_baseIPvEEEEbT_, symObjAddr: 0x6A90, symBinAddr: 0x100008F80, symSize: 0x30 }
  - { offsetInCU: 0x48C47, offset: 0x48C47, size: 0x8, addend: 0x0, symName: __ZNSt3__1neB7v160006ERKNS_21__tree_const_iteratorINS_12__value_typeINS_12basic_stringIcNS_11char_traitsIcEENS_9allocatorIcEEEES7_EEPNS_11__tree_nodeIS8_PvEElEESF_, symObjAddr: 0x6B20, symBinAddr: 0x100009010, symSize: 0x30 }
  - { offsetInCU: 0x48C84, offset: 0x48C84, size: 0x8, addend: 0x0, symName: __ZNSt3__1eqB7v160006ERKNS_21__tree_const_iteratorINS_12__value_typeINS_12basic_stringIcNS_11char_traitsIcEENS_9allocatorIcEEEES7_EEPNS_11__tree_nodeIS8_PvEElEESF_, symObjAddr: 0x6B50, symBinAddr: 0x100009040, symSize: 0x30 }
  - { offsetInCU: 0x48CF4, offset: 0x48CF4, size: 0x8, addend: 0x0, symName: __ZNSt3__112__to_addressB7v160006IKcEEPT_S3_, symObjAddr: 0x6E70, symBinAddr: 0x100009360, symSize: 0x10 }
  - { offsetInCU: 0x48D5C, offset: 0x48D5C, size: 0x8, addend: 0x0, symName: __ZNSt3__116__tree_next_iterB7v160006IPNS_15__tree_end_nodeIPNS_16__tree_node_baseIPvEEEES5_EET_T0_, symObjAddr: 0x6FA0, symBinAddr: 0x100009490, symSize: 0x80 }
  - { offsetInCU: 0x48D9A, offset: 0x48D9A, size: 0x8, addend: 0x0, symName: __ZNSt3__110__tree_minB7v160006IPNS_16__tree_node_baseIPvEEEET_S5_, symObjAddr: 0x7020, symBinAddr: 0x100009510, symSize: 0x30 }
  - { offsetInCU: 0x48DCF, offset: 0x48DCF, size: 0x8, addend: 0x0, symName: __ZNSt3__113back_inserterB7v160006IN3fmt3v1119basic_memory_bufferIcLm250ENS_9allocatorIcEEEEEENS_20back_insert_iteratorIT_EERS8_, symObjAddr: 0x7B40, symBinAddr: 0x10000A030, symSize: 0x30 }
  - { offsetInCU: 0x48E04, offset: 0x48E04, size: 0x8, addend: 0x0, symName: __ZNSt3__118__debug_db_erase_cB7v160006INS_6vectorINS_10unique_ptrIN6spdlog7details14flag_formatterENS_14default_deleteIS5_EEEENS_9allocatorIS8_EEEEEEvPT_, symObjAddr: 0x87B0, symBinAddr: 0x10000ACA0, symSize: 0x10 }
  - { offsetInCU: 0x48E35, offset: 0x48E35, size: 0x8, addend: 0x0, symName: __ZNSt3__115allocate_sharedB7v160006IN6spdlog5sinks21ansicolor_stdout_sinkINS1_7details13console_mutexEEENS_9allocatorIS6_EEJEvEENS_10shared_ptrIT_EERKT0_DpOT1_, symObjAddr: 0x8AA0, symBinAddr: 0x10000AF90, symSize: 0xA0 }
  - { offsetInCU: 0x4912F, offset: 0x4912F, size: 0x8, addend: 0x0, symName: __ZNSt3__111make_uniqueB7v160006IN6spdlog17pattern_formatterEJEEENS_11__unique_ifIT_E15__unique_singleEDpOT0_, symObjAddr: 0x9F80, symBinAddr: 0x10000C470, symSize: 0xD0 }
  - { offsetInCU: 0x4915C, offset: 0x4915C, size: 0x8, addend: 0x0, symName: __ZNSt3__16any_ofB7v160006IPKPKcZZN6spdlog7details2os17is_color_terminalEvENKUlvE_clEvEUlS2_E_EEbT_SA_T0_, symObjAddr: 0xA6F0, symBinAddr: 0x10000CBE0, symSize: 0x70 }
  - { offsetInCU: 0x491B7, offset: 0x491B7, size: 0x8, addend: 0x0, symName: __ZNSt3__120__throw_out_of_rangeB7v160006EPKc, symObjAddr: 0xA8D0, symBinAddr: 0x10000CDC0, symSize: 0x70 }
  - { offsetInCU: 0x49271, offset: 0x49271, size: 0x8, addend: 0x0, symName: __ZNSt3__119__debug_db_insert_cB7v160006INS_13unordered_mapIcNS_10unique_ptrIN6spdlog21custom_flag_formatterENS_14default_deleteIS4_EEEENS_4hashIcEENS_8equal_toIcEENS_9allocatorINS_4pairIKcS7_EEEEEEEEvPT_, symObjAddr: 0xB1F0, symBinAddr: 0x10000D6E0, symSize: 0x10 }
  - { offsetInCU: 0x492A2, offset: 0x492A2, size: 0x8, addend: 0x0, symName: __ZNSt3__115__debug_db_swapB7v160006INS_13unordered_mapIcNS_10unique_ptrIN6spdlog21custom_flag_formatterENS_14default_deleteIS4_EEEENS_4hashIcEENS_8equal_toIcEENS_9allocatorINS_4pairIKcS7_EEEEEEEEvPT_SJ_, symObjAddr: 0xB200, symBinAddr: 0x10000D6F0, symSize: 0x10 }
  - { offsetInCU: 0x492E1, offset: 0x492E1, size: 0x8, addend: 0x0, symName: __ZNSt3__116__constrain_hashB7v160006Emm, symObjAddr: 0xB3E0, symBinAddr: 0x10000D8D0, symSize: 0x80 }
  - { offsetInCU: 0x4934E, offset: 0x4934E, size: 0x8, addend: 0x0, symName: __ZNSt3__1neB7v160006IPKcEEbRKNS_11__wrap_iterIT_EES7_, symObjAddr: 0xB960, symBinAddr: 0x10000DE50, symSize: 0x30 }
  - { offsetInCU: 0x49391, offset: 0x49391, size: 0x8, addend: 0x0, symName: __ZNSt3__111make_uniqueB7v160006IN6spdlog7details19aggregate_formatterEJEEENS_11__unique_ifIT_E15__unique_singleEDpOT0_, symObjAddr: 0xFDF0, symBinAddr: 0x1000122E0, symSize: 0x60 }
  - { offsetInCU: 0x493BE, offset: 0x493BE, size: 0x8, addend: 0x0, symName: __ZNSt3__1eqB7v160006IPKcEEbRKNS_11__wrap_iterIT_EES7_, symObjAddr: 0x100F0, symBinAddr: 0x1000125E0, symSize: 0x40 }
  - { offsetInCU: 0x49401, offset: 0x49401, size: 0x8, addend: 0x0, symName: __ZNSt3__1neB7v160006ERKNS_19__hash_map_iteratorINS_15__hash_iteratorIPNS_11__hash_nodeINS_17__hash_value_typeIcNS_10unique_ptrIN6spdlog21custom_flag_formatterENS_14default_deleteIS6_EEEEEEPvEEEEEESH_, symObjAddr: 0x104C0, symBinAddr: 0x1000129B0, symSize: 0x30 }
  - { offsetInCU: 0x4943E, offset: 0x4943E, size: 0x8, addend: 0x0, symName: __ZNSt3__111make_uniqueB7v160006IN6spdlog7details14full_formatterEJRNS2_12padding_infoEEEENS_11__unique_ifIT_E15__unique_singleEDpOT0_, symObjAddr: 0x105B0, symBinAddr: 0x100012AA0, symSize: 0x90 }
  - { offsetInCU: 0x49480, offset: 0x49480, size: 0x8, addend: 0x0, symName: __ZNSt3__111make_uniqueB7v160006IN6spdlog7details14name_formatterINS2_13scoped_padderEEEJRNS2_12padding_infoEEEENS_11__unique_ifIT_E15__unique_singleEDpOT0_, symObjAddr: 0x10640, symBinAddr: 0x100012B30, symSize: 0x90 }
  - { offsetInCU: 0x494C2, offset: 0x494C2, size: 0x8, addend: 0x0, symName: __ZNSt3__111make_uniqueB7v160006IN6spdlog7details15level_formatterINS2_13scoped_padderEEEJRNS2_12padding_infoEEEENS_11__unique_ifIT_E15__unique_singleEDpOT0_, symObjAddr: 0x10720, symBinAddr: 0x100012C10, symSize: 0x90 }
  - { offsetInCU: 0x49504, offset: 0x49504, size: 0x8, addend: 0x0, symName: __ZNSt3__111make_uniqueB7v160006IN6spdlog7details21short_level_formatterINS2_13scoped_padderEEEJRNS2_12padding_infoEEEENS_11__unique_ifIT_E15__unique_singleEDpOT0_, symObjAddr: 0x10800, symBinAddr: 0x100012CF0, symSize: 0x90 }
  - { offsetInCU: 0x49546, offset: 0x49546, size: 0x8, addend: 0x0, symName: __ZNSt3__111make_uniqueB7v160006IN6spdlog7details11t_formatterINS2_13scoped_padderEEEJRNS2_12padding_infoEEEENS_11__unique_ifIT_E15__unique_singleEDpOT0_, symObjAddr: 0x108E0, symBinAddr: 0x100012DD0, symSize: 0x90 }
  - { offsetInCU: 0x49588, offset: 0x49588, size: 0x8, addend: 0x0, symName: __ZNSt3__111make_uniqueB7v160006IN6spdlog7details11v_formatterINS2_13scoped_padderEEEJRNS2_12padding_infoEEEENS_11__unique_ifIT_E15__unique_singleEDpOT0_, symObjAddr: 0x109C0, symBinAddr: 0x100012EB0, symSize: 0x90 }
  - { offsetInCU: 0x495CA, offset: 0x495CA, size: 0x8, addend: 0x0, symName: __ZNSt3__111make_uniqueB7v160006IN6spdlog7details11a_formatterINS2_13scoped_padderEEEJRNS2_12padding_infoEEEENS_11__unique_ifIT_E15__unique_singleEDpOT0_, symObjAddr: 0x10AA0, symBinAddr: 0x100012F90, symSize: 0x90 }
  - { offsetInCU: 0x4960C, offset: 0x4960C, size: 0x8, addend: 0x0, symName: __ZNSt3__111make_uniqueB7v160006IN6spdlog7details11A_formatterINS2_13scoped_padderEEEJRNS2_12padding_infoEEEENS_11__unique_ifIT_E15__unique_singleEDpOT0_, symObjAddr: 0x10B80, symBinAddr: 0x100013070, symSize: 0x90 }
  - { offsetInCU: 0x4964E, offset: 0x4964E, size: 0x8, addend: 0x0, symName: __ZNSt3__111make_uniqueB7v160006IN6spdlog7details11b_formatterINS2_13scoped_padderEEEJRNS2_12padding_infoEEEENS_11__unique_ifIT_E15__unique_singleEDpOT0_, symObjAddr: 0x10C60, symBinAddr: 0x100013150, symSize: 0x90 }
  - { offsetInCU: 0x49690, offset: 0x49690, size: 0x8, addend: 0x0, symName: __ZNSt3__111make_uniqueB7v160006IN6spdlog7details11B_formatterINS2_13scoped_padderEEEJRNS2_12padding_infoEEEENS_11__unique_ifIT_E15__unique_singleEDpOT0_, symObjAddr: 0x10D40, symBinAddr: 0x100013230, symSize: 0x90 }
  - { offsetInCU: 0x496D2, offset: 0x496D2, size: 0x8, addend: 0x0, symName: __ZNSt3__111make_uniqueB7v160006IN6spdlog7details11c_formatterINS2_13scoped_padderEEEJRNS2_12padding_infoEEEENS_11__unique_ifIT_E15__unique_singleEDpOT0_, symObjAddr: 0x10E20, symBinAddr: 0x100013310, symSize: 0x90 }
  - { offsetInCU: 0x49714, offset: 0x49714, size: 0x8, addend: 0x0, symName: __ZNSt3__111make_uniqueB7v160006IN6spdlog7details11C_formatterINS2_13scoped_padderEEEJRNS2_12padding_infoEEEENS_11__unique_ifIT_E15__unique_singleEDpOT0_, symObjAddr: 0x10F00, symBinAddr: 0x1000133F0, symSize: 0x90 }
  - { offsetInCU: 0x49756, offset: 0x49756, size: 0x8, addend: 0x0, symName: __ZNSt3__111make_uniqueB7v160006IN6spdlog7details11Y_formatterINS2_13scoped_padderEEEJRNS2_12padding_infoEEEENS_11__unique_ifIT_E15__unique_singleEDpOT0_, symObjAddr: 0x10FE0, symBinAddr: 0x1000134D0, symSize: 0x90 }
  - { offsetInCU: 0x49798, offset: 0x49798, size: 0x8, addend: 0x0, symName: __ZNSt3__111make_uniqueB7v160006IN6spdlog7details11D_formatterINS2_13scoped_padderEEEJRNS2_12padding_infoEEEENS_11__unique_ifIT_E15__unique_singleEDpOT0_, symObjAddr: 0x110C0, symBinAddr: 0x1000135B0, symSize: 0x90 }
  - { offsetInCU: 0x497DA, offset: 0x497DA, size: 0x8, addend: 0x0, symName: __ZNSt3__111make_uniqueB7v160006IN6spdlog7details11m_formatterINS2_13scoped_padderEEEJRNS2_12padding_infoEEEENS_11__unique_ifIT_E15__unique_singleEDpOT0_, symObjAddr: 0x111A0, symBinAddr: 0x100013690, symSize: 0x90 }
  - { offsetInCU: 0x4981C, offset: 0x4981C, size: 0x8, addend: 0x0, symName: __ZNSt3__111make_uniqueB7v160006IN6spdlog7details11d_formatterINS2_13scoped_padderEEEJRNS2_12padding_infoEEEENS_11__unique_ifIT_E15__unique_singleEDpOT0_, symObjAddr: 0x11280, symBinAddr: 0x100013770, symSize: 0x90 }
  - { offsetInCU: 0x4985E, offset: 0x4985E, size: 0x8, addend: 0x0, symName: __ZNSt3__111make_uniqueB7v160006IN6spdlog7details11H_formatterINS2_13scoped_padderEEEJRNS2_12padding_infoEEEENS_11__unique_ifIT_E15__unique_singleEDpOT0_, symObjAddr: 0x11360, symBinAddr: 0x100013850, symSize: 0x90 }
  - { offsetInCU: 0x498A0, offset: 0x498A0, size: 0x8, addend: 0x0, symName: __ZNSt3__111make_uniqueB7v160006IN6spdlog7details11I_formatterINS2_13scoped_padderEEEJRNS2_12padding_infoEEEENS_11__unique_ifIT_E15__unique_singleEDpOT0_, symObjAddr: 0x11440, symBinAddr: 0x100013930, symSize: 0x90 }
  - { offsetInCU: 0x498E2, offset: 0x498E2, size: 0x8, addend: 0x0, symName: __ZNSt3__111make_uniqueB7v160006IN6spdlog7details11M_formatterINS2_13scoped_padderEEEJRNS2_12padding_infoEEEENS_11__unique_ifIT_E15__unique_singleEDpOT0_, symObjAddr: 0x11520, symBinAddr: 0x100013A10, symSize: 0x90 }
  - { offsetInCU: 0x49924, offset: 0x49924, size: 0x8, addend: 0x0, symName: __ZNSt3__111make_uniqueB7v160006IN6spdlog7details11S_formatterINS2_13scoped_padderEEEJRNS2_12padding_infoEEEENS_11__unique_ifIT_E15__unique_singleEDpOT0_, symObjAddr: 0x11600, symBinAddr: 0x100013AF0, symSize: 0x90 }
  - { offsetInCU: 0x49966, offset: 0x49966, size: 0x8, addend: 0x0, symName: __ZNSt3__111make_uniqueB7v160006IN6spdlog7details11e_formatterINS2_13scoped_padderEEEJRNS2_12padding_infoEEEENS_11__unique_ifIT_E15__unique_singleEDpOT0_, symObjAddr: 0x116E0, symBinAddr: 0x100013BD0, symSize: 0x90 }
  - { offsetInCU: 0x499A8, offset: 0x499A8, size: 0x8, addend: 0x0, symName: __ZNSt3__111make_uniqueB7v160006IN6spdlog7details11f_formatterINS2_13scoped_padderEEEJRNS2_12padding_infoEEEENS_11__unique_ifIT_E15__unique_singleEDpOT0_, symObjAddr: 0x117C0, symBinAddr: 0x100013CB0, symSize: 0x90 }
  - { offsetInCU: 0x499EA, offset: 0x499EA, size: 0x8, addend: 0x0, symName: __ZNSt3__111make_uniqueB7v160006IN6spdlog7details11F_formatterINS2_13scoped_padderEEEJRNS2_12padding_infoEEEENS_11__unique_ifIT_E15__unique_singleEDpOT0_, symObjAddr: 0x118A0, symBinAddr: 0x100013D90, symSize: 0x90 }
  - { offsetInCU: 0x49A2C, offset: 0x49A2C, size: 0x8, addend: 0x0, symName: __ZNSt3__111make_uniqueB7v160006IN6spdlog7details11E_formatterINS2_13scoped_padderEEEJRNS2_12padding_infoEEEENS_11__unique_ifIT_E15__unique_singleEDpOT0_, symObjAddr: 0x11980, symBinAddr: 0x100013E70, symSize: 0x90 }
  - { offsetInCU: 0x49A6E, offset: 0x49A6E, size: 0x8, addend: 0x0, symName: __ZNSt3__111make_uniqueB7v160006IN6spdlog7details11p_formatterINS2_13scoped_padderEEEJRNS2_12padding_infoEEEENS_11__unique_ifIT_E15__unique_singleEDpOT0_, symObjAddr: 0x11A60, symBinAddr: 0x100013F50, symSize: 0x90 }
  - { offsetInCU: 0x49AB0, offset: 0x49AB0, size: 0x8, addend: 0x0, symName: __ZNSt3__111make_uniqueB7v160006IN6spdlog7details11r_formatterINS2_13scoped_padderEEEJRNS2_12padding_infoEEEENS_11__unique_ifIT_E15__unique_singleEDpOT0_, symObjAddr: 0x11B40, symBinAddr: 0x100014030, symSize: 0x90 }
  - { offsetInCU: 0x49AF2, offset: 0x49AF2, size: 0x8, addend: 0x0, symName: __ZNSt3__111make_uniqueB7v160006IN6spdlog7details11R_formatterINS2_13scoped_padderEEEJRNS2_12padding_infoEEEENS_11__unique_ifIT_E15__unique_singleEDpOT0_, symObjAddr: 0x11C20, symBinAddr: 0x100014110, symSize: 0x90 }
  - { offsetInCU: 0x49B34, offset: 0x49B34, size: 0x8, addend: 0x0, symName: __ZNSt3__111make_uniqueB7v160006IN6spdlog7details11T_formatterINS2_13scoped_padderEEEJRNS2_12padding_infoEEEENS_11__unique_ifIT_E15__unique_singleEDpOT0_, symObjAddr: 0x11D00, symBinAddr: 0x1000141F0, symSize: 0x90 }
  - { offsetInCU: 0x49B76, offset: 0x49B76, size: 0x8, addend: 0x0, symName: __ZNSt3__111make_uniqueB7v160006IN6spdlog7details11z_formatterINS2_13scoped_padderEEEJRNS2_12padding_infoEEEENS_11__unique_ifIT_E15__unique_singleEDpOT0_, symObjAddr: 0x11DE0, symBinAddr: 0x1000142D0, symSize: 0x90 }
  - { offsetInCU: 0x49BB8, offset: 0x49BB8, size: 0x8, addend: 0x0, symName: __ZNSt3__111make_uniqueB7v160006IN6spdlog7details13pid_formatterINS2_13scoped_padderEEEJRNS2_12padding_infoEEEENS_11__unique_ifIT_E15__unique_singleEDpOT0_, symObjAddr: 0x11EC0, symBinAddr: 0x1000143B0, symSize: 0x90 }
  - { offsetInCU: 0x49BFA, offset: 0x49BFA, size: 0x8, addend: 0x0, symName: __ZNSt3__111make_uniqueB7v160006IN6spdlog7details21color_start_formatterEJRNS2_12padding_infoEEEENS_11__unique_ifIT_E15__unique_singleEDpOT0_, symObjAddr: 0x11FA0, symBinAddr: 0x100014490, symSize: 0x90 }
  - { offsetInCU: 0x49C3C, offset: 0x49C3C, size: 0x8, addend: 0x0, symName: __ZNSt3__111make_uniqueB7v160006IN6spdlog7details20color_stop_formatterEJRNS2_12padding_infoEEEENS_11__unique_ifIT_E15__unique_singleEDpOT0_, symObjAddr: 0x12080, symBinAddr: 0x100014570, symSize: 0x90 }
  - { offsetInCU: 0x49C7E, offset: 0x49C7E, size: 0x8, addend: 0x0, symName: __ZNSt3__111make_uniqueB7v160006IN6spdlog7details25source_location_formatterINS2_13scoped_padderEEEJRNS2_12padding_infoEEEENS_11__unique_ifIT_E15__unique_singleEDpOT0_, symObjAddr: 0x12160, symBinAddr: 0x100014650, symSize: 0x90 }
  - { offsetInCU: 0x49CC0, offset: 0x49CC0, size: 0x8, addend: 0x0, symName: __ZNSt3__111make_uniqueB7v160006IN6spdlog7details24short_filename_formatterINS2_13scoped_padderEEEJRNS2_12padding_infoEEEENS_11__unique_ifIT_E15__unique_singleEDpOT0_, symObjAddr: 0x12240, symBinAddr: 0x100014730, symSize: 0x90 }
  - { offsetInCU: 0x49D02, offset: 0x49D02, size: 0x8, addend: 0x0, symName: __ZNSt3__111make_uniqueB7v160006IN6spdlog7details25source_filename_formatterINS2_13scoped_padderEEEJRNS2_12padding_infoEEEENS_11__unique_ifIT_E15__unique_singleEDpOT0_, symObjAddr: 0x12320, symBinAddr: 0x100014810, symSize: 0x90 }
  - { offsetInCU: 0x49D44, offset: 0x49D44, size: 0x8, addend: 0x0, symName: __ZNSt3__111make_uniqueB7v160006IN6spdlog7details24source_linenum_formatterINS2_13scoped_padderEEEJRNS2_12padding_infoEEEENS_11__unique_ifIT_E15__unique_singleEDpOT0_, symObjAddr: 0x12400, symBinAddr: 0x1000148F0, symSize: 0x90 }
  - { offsetInCU: 0x49D86, offset: 0x49D86, size: 0x8, addend: 0x0, symName: __ZNSt3__111make_uniqueB7v160006IN6spdlog7details25source_funcname_formatterINS2_13scoped_padderEEEJRNS2_12padding_infoEEEENS_11__unique_ifIT_E15__unique_singleEDpOT0_, symObjAddr: 0x124E0, symBinAddr: 0x1000149D0, symSize: 0x90 }
  - { offsetInCU: 0x49DC8, offset: 0x49DC8, size: 0x8, addend: 0x0, symName: __ZNSt3__111make_uniqueB7v160006IN6spdlog7details12ch_formatterEJcEEENS_11__unique_ifIT_E15__unique_singleEDpOT0_, symObjAddr: 0x125C0, symBinAddr: 0x100014AB0, symSize: 0x80 }
  - { offsetInCU: 0x49E0A, offset: 0x49E0A, size: 0x8, addend: 0x0, symName: __ZNSt3__111make_uniqueB7v160006IN6spdlog7details17elapsed_formatterINS2_13scoped_padderENS_6chrono8durationIxNS_5ratioILl1ELl1000000000EEEEEEEJRNS2_12padding_infoEEEENS_11__unique_ifIT_E15__unique_singleEDpOT0_, symObjAddr: 0x12690, symBinAddr: 0x100014B80, symSize: 0x90 }
  - { offsetInCU: 0x49E4C, offset: 0x49E4C, size: 0x8, addend: 0x0, symName: __ZNSt3__111make_uniqueB7v160006IN6spdlog7details17elapsed_formatterINS2_13scoped_padderENS_6chrono8durationIxNS_5ratioILl1ELl1000000EEEEEEEJRNS2_12padding_infoEEEENS_11__unique_ifIT_E15__unique_singleEDpOT0_, symObjAddr: 0x12770, symBinAddr: 0x100014C60, symSize: 0x90 }
  - { offsetInCU: 0x49E8E, offset: 0x49E8E, size: 0x8, addend: 0x0, symName: __ZNSt3__111make_uniqueB7v160006IN6spdlog7details17elapsed_formatterINS2_13scoped_padderENS_6chrono8durationIxNS_5ratioILl1ELl1000EEEEEEEJRNS2_12padding_infoEEEENS_11__unique_ifIT_E15__unique_singleEDpOT0_, symObjAddr: 0x12850, symBinAddr: 0x100014D40, symSize: 0x90 }
  - { offsetInCU: 0x49ED0, offset: 0x49ED0, size: 0x8, addend: 0x0, symName: __ZNSt3__111make_uniqueB7v160006IN6spdlog7details17elapsed_formatterINS2_13scoped_padderENS_6chrono8durationIxNS_5ratioILl1ELl1EEEEEEEJRNS2_12padding_infoEEEENS_11__unique_ifIT_E15__unique_singleEDpOT0_, symObjAddr: 0x12930, symBinAddr: 0x100014E20, symSize: 0x90 }
  - { offsetInCU: 0x49F12, offset: 0x49F12, size: 0x8, addend: 0x0, symName: __ZNSt3__111make_uniqueB7v160006IN6spdlog7details13mdc_formatterINS2_13scoped_padderEEEJRNS2_12padding_infoEEEENS_11__unique_ifIT_E15__unique_singleEDpOT0_, symObjAddr: 0x12A10, symBinAddr: 0x100014F00, symSize: 0x90 }
  - { offsetInCU: 0x49F54, offset: 0x49F54, size: 0x8, addend: 0x0, symName: __ZNSt3__1neB7v160006ERKNS_15__hash_iteratorIPNS_11__hash_nodeINS_17__hash_value_typeIcNS_10unique_ptrIN6spdlog21custom_flag_formatterENS_14default_deleteIS5_EEEEEEPvEEEESF_, symObjAddr: 0x12ED0, symBinAddr: 0x1000153C0, symSize: 0x30 }
  - { offsetInCU: 0x49F91, offset: 0x49F91, size: 0x8, addend: 0x0, symName: __ZNSt3__1eqB7v160006ERKNS_15__hash_iteratorIPNS_11__hash_nodeINS_17__hash_value_typeIcNS_10unique_ptrIN6spdlog21custom_flag_formatterENS_14default_deleteIS5_EEEEEEPvEEEESF_, symObjAddr: 0x12F00, symBinAddr: 0x1000153F0, symSize: 0x30 }
  - { offsetInCU: 0x4A034, offset: 0x4A034, size: 0x8, addend: 0x0, symName: __ZNSt3__13maxB7v160006INS_6chrono8durationIxNS_5ratioILl1ELl1000000EEEEEEERKT_S8_S8_, symObjAddr: 0x21870, symBinAddr: 0x100023D60, symSize: 0x30 }
  - { offsetInCU: 0x4A077, offset: 0x4A077, size: 0x8, addend: 0x0, symName: __ZNSt3__13maxB7v160006INS_6chrono8durationIxNS_5ratioILl1ELl1000000EEEEENS_6__lessIS5_S5_EEEERKT_SA_SA_T0_, symObjAddr: 0x218E0, symBinAddr: 0x100023DD0, symSize: 0x50 }
  - { offsetInCU: 0x4A10C, offset: 0x4A10C, size: 0x8, addend: 0x0, symName: __ZNSt3__111make_uniqueB7v160006IN6spdlog7details14name_formatterINS2_18null_scoped_padderEEEJRNS2_12padding_infoEEEENS_11__unique_ifIT_E15__unique_singleEDpOT0_, symObjAddr: 0x23710, symBinAddr: 0x100025C00, symSize: 0x90 }
  - { offsetInCU: 0x4A14E, offset: 0x4A14E, size: 0x8, addend: 0x0, symName: __ZNSt3__111make_uniqueB7v160006IN6spdlog7details15level_formatterINS2_18null_scoped_padderEEEJRNS2_12padding_infoEEEENS_11__unique_ifIT_E15__unique_singleEDpOT0_, symObjAddr: 0x237F0, symBinAddr: 0x100025CE0, symSize: 0x90 }
  - { offsetInCU: 0x4A190, offset: 0x4A190, size: 0x8, addend: 0x0, symName: __ZNSt3__111make_uniqueB7v160006IN6spdlog7details21short_level_formatterINS2_18null_scoped_padderEEEJRNS2_12padding_infoEEEENS_11__unique_ifIT_E15__unique_singleEDpOT0_, symObjAddr: 0x238D0, symBinAddr: 0x100025DC0, symSize: 0x90 }
  - { offsetInCU: 0x4A1D2, offset: 0x4A1D2, size: 0x8, addend: 0x0, symName: __ZNSt3__111make_uniqueB7v160006IN6spdlog7details11t_formatterINS2_18null_scoped_padderEEEJRNS2_12padding_infoEEEENS_11__unique_ifIT_E15__unique_singleEDpOT0_, symObjAddr: 0x239B0, symBinAddr: 0x100025EA0, symSize: 0x90 }
  - { offsetInCU: 0x4A214, offset: 0x4A214, size: 0x8, addend: 0x0, symName: __ZNSt3__111make_uniqueB7v160006IN6spdlog7details11v_formatterINS2_18null_scoped_padderEEEJRNS2_12padding_infoEEEENS_11__unique_ifIT_E15__unique_singleEDpOT0_, symObjAddr: 0x23A90, symBinAddr: 0x100025F80, symSize: 0x90 }
  - { offsetInCU: 0x4A256, offset: 0x4A256, size: 0x8, addend: 0x0, symName: __ZNSt3__111make_uniqueB7v160006IN6spdlog7details11a_formatterINS2_18null_scoped_padderEEEJRNS2_12padding_infoEEEENS_11__unique_ifIT_E15__unique_singleEDpOT0_, symObjAddr: 0x23B70, symBinAddr: 0x100026060, symSize: 0x90 }
  - { offsetInCU: 0x4A298, offset: 0x4A298, size: 0x8, addend: 0x0, symName: __ZNSt3__111make_uniqueB7v160006IN6spdlog7details11A_formatterINS2_18null_scoped_padderEEEJRNS2_12padding_infoEEEENS_11__unique_ifIT_E15__unique_singleEDpOT0_, symObjAddr: 0x23C50, symBinAddr: 0x100026140, symSize: 0x90 }
  - { offsetInCU: 0x4A2DA, offset: 0x4A2DA, size: 0x8, addend: 0x0, symName: __ZNSt3__111make_uniqueB7v160006IN6spdlog7details11b_formatterINS2_18null_scoped_padderEEEJRNS2_12padding_infoEEEENS_11__unique_ifIT_E15__unique_singleEDpOT0_, symObjAddr: 0x23D30, symBinAddr: 0x100026220, symSize: 0x90 }
  - { offsetInCU: 0x4A31C, offset: 0x4A31C, size: 0x8, addend: 0x0, symName: __ZNSt3__111make_uniqueB7v160006IN6spdlog7details11B_formatterINS2_18null_scoped_padderEEEJRNS2_12padding_infoEEEENS_11__unique_ifIT_E15__unique_singleEDpOT0_, symObjAddr: 0x23E10, symBinAddr: 0x100026300, symSize: 0x90 }
  - { offsetInCU: 0x4A35E, offset: 0x4A35E, size: 0x8, addend: 0x0, symName: __ZNSt3__111make_uniqueB7v160006IN6spdlog7details11c_formatterINS2_18null_scoped_padderEEEJRNS2_12padding_infoEEEENS_11__unique_ifIT_E15__unique_singleEDpOT0_, symObjAddr: 0x23EF0, symBinAddr: 0x1000263E0, symSize: 0x90 }
  - { offsetInCU: 0x4A3A0, offset: 0x4A3A0, size: 0x8, addend: 0x0, symName: __ZNSt3__111make_uniqueB7v160006IN6spdlog7details11C_formatterINS2_18null_scoped_padderEEEJRNS2_12padding_infoEEEENS_11__unique_ifIT_E15__unique_singleEDpOT0_, symObjAddr: 0x23FD0, symBinAddr: 0x1000264C0, symSize: 0x90 }
  - { offsetInCU: 0x4A3E2, offset: 0x4A3E2, size: 0x8, addend: 0x0, symName: __ZNSt3__111make_uniqueB7v160006IN6spdlog7details11Y_formatterINS2_18null_scoped_padderEEEJRNS2_12padding_infoEEEENS_11__unique_ifIT_E15__unique_singleEDpOT0_, symObjAddr: 0x240B0, symBinAddr: 0x1000265A0, symSize: 0x90 }
  - { offsetInCU: 0x4A424, offset: 0x4A424, size: 0x8, addend: 0x0, symName: __ZNSt3__111make_uniqueB7v160006IN6spdlog7details11D_formatterINS2_18null_scoped_padderEEEJRNS2_12padding_infoEEEENS_11__unique_ifIT_E15__unique_singleEDpOT0_, symObjAddr: 0x24190, symBinAddr: 0x100026680, symSize: 0x90 }
  - { offsetInCU: 0x4A466, offset: 0x4A466, size: 0x8, addend: 0x0, symName: __ZNSt3__111make_uniqueB7v160006IN6spdlog7details11m_formatterINS2_18null_scoped_padderEEEJRNS2_12padding_infoEEEENS_11__unique_ifIT_E15__unique_singleEDpOT0_, symObjAddr: 0x24270, symBinAddr: 0x100026760, symSize: 0x90 }
  - { offsetInCU: 0x4A4A8, offset: 0x4A4A8, size: 0x8, addend: 0x0, symName: __ZNSt3__111make_uniqueB7v160006IN6spdlog7details11d_formatterINS2_18null_scoped_padderEEEJRNS2_12padding_infoEEEENS_11__unique_ifIT_E15__unique_singleEDpOT0_, symObjAddr: 0x24350, symBinAddr: 0x100026840, symSize: 0x90 }
  - { offsetInCU: 0x4A4EA, offset: 0x4A4EA, size: 0x8, addend: 0x0, symName: __ZNSt3__111make_uniqueB7v160006IN6spdlog7details11H_formatterINS2_18null_scoped_padderEEEJRNS2_12padding_infoEEEENS_11__unique_ifIT_E15__unique_singleEDpOT0_, symObjAddr: 0x24430, symBinAddr: 0x100026920, symSize: 0x90 }
  - { offsetInCU: 0x4A52C, offset: 0x4A52C, size: 0x8, addend: 0x0, symName: __ZNSt3__111make_uniqueB7v160006IN6spdlog7details11I_formatterINS2_18null_scoped_padderEEEJRNS2_12padding_infoEEEENS_11__unique_ifIT_E15__unique_singleEDpOT0_, symObjAddr: 0x24510, symBinAddr: 0x100026A00, symSize: 0x90 }
  - { offsetInCU: 0x4A56E, offset: 0x4A56E, size: 0x8, addend: 0x0, symName: __ZNSt3__111make_uniqueB7v160006IN6spdlog7details11M_formatterINS2_18null_scoped_padderEEEJRNS2_12padding_infoEEEENS_11__unique_ifIT_E15__unique_singleEDpOT0_, symObjAddr: 0x245F0, symBinAddr: 0x100026AE0, symSize: 0x90 }
  - { offsetInCU: 0x4A5B0, offset: 0x4A5B0, size: 0x8, addend: 0x0, symName: __ZNSt3__111make_uniqueB7v160006IN6spdlog7details11S_formatterINS2_18null_scoped_padderEEEJRNS2_12padding_infoEEEENS_11__unique_ifIT_E15__unique_singleEDpOT0_, symObjAddr: 0x246D0, symBinAddr: 0x100026BC0, symSize: 0x90 }
  - { offsetInCU: 0x4A5F2, offset: 0x4A5F2, size: 0x8, addend: 0x0, symName: __ZNSt3__111make_uniqueB7v160006IN6spdlog7details11e_formatterINS2_18null_scoped_padderEEEJRNS2_12padding_infoEEEENS_11__unique_ifIT_E15__unique_singleEDpOT0_, symObjAddr: 0x247B0, symBinAddr: 0x100026CA0, symSize: 0x90 }
  - { offsetInCU: 0x4A634, offset: 0x4A634, size: 0x8, addend: 0x0, symName: __ZNSt3__111make_uniqueB7v160006IN6spdlog7details11f_formatterINS2_18null_scoped_padderEEEJRNS2_12padding_infoEEEENS_11__unique_ifIT_E15__unique_singleEDpOT0_, symObjAddr: 0x24890, symBinAddr: 0x100026D80, symSize: 0x90 }
  - { offsetInCU: 0x4A676, offset: 0x4A676, size: 0x8, addend: 0x0, symName: __ZNSt3__111make_uniqueB7v160006IN6spdlog7details11F_formatterINS2_18null_scoped_padderEEEJRNS2_12padding_infoEEEENS_11__unique_ifIT_E15__unique_singleEDpOT0_, symObjAddr: 0x24970, symBinAddr: 0x100026E60, symSize: 0x90 }
  - { offsetInCU: 0x4A6B8, offset: 0x4A6B8, size: 0x8, addend: 0x0, symName: __ZNSt3__111make_uniqueB7v160006IN6spdlog7details11E_formatterINS2_18null_scoped_padderEEEJRNS2_12padding_infoEEEENS_11__unique_ifIT_E15__unique_singleEDpOT0_, symObjAddr: 0x24A50, symBinAddr: 0x100026F40, symSize: 0x90 }
  - { offsetInCU: 0x4A6FA, offset: 0x4A6FA, size: 0x8, addend: 0x0, symName: __ZNSt3__111make_uniqueB7v160006IN6spdlog7details11p_formatterINS2_18null_scoped_padderEEEJRNS2_12padding_infoEEEENS_11__unique_ifIT_E15__unique_singleEDpOT0_, symObjAddr: 0x24B30, symBinAddr: 0x100027020, symSize: 0x90 }
  - { offsetInCU: 0x4A73C, offset: 0x4A73C, size: 0x8, addend: 0x0, symName: __ZNSt3__111make_uniqueB7v160006IN6spdlog7details11r_formatterINS2_18null_scoped_padderEEEJRNS2_12padding_infoEEEENS_11__unique_ifIT_E15__unique_singleEDpOT0_, symObjAddr: 0x24C10, symBinAddr: 0x100027100, symSize: 0x90 }
  - { offsetInCU: 0x4A77E, offset: 0x4A77E, size: 0x8, addend: 0x0, symName: __ZNSt3__111make_uniqueB7v160006IN6spdlog7details11R_formatterINS2_18null_scoped_padderEEEJRNS2_12padding_infoEEEENS_11__unique_ifIT_E15__unique_singleEDpOT0_, symObjAddr: 0x24CF0, symBinAddr: 0x1000271E0, symSize: 0x90 }
  - { offsetInCU: 0x4A7C0, offset: 0x4A7C0, size: 0x8, addend: 0x0, symName: __ZNSt3__111make_uniqueB7v160006IN6spdlog7details11T_formatterINS2_18null_scoped_padderEEEJRNS2_12padding_infoEEEENS_11__unique_ifIT_E15__unique_singleEDpOT0_, symObjAddr: 0x24DD0, symBinAddr: 0x1000272C0, symSize: 0x90 }
  - { offsetInCU: 0x4A802, offset: 0x4A802, size: 0x8, addend: 0x0, symName: __ZNSt3__111make_uniqueB7v160006IN6spdlog7details11z_formatterINS2_18null_scoped_padderEEEJRNS2_12padding_infoEEEENS_11__unique_ifIT_E15__unique_singleEDpOT0_, symObjAddr: 0x24EB0, symBinAddr: 0x1000273A0, symSize: 0x90 }
  - { offsetInCU: 0x4A844, offset: 0x4A844, size: 0x8, addend: 0x0, symName: __ZNSt3__111make_uniqueB7v160006IN6spdlog7details13pid_formatterINS2_18null_scoped_padderEEEJRNS2_12padding_infoEEEENS_11__unique_ifIT_E15__unique_singleEDpOT0_, symObjAddr: 0x24F90, symBinAddr: 0x100027480, symSize: 0x90 }
  - { offsetInCU: 0x4A886, offset: 0x4A886, size: 0x8, addend: 0x0, symName: __ZNSt3__111make_uniqueB7v160006IN6spdlog7details25source_location_formatterINS2_18null_scoped_padderEEEJRNS2_12padding_infoEEEENS_11__unique_ifIT_E15__unique_singleEDpOT0_, symObjAddr: 0x25070, symBinAddr: 0x100027560, symSize: 0x90 }
  - { offsetInCU: 0x4A8C8, offset: 0x4A8C8, size: 0x8, addend: 0x0, symName: __ZNSt3__111make_uniqueB7v160006IN6spdlog7details24short_filename_formatterINS2_18null_scoped_padderEEEJRNS2_12padding_infoEEEENS_11__unique_ifIT_E15__unique_singleEDpOT0_, symObjAddr: 0x25150, symBinAddr: 0x100027640, symSize: 0x90 }
  - { offsetInCU: 0x4A90A, offset: 0x4A90A, size: 0x8, addend: 0x0, symName: __ZNSt3__111make_uniqueB7v160006IN6spdlog7details25source_filename_formatterINS2_18null_scoped_padderEEEJRNS2_12padding_infoEEEENS_11__unique_ifIT_E15__unique_singleEDpOT0_, symObjAddr: 0x25230, symBinAddr: 0x100027720, symSize: 0x90 }
  - { offsetInCU: 0x4A94C, offset: 0x4A94C, size: 0x8, addend: 0x0, symName: __ZNSt3__111make_uniqueB7v160006IN6spdlog7details24source_linenum_formatterINS2_18null_scoped_padderEEEJRNS2_12padding_infoEEEENS_11__unique_ifIT_E15__unique_singleEDpOT0_, symObjAddr: 0x25310, symBinAddr: 0x100027800, symSize: 0x90 }
  - { offsetInCU: 0x4A98E, offset: 0x4A98E, size: 0x8, addend: 0x0, symName: __ZNSt3__111make_uniqueB7v160006IN6spdlog7details25source_funcname_formatterINS2_18null_scoped_padderEEEJRNS2_12padding_infoEEEENS_11__unique_ifIT_E15__unique_singleEDpOT0_, symObjAddr: 0x253F0, symBinAddr: 0x1000278E0, symSize: 0x90 }
  - { offsetInCU: 0x4A9D0, offset: 0x4A9D0, size: 0x8, addend: 0x0, symName: __ZNSt3__111make_uniqueB7v160006IN6spdlog7details17elapsed_formatterINS2_18null_scoped_padderENS_6chrono8durationIxNS_5ratioILl1ELl1000000000EEEEEEEJRNS2_12padding_infoEEEENS_11__unique_ifIT_E15__unique_singleEDpOT0_, symObjAddr: 0x254D0, symBinAddr: 0x1000279C0, symSize: 0x90 }
  - { offsetInCU: 0x4AA12, offset: 0x4AA12, size: 0x8, addend: 0x0, symName: __ZNSt3__111make_uniqueB7v160006IN6spdlog7details17elapsed_formatterINS2_18null_scoped_padderENS_6chrono8durationIxNS_5ratioILl1ELl1000000EEEEEEEJRNS2_12padding_infoEEEENS_11__unique_ifIT_E15__unique_singleEDpOT0_, symObjAddr: 0x255B0, symBinAddr: 0x100027AA0, symSize: 0x90 }
  - { offsetInCU: 0x4AA54, offset: 0x4AA54, size: 0x8, addend: 0x0, symName: __ZNSt3__111make_uniqueB7v160006IN6spdlog7details17elapsed_formatterINS2_18null_scoped_padderENS_6chrono8durationIxNS_5ratioILl1ELl1000EEEEEEEJRNS2_12padding_infoEEEENS_11__unique_ifIT_E15__unique_singleEDpOT0_, symObjAddr: 0x25690, symBinAddr: 0x100027B80, symSize: 0x90 }
  - { offsetInCU: 0x4AA96, offset: 0x4AA96, size: 0x8, addend: 0x0, symName: __ZNSt3__111make_uniqueB7v160006IN6spdlog7details17elapsed_formatterINS2_18null_scoped_padderENS_6chrono8durationIxNS_5ratioILl1ELl1EEEEEEEJRNS2_12padding_infoEEEENS_11__unique_ifIT_E15__unique_singleEDpOT0_, symObjAddr: 0x25770, symBinAddr: 0x100027C60, symSize: 0x90 }
  - { offsetInCU: 0x4AAD8, offset: 0x4AAD8, size: 0x8, addend: 0x0, symName: __ZNSt3__111make_uniqueB7v160006IN6spdlog7details13mdc_formatterINS2_18null_scoped_padderEEEJRNS2_12padding_infoEEEENS_11__unique_ifIT_E15__unique_singleEDpOT0_, symObjAddr: 0x25850, symBinAddr: 0x100027D40, symSize: 0x90 }
  - { offsetInCU: 0x4AB4D, offset: 0x4AB4D, size: 0x8, addend: 0x0, symName: __ZNSt3__115allocate_sharedB7v160006IN6spdlog6loggerENS_9allocatorIS2_EEJRPKcNS_10shared_ptrINS1_5sinks21ansicolor_stdout_sinkINS1_7details13console_mutexEEEEEEvEENS8_IT_EERKT0_DpOT1_, symObjAddr: 0x334B0, symBinAddr: 0x1000359A0, symSize: 0xB0 }
  - { offsetInCU: 0x4AE70, offset: 0x4AE70, size: 0x8, addend: 0x0, symName: __ZNSt3__122__make_exception_guardB7v160006INS_6vectorINS_10shared_ptrIN6spdlog5sinks4sinkEEENS_9allocatorIS6_EEE16__destroy_vectorEEENS_28__exception_guard_exceptionsIT_EESC_, symObjAddr: 0x340F0, symBinAddr: 0x1000365E0, symSize: 0x40 }
  - { offsetInCU: 0x4AEA5, offset: 0x4AEA5, size: 0x8, addend: 0x0, symName: __ZNSt3__119__debug_db_insert_cB7v160006INS_6vectorINS_10shared_ptrIN6spdlog5sinks4sinkEEENS_9allocatorIS6_EEEEEEvPT_, symObjAddr: 0x34160, symBinAddr: 0x100036650, symSize: 0x10 }
  - { offsetInCU: 0x4AED6, offset: 0x4AED6, size: 0x8, addend: 0x0, symName: __ZNSt3__18distanceB7v160006IPKNS_10shared_ptrIN6spdlog5sinks4sinkEEEEENS_15iterator_traitsIT_E15difference_typeES9_S9_, symObjAddr: 0x34170, symBinAddr: 0x100036660, symSize: 0x30 }
  - { offsetInCU: 0x4AF19, offset: 0x4AF19, size: 0x8, addend: 0x0, symName: __ZNSt3__110__distanceB7v160006IPKNS_10shared_ptrIN6spdlog5sinks4sinkEEEEENS_15iterator_traitsIT_E15difference_typeES9_S9_NS_26random_access_iterator_tagE, symObjAddr: 0x34430, symBinAddr: 0x100036920, symSize: 0x20 }
  - { offsetInCU: 0x4AF67, offset: 0x4AF67, size: 0x8, addend: 0x0, symName: __ZNSt3__119__allocate_at_leastB7v160006INS_9allocatorINS_10shared_ptrIN6spdlog5sinks4sinkEEEEEEENS_19__allocation_resultINS_16allocator_traitsIT_E7pointerEEERSA_m, symObjAddr: 0x344D0, symBinAddr: 0x1000369C0, symSize: 0x40 }
  - { offsetInCU: 0x4AFAA, offset: 0x4AFAA, size: 0x8, addend: 0x0, symName: __ZNSt3__112__to_addressB7v160006INS_10shared_ptrIN6spdlog5sinks4sinkEEEEEPT_S7_, symObjAddr: 0x347B0, symBinAddr: 0x100036CA0, symSize: 0x10 }
  - { offsetInCU: 0x4AFDF, offset: 0x4AFDF, size: 0x8, addend: 0x0, symName: __ZNSt3__130__uninitialized_allocator_copyB7v160006INS_9allocatorINS_10shared_ptrIN6spdlog5sinks4sinkEEEEEPKS6_S9_PS6_EET2_RT_T0_T1_SB_, symObjAddr: 0x34840, symBinAddr: 0x100036D30, symSize: 0x100 }
  - { offsetInCU: 0x4B07D, offset: 0x4B07D, size: 0x8, addend: 0x0, symName: __ZNSt3__122__make_exception_guardB7v160006INS_29_AllocatorDestroyRangeReverseINS_9allocatorINS_10shared_ptrIN6spdlog5sinks4sinkEEEEEPS7_EEEENS_28__exception_guard_exceptionsIT_EESC_, symObjAddr: 0x349A0, symBinAddr: 0x100036E90, symSize: 0x60 }
  - { offsetInCU: 0x4B0B2, offset: 0x4B0B2, size: 0x8, addend: 0x0, symName: __ZNSt3__134__libcpp_atomic_refcount_incrementB7v160006IlEET_RS1_, symObjAddr: 0x34C50, symBinAddr: 0x100037140, symSize: 0x30 }
  - { offsetInCU: 0x4B0E8, offset: 0x4B0E8, size: 0x8, addend: 0x0, symName: __ZNSt3__119__allocator_destroyB7v160006INS_9allocatorINS_10shared_ptrIN6spdlog5sinks4sinkEEEEENS_16reverse_iteratorIPS6_EESA_EEvRT_T0_T1_, symObjAddr: 0x34D20, symBinAddr: 0x100037210, symSize: 0x70 }
  - { offsetInCU: 0x4B14B, offset: 0x4B14B, size: 0x8, addend: 0x0, symName: __ZNSt3__1neB7v160006IPNS_10shared_ptrIN6spdlog5sinks4sinkEEES6_EEbRKNS_16reverse_iteratorIT_EERKNS7_IT0_EE, symObjAddr: 0x34DC0, symBinAddr: 0x1000372B0, symSize: 0x40 }
  - { offsetInCU: 0x4B197, offset: 0x4B197, size: 0x8, addend: 0x0, symName: __ZNSt3__112__to_addressB7v160006INS_16reverse_iteratorIPNS_10shared_ptrIN6spdlog5sinks4sinkEEEEEvEENS_5decayIDTclsr19__to_address_helperIT_EE6__callclsr3stdE7declvalIRKSA_EEEEE4typeESC_, symObjAddr: 0x34E30, symBinAddr: 0x100037320, symSize: 0x20 }
  - { offsetInCU: 0x4B1F7, offset: 0x4B1F7, size: 0x8, addend: 0x0, symName: __ZNSt3__118__debug_db_erase_cB7v160006INS_6vectorINS_10shared_ptrIN6spdlog5sinks4sinkEEENS_9allocatorIS6_EEEEEEvPT_, symObjAddr: 0x35110, symBinAddr: 0x100037600, symSize: 0x10 }
  - { offsetInCU: 0x4B228, offset: 0x4B228, size: 0x8, addend: 0x0, symName: __ZNSt3__119__debug_db_insert_cB7v160006INS_6vectorIN6spdlog7details14log_msg_bufferENS_9allocatorIS4_EEEEEEvPT_, symObjAddr: 0x354D0, symBinAddr: 0x1000379C0, symSize: 0x10 }
  - { offsetInCU: 0x4B259, offset: 0x4B259, size: 0x8, addend: 0x0, symName: __ZNSt3__134__libcpp_atomic_refcount_decrementB7v160006IlEET_RS1_, symObjAddr: 0x35660, symBinAddr: 0x100037B50, symSize: 0x30 }
  - { offsetInCU: 0x4B2C1, offset: 0x4B2C1, size: 0x8, addend: 0x0, symName: __ZNSt3__14swapB7v160006IPN6spdlog6loggerEEENS_9enable_ifIXaasr21is_move_constructibleIT_EE5valuesr18is_move_assignableIS5_EE5valueEvE4typeERS5_S8_, symObjAddr: 0x35910, symBinAddr: 0x100037E00, symSize: 0x40 }
  - { offsetInCU: 0x4B312, offset: 0x4B312, size: 0x8, addend: 0x0, symName: __ZNSt3__14swapB7v160006IPNS_19__shared_weak_countEEENS_9enable_ifIXaasr21is_move_constructibleIT_EE5valuesr18is_move_assignableIS4_EE5valueEvE4typeERS4_S7_, symObjAddr: 0x35950, symBinAddr: 0x100037E40, symSize: 0x40 }
  - { offsetInCU: 0x4B39A, offset: 0x4B39A, size: 0x8, addend: 0x0, symName: __ZNSt3__116forward_as_tupleB7v160006IJNS_12basic_stringIcNS_11char_traitsIcEENS_9allocatorIcEEEEEEENS_5tupleIJDpOT_EEESA_, symObjAddr: 0x35FB0, symBinAddr: 0x1000384A0, symSize: 0x30 }
  - { offsetInCU: 0x4B3D3, offset: 0x4B3D3, size: 0x8, addend: 0x0, symName: __ZNSt3__116forward_as_tupleB7v160006IJEEENS_5tupleIJDpOT_EEES4_, symObjAddr: 0x35FE0, symBinAddr: 0x1000384D0, symSize: 0x10 }
  - { offsetInCU: 0x4B3F7, offset: 0x4B3F7, size: 0x8, addend: 0x0, symName: __ZNSt3__116__is_hash_power2B7v160006Em, symObjAddr: 0x36340, symBinAddr: 0x100038830, symSize: 0x40 }
  - { offsetInCU: 0x4B423, offset: 0x4B423, size: 0x8, addend: 0x0, symName: __ZNSt3__116__do_string_hashB7v160006IPKcEEmT_S3_, symObjAddr: 0x36570, symBinAddr: 0x100038A60, symSize: 0x40 }
  - { offsetInCU: 0x4B469, offset: 0x4B469, size: 0x8, addend: 0x0, symName: __ZNSt3__110__loadwordB7v160006ImEET_PKv, symObjAddr: 0x36E60, symBinAddr: 0x100039350, symSize: 0x20 }
  - { offsetInCU: 0x4B4AC, offset: 0x4B4AC, size: 0x8, addend: 0x0, symName: __ZNSt3__14swapB7v160006ImEENS_9enable_ifIXaasr21is_move_constructibleIT_EE5valuesr18is_move_assignableIS2_EE5valueEvE4typeERS2_S5_, symObjAddr: 0x37020, symBinAddr: 0x100039510, symSize: 0x40 }
  - { offsetInCU: 0x4B4FD, offset: 0x4B4FD, size: 0x8, addend: 0x0, symName: __ZNSt3__110__loadwordB7v160006IjEET_PKv, symObjAddr: 0x370B0, symBinAddr: 0x1000395A0, symSize: 0x20 }
  - { offsetInCU: 0x4B540, offset: 0x4B540, size: 0x8, addend: 0x0, symName: __ZNSt3__1eqB7v160006INS_9allocatorIcEEEEbRKNS_12basic_stringIcNS_11char_traitsIcEET_EES9_, symObjAddr: 0x37330, symBinAddr: 0x100039820, symSize: 0x110 }
  - { offsetInCU: 0x4B5B3, offset: 0x4B5B3, size: 0x8, addend: 0x0, symName: __ZNSt3__118__constexpr_memcmpB7v160006IcEEiPKT_S3_m, symObjAddr: 0x374A0, symBinAddr: 0x100039990, symSize: 0x30 }
  - { offsetInCU: 0x4B661, offset: 0x4B661, size: 0x8, addend: 0x0, symName: __ZNSt3__13getB7v160006ILm0EJONS_12basic_stringIcNS_11char_traitsIcEENS_9allocatorIcEEEEEEERNS_13tuple_elementIXT_ENS_5tupleIJDpT0_EEEE4typeERSC_, symObjAddr: 0x37910, symBinAddr: 0x100039E00, symSize: 0x20 }
  - { offsetInCU: 0x4B6A4, offset: 0x4B6A4, size: 0x8, addend: 0x0, symName: __ZNSt3__116__next_hash_pow2B7v160006Em, symObjAddr: 0x37E60, symBinAddr: 0x10003A350, symSize: 0x60 }
  - { offsetInCU: 0x4B6D0, offset: 0x4B6D0, size: 0x8, addend: 0x0, symName: __ZNSt3__125__debug_db_invalidate_allB7v160006INS_12__hash_tableINS_17__hash_value_typeINS_12basic_stringIcNS_11char_traitsIcEENS_9allocatorIcEEEENS_10shared_ptrIN6spdlog6loggerEEEEENS_22__unordered_map_hasherIS8_SD_NS_4hashIS8_EENS_8equal_toIS8_EELb1EEENS_21__unordered_map_equalIS8_SD_SI_SG_Lb1EEENS6_ISD_EEEEEEvPT_, symObjAddr: 0x37EC0, symBinAddr: 0x10003A3B0, symSize: 0x10 }
  - { offsetInCU: 0x4B701, offset: 0x4B701, size: 0x8, addend: 0x0, symName: __ZNSt3__112__libcpp_clzB7v160006Em, symObjAddr: 0x381D0, symBinAddr: 0x10003A6C0, symSize: 0x20 }
  - { offsetInCU: 0x4B784, offset: 0x4B784, size: 0x8, addend: 0x0, symName: __ZNSt3__122__libcpp_thread_isnullB7v160006EPKP17_opaque_pthread_t, symObjAddr: 0x388A0, symBinAddr: 0x10003AD90, symSize: 0x30 }
  - { offsetInCU: 0x4B7B2, offset: 0x4B7B2, size: 0x8, addend: 0x0, symName: __ZNSt3__122__libcpp_thread_get_idB7v160006EPKP17_opaque_pthread_t, symObjAddr: 0x388D0, symBinAddr: 0x10003ADC0, symSize: 0x20 }
  - { offsetInCU: 0x4B7E0, offset: 0x4B7E0, size: 0x8, addend: 0x0, symName: __ZNSt3__118__debug_db_erase_cB7v160006INS_12__hash_tableINS_17__hash_value_typeINS_12basic_stringIcNS_11char_traitsIcEENS_9allocatorIcEEEEN6spdlog5level10level_enumEEENS_22__unordered_map_hasherIS8_SC_NS_4hashIS8_EENS_8equal_toIS8_EELb1EEENS_21__unordered_map_equalIS8_SC_SH_SF_Lb1EEENS6_ISC_EEEEEEvPT_, symObjAddr: 0x38B40, symBinAddr: 0x10003B030, symSize: 0x10 }
  - { offsetInCU: 0x4B8D1, offset: 0x4B8D1, size: 0x8, addend: 0x0, symName: __ZNSt3__118__debug_db_erase_cB7v160006INS_12__hash_tableINS_17__hash_value_typeINS_12basic_stringIcNS_11char_traitsIcEENS_9allocatorIcEEEENS_10shared_ptrIN6spdlog6loggerEEEEENS_22__unordered_map_hasherIS8_SD_NS_4hashIS8_EENS_8equal_toIS8_EELb1EEENS_21__unordered_map_equalIS8_SD_SI_SG_Lb1EEENS6_ISD_EEEEEEvPT_, symObjAddr: 0x39070, symBinAddr: 0x10003B560, symSize: 0x10 }
  - { offsetInCU: 0x4B902, offset: 0x4B902, size: 0x8, addend: 0x0, symName: __ZNSt3__1neB7v160006ERKNS_19__hash_map_iteratorINS_15__hash_iteratorIPNS_11__hash_nodeINS_17__hash_value_typeINS_12basic_stringIcNS_11char_traitsIcEENS_9allocatorIcEEEENS_10shared_ptrIN6spdlog6loggerEEEEEPvEEEEEESL_, symObjAddr: 0x39230, symBinAddr: 0x10003B720, symSize: 0x30 }
  - { offsetInCU: 0x4B93F, offset: 0x4B93F, size: 0x8, addend: 0x0, symName: __ZNSt3__1neB7v160006ERKNS_15__hash_iteratorIPNS_11__hash_nodeINS_17__hash_value_typeINS_12basic_stringIcNS_11char_traitsIcEENS_9allocatorIcEEEENS_10shared_ptrIN6spdlog6loggerEEEEEPvEEEESJ_, symObjAddr: 0x393B0, symBinAddr: 0x10003B8A0, symSize: 0x30 }
  - { offsetInCU: 0x4B97C, offset: 0x4B97C, size: 0x8, addend: 0x0, symName: __ZNSt3__1eqB7v160006ERKNS_15__hash_iteratorIPNS_11__hash_nodeINS_17__hash_value_typeINS_12basic_stringIcNS_11char_traitsIcEENS_9allocatorIcEEEENS_10shared_ptrIN6spdlog6loggerEEEEEPvEEEESJ_, symObjAddr: 0x393E0, symBinAddr: 0x10003B8D0, symSize: 0x30 }
  - { offsetInCU: 0x4B9BA, offset: 0x4B9BA, size: 0x8, addend: 0x0, symName: __ZNSt3__118__cxx_atomic_storeB7v160006IiEEvPNS_22__cxx_atomic_base_implIT_EES2_NS_12memory_orderE, symObjAddr: 0x39440, symBinAddr: 0x10003B930, symSize: 0x70 }
  - { offsetInCU: 0x4BA0B, offset: 0x4BA0B, size: 0x8, addend: 0x0, symName: __ZNSt3__118__debug_db_erase_cB7v160006INS_6vectorIN6spdlog7details14log_msg_bufferENS_9allocatorIS4_EEEEEEvPT_, symObjAddr: 0x398A0, symBinAddr: 0x10003BD90, symSize: 0x10 }
  - { offsetInCU: 0x4BA3C, offset: 0x4BA3C, size: 0x8, addend: 0x0, symName: __ZNSt3__112__to_addressB7v160006IN6spdlog7details14log_msg_bufferEEEPT_S5_, symObjAddr: 0x399D0, symBinAddr: 0x10003BEC0, symSize: 0x10 }
  - { offsetInCU: 0x4BA71, offset: 0x4BA71, size: 0x8, addend: 0x0, symName: __ZNSt3__1neB7v160006IPNS_10shared_ptrIN6spdlog5sinks4sinkEEEEEbRKNS_11__wrap_iterIT_EESB_, symObjAddr: 0x39C60, symBinAddr: 0x10003C150, symSize: 0x30 }
  - { offsetInCU: 0x4BAB4, offset: 0x4BAB4, size: 0x8, addend: 0x0, symName: __ZNSt3__1eqB7v160006IPNS_10shared_ptrIN6spdlog5sinks4sinkEEEEEbRKNS_11__wrap_iterIT_EESB_, symObjAddr: 0x3A230, symBinAddr: 0x10003C720, symSize: 0x40 }
  - { offsetInCU: 0x4BAF8, offset: 0x4BAF8, size: 0x8, addend: 0x0, symName: __ZNSt3__125__throw_bad_function_callB7v160006Ev, symObjAddr: 0x3A440, symBinAddr: 0x10003C930, symSize: 0x40 }
  - { offsetInCU: 0x4BB48, offset: 0x4BB48, size: 0x8, addend: 0x0, symName: __ZNSt3__1neB7v160006IPNS_10unique_ptrIN6spdlog7details14flag_formatterENS_14default_deleteIS4_EEEEEEbRKNS_11__wrap_iterIT_EESD_, symObjAddr: 0x3A860, symBinAddr: 0x10003CD50, symSize: 0x30 }
  - { offsetInCU: 0x4BB8B, offset: 0x4BB8B, size: 0x8, addend: 0x0, symName: __ZNSt3__1eqB7v160006IPNS_10unique_ptrIN6spdlog7details14flag_formatterENS_14default_deleteIS4_EEEEEEbRKNS_11__wrap_iterIT_EESD_, symObjAddr: 0x3A970, symBinAddr: 0x10003CE60, symSize: 0x40 }
  - { offsetInCU: 0x4BC01, offset: 0x4BC01, size: 0x8, addend: 0x0, symName: __ZNSt3__14moveB7v160006INS_11__wrap_iterIPN8nlohmann16json_abi_v3_11_310basic_jsonINS_3mapENS_6vectorENS_12basic_stringIcNS_11char_traitsIcEENS_9allocatorIcEEEEbxydSA_NS3_14adl_serializerENS6_IhNSA_IhEEEEvEEEENS_20back_insert_iteratorINS6_ISG_NSA_ISG_EEEEEEEET0_T_SO_SN_, symObjAddr: 0x3B6D0, symBinAddr: 0x10003DBC0, symSize: 0x60 }
  - { offsetInCU: 0x4BC5B, offset: 0x4BC5B, size: 0x8, addend: 0x0, symName: __ZNSt3__113back_inserterB7v160006INS_6vectorIN8nlohmann16json_abi_v3_11_310basic_jsonINS_3mapES1_NS_12basic_stringIcNS_11char_traitsIcEENS_9allocatorIcEEEEbxydS9_NS3_14adl_serializerENS1_IhNS9_IhEEEEvEENS9_ISF_EEEEEENS_20back_insert_iteratorIT_EERSJ_, symObjAddr: 0x3B790, symBinAddr: 0x10003DC80, symSize: 0x30 }
  - { offsetInCU: 0x4BC90, offset: 0x4BC90, size: 0x8, addend: 0x0, symName: __ZNSt3__1neB7v160006ERKNS_14__map_iteratorINS_15__tree_iteratorINS_12__value_typeINS_12basic_stringIcNS_11char_traitsIcEENS_9allocatorIcEEEEN8nlohmann16json_abi_v3_11_310basic_jsonINS_3mapENS_6vectorES8_bxydS6_NSA_14adl_serializerENSD_IhNS6_IhEEEEvEEEEPNS_11__tree_nodeISI_PvEElEEEESQ_, symObjAddr: 0x3B840, symBinAddr: 0x10003DD30, symSize: 0x30 }
  - { offsetInCU: 0x4C4AA, offset: 0x4C4AA, size: 0x8, addend: 0x0, symName: __ZNSt3__119__debug_db_insert_cB7v160006INS_6vectorIN8nlohmann16json_abi_v3_11_310basic_jsonINS_3mapES1_NS_12basic_stringIcNS_11char_traitsIcEENS_9allocatorIcEEEEbxydS9_NS3_14adl_serializerENS1_IhNS9_IhEEEEvEENS9_ISF_EEEEEEvPT_, symObjAddr: 0x3BD30, symBinAddr: 0x10003E220, symSize: 0x10 }
  - { offsetInCU: 0x4C4DB, offset: 0x4C4DB, size: 0x8, addend: 0x0, symName: __ZNSt3__119__allocate_at_leastB7v160006INS_9allocatorIN8nlohmann16json_abi_v3_11_310basic_jsonINS_3mapENS_6vectorENS_12basic_stringIcNS_11char_traitsIcEENS1_IcEEEEbxydS1_NS3_14adl_serializerENS6_IhNS1_IhEEEEvEEEEEENS_19__allocation_resultINS_16allocator_traitsIT_E7pointerEEERSJ_m, symObjAddr: 0x3C260, symBinAddr: 0x10003E750, symSize: 0x40 }
  - { offsetInCU: 0x4C51E, offset: 0x4C51E, size: 0x8, addend: 0x0, symName: __ZNSt3__142__uninitialized_allocator_move_if_noexceptB7v160006INS_9allocatorIN8nlohmann16json_abi_v3_11_310basic_jsonINS_3mapENS_6vectorENS_12basic_stringIcNS_11char_traitsIcEENS1_IcEEEEbxydS1_NS3_14adl_serializerENS6_IhNS1_IhEEEEvEEEENS_16reverse_iteratorIPSF_EESJ_SJ_EET2_RT_T0_T1_SK_, symObjAddr: 0x3C4B0, symBinAddr: 0x10003E9A0, symSize: 0x180 }
  - { offsetInCU: 0x4C5BD, offset: 0x4C5BD, size: 0x8, addend: 0x0, symName: __ZNSt3__14swapB7v160006IPN8nlohmann16json_abi_v3_11_310basic_jsonINS_3mapENS_6vectorENS_12basic_stringIcNS_11char_traitsIcEENS_9allocatorIcEEEEbxydS9_NS2_14adl_serializerENS5_IhNS9_IhEEEEvEEEENS_9enable_ifIXaasr21is_move_constructibleIT_EE5valuesr18is_move_assignableISI_EE5valueEvE4typeERSI_SL_, symObjAddr: 0x3C680, symBinAddr: 0x10003EB70, symSize: 0x40 }
  - { offsetInCU: 0x4C60E, offset: 0x4C60E, size: 0x8, addend: 0x0, symName: __ZNSt3__125__debug_db_invalidate_allB7v160006INS_6vectorIN8nlohmann16json_abi_v3_11_310basic_jsonINS_3mapES1_NS_12basic_stringIcNS_11char_traitsIcEENS_9allocatorIcEEEEbxydS9_NS3_14adl_serializerENS1_IhNS9_IhEEEEvEENS9_ISF_EEEEEEvPT_, symObjAddr: 0x3C790, symBinAddr: 0x10003EC80, symSize: 0x10 }
  - { offsetInCU: 0x4C63F, offset: 0x4C63F, size: 0x8, addend: 0x0, symName: __ZNSt3__112__to_addressB7v160006IN8nlohmann16json_abi_v3_11_310basic_jsonINS_3mapENS_6vectorENS_12basic_stringIcNS_11char_traitsIcEENS_9allocatorIcEEEEbxydS9_NS2_14adl_serializerENS5_IhNS9_IhEEEEvEEEEPT_SH_, symObjAddr: 0x3C7E0, symBinAddr: 0x10003ECD0, symSize: 0x10 }
  - { offsetInCU: 0x4C674, offset: 0x4C674, size: 0x8, addend: 0x0, symName: __ZNSt3__122__make_exception_guardB7v160006INS_29_AllocatorDestroyRangeReverseINS_9allocatorIN8nlohmann16json_abi_v3_11_310basic_jsonINS_3mapENS_6vectorENS_12basic_stringIcNS_11char_traitsIcEENS2_IcEEEEbxydS2_NS4_14adl_serializerENS7_IhNS2_IhEEEEvEEEENS_16reverse_iteratorIPSG_EEEEEENS_28__exception_guard_exceptionsIT_EESN_, symObjAddr: 0x3C7F0, symBinAddr: 0x10003ECE0, symSize: 0x60 }
  - { offsetInCU: 0x4C6A9, offset: 0x4C6A9, size: 0x8, addend: 0x0, symName: __ZNSt3__1neB7v160006IPN8nlohmann16json_abi_v3_11_310basic_jsonINS_3mapENS_6vectorENS_12basic_stringIcNS_11char_traitsIcEENS_9allocatorIcEEEEbxydS9_NS2_14adl_serializerENS5_IhNS9_IhEEEEvEESG_EEbRKNS_16reverse_iteratorIT_EERKNSH_IT0_EE, symObjAddr: 0x3C890, symBinAddr: 0x10003ED80, symSize: 0x40 }
  - { offsetInCU: 0x4C6F5, offset: 0x4C6F5, size: 0x8, addend: 0x0, symName: __ZNSt3__112__to_addressB7v160006INS_16reverse_iteratorIPN8nlohmann16json_abi_v3_11_310basic_jsonINS_3mapENS_6vectorENS_12basic_stringIcNS_11char_traitsIcEENS_9allocatorIcEEEEbxydSA_NS3_14adl_serializerENS6_IhNSA_IhEEEEvEEEEvEENS_5decayIDTclsr19__to_address_helperIT_EE6__callclsr3stdE7declvalIRKSK_EEEEE4typeESM_, symObjAddr: 0x3C900, symBinAddr: 0x10003EDF0, symSize: 0x20 }
  - { offsetInCU: 0x4C756, offset: 0x4C756, size: 0x8, addend: 0x0, symName: __ZNSt3__119__allocator_destroyB7v160006INS_9allocatorIN8nlohmann16json_abi_v3_11_310basic_jsonINS_3mapENS_6vectorENS_12basic_stringIcNS_11char_traitsIcEENS1_IcEEEEbxydS1_NS3_14adl_serializerENS6_IhNS1_IhEEEEvEEEENS_16reverse_iteratorINSH_IPSF_EEEESK_EEvRT_T0_T1_, symObjAddr: 0x3CC20, symBinAddr: 0x10003F110, symSize: 0x70 }
  - { offsetInCU: 0x4C7B9, offset: 0x4C7B9, size: 0x8, addend: 0x0, symName: __ZNSt3__1neB7v160006INS_16reverse_iteratorIPN8nlohmann16json_abi_v3_11_310basic_jsonINS_3mapENS_6vectorENS_12basic_stringIcNS_11char_traitsIcEENS_9allocatorIcEEEEbxydSA_NS3_14adl_serializerENS6_IhNSA_IhEEEEvEEEESI_EEbRKNS1_IT_EERKNS1_IT0_EE, symObjAddr: 0x3CCC0, symBinAddr: 0x10003F1B0, symSize: 0x50 }
  - { offsetInCU: 0x4C805, offset: 0x4C805, size: 0x8, addend: 0x0, symName: __ZNSt3__112__to_addressB7v160006INS_16reverse_iteratorINS1_IPN8nlohmann16json_abi_v3_11_310basic_jsonINS_3mapENS_6vectorENS_12basic_stringIcNS_11char_traitsIcEENS_9allocatorIcEEEEbxydSA_NS3_14adl_serializerENS6_IhNSA_IhEEEEvEEEEEEvEENS_5decayIDTclsr19__to_address_helperIT_EE6__callclsr3stdE7declvalIRKSL_EEEEE4typeESN_, symObjAddr: 0x3CD40, symBinAddr: 0x10003F230, symSize: 0x20 }
  - { offsetInCU: 0x4C865, offset: 0x4C865, size: 0x8, addend: 0x0, symName: __ZNSt3__16__moveB7v160006INS_17_ClassicAlgPolicyENS_11__wrap_iterIPN8nlohmann16json_abi_v3_11_310basic_jsonINS_3mapENS_6vectorENS_12basic_stringIcNS_11char_traitsIcEENS_9allocatorIcEEEEbxydSB_NS4_14adl_serializerENS7_IhNSB_IhEEEEvEEEESJ_NS_20back_insert_iteratorINS7_ISH_NSB_ISH_EEEEEEEENS_4pairIT0_T2_EESP_T1_SQ_, symObjAddr: 0x3D140, symBinAddr: 0x10003F630, symSize: 0x60 }
  - { offsetInCU: 0x4C8D1, offset: 0x4C8D1, size: 0x8, addend: 0x0, symName: __ZNSt3__123__dispatch_copy_or_moveB7v160006INS_17_ClassicAlgPolicyENS_11__move_loopIS1_EENS_14__move_trivialENS_11__wrap_iterIPN8nlohmann16json_abi_v3_11_310basic_jsonINS_3mapENS_6vectorENS_12basic_stringIcNS_11char_traitsIcEENS_9allocatorIcEEEEbxydSE_NS7_14adl_serializerENSA_IhNSE_IhEEEEvEEEESM_NS_20back_insert_iteratorINSA_ISK_NSE_ISK_EEEEEEEENS_4pairIT2_T4_EESS_T3_ST_, symObjAddr: 0x3D1A0, symBinAddr: 0x10003F690, symSize: 0x60 }
  - { offsetInCU: 0x4C94F, offset: 0x4C94F, size: 0x8, addend: 0x0, symName: __ZNSt3__121__unwrap_and_dispatchB7v160006INS_10__overloadINS_11__move_loopINS_17_ClassicAlgPolicyEEENS_14__move_trivialEEENS_11__wrap_iterIPN8nlohmann16json_abi_v3_11_310basic_jsonINS_3mapENS_6vectorENS_12basic_stringIcNS_11char_traitsIcEENS_9allocatorIcEEEEbxydSG_NS9_14adl_serializerENSC_IhNSG_IhEEEEvEEEESO_NS_20back_insert_iteratorINSC_ISM_NSG_ISM_EEEEEELi0EEENS_4pairIT0_T2_EESU_T1_SV_, symObjAddr: 0x3D200, symBinAddr: 0x10003F6F0, symSize: 0x100 }
  - { offsetInCU: 0x4C9DE, offset: 0x4C9DE, size: 0x8, addend: 0x0, symName: __ZNSt3__114__unwrap_rangeB7v160006INS_11__wrap_iterIPN8nlohmann16json_abi_v3_11_310basic_jsonINS_3mapENS_6vectorENS_12basic_stringIcNS_11char_traitsIcEENS_9allocatorIcEEEEbxydSA_NS3_14adl_serializerENS6_IhNSA_IhEEEEvEEEESH_EENS_4pairIT0_SK_EET_SM_, symObjAddr: 0x3D300, symBinAddr: 0x10003F7F0, symSize: 0x60 }
  - { offsetInCU: 0x4CC16, offset: 0x4CC16, size: 0x8, addend: 0x0, symName: __ZNSt3__113__unwrap_iterB7v160006INS_20back_insert_iteratorINS_6vectorIN8nlohmann16json_abi_v3_11_310basic_jsonINS_3mapES2_NS_12basic_stringIcNS_11char_traitsIcEENS_9allocatorIcEEEEbxydSA_NS4_14adl_serializerENS2_IhNSA_IhEEEEvEENSA_ISG_EEEEEENS_18__unwrap_iter_implISJ_Lb0EEELi0EEEDTclsrT0_8__unwrapclsr3stdE7declvalIT_EEEESN_, symObjAddr: 0x3D3F0, symBinAddr: 0x10003F8E0, symSize: 0x30 }
  - { offsetInCU: 0x4CC5A, offset: 0x4CC5A, size: 0x8, addend: 0x0, symName: __ZNSt3__19make_pairB7v160006INS_11__wrap_iterIPN8nlohmann16json_abi_v3_11_310basic_jsonINS_3mapENS_6vectorENS_12basic_stringIcNS_11char_traitsIcEENS_9allocatorIcEEEEbxydSA_NS3_14adl_serializerENS6_IhNSA_IhEEEEvEEEENS_20back_insert_iteratorINS6_ISG_NSA_ISG_EEEEEEEENS_4pairINS_18__unwrap_ref_decayIT_E4typeENSO_IT0_E4typeEEEOSP_OSS_, symObjAddr: 0x3D420, symBinAddr: 0x10003F910, symSize: 0x30 }
  - { offsetInCU: 0x4CCA9, offset: 0x4CCA9, size: 0x8, addend: 0x0, symName: __ZNSt3__114__rewrap_rangeB7v160006INS_11__wrap_iterIPN8nlohmann16json_abi_v3_11_310basic_jsonINS_3mapENS_6vectorENS_12basic_stringIcNS_11char_traitsIcEENS_9allocatorIcEEEEbxydSA_NS3_14adl_serializerENS6_IhNSA_IhEEEEvEEEESH_EET_SJ_T0_, symObjAddr: 0x3D450, symBinAddr: 0x10003F940, symSize: 0x40 }
  - { offsetInCU: 0x4CCF5, offset: 0x4CCF5, size: 0x8, addend: 0x0, symName: __ZNSt3__113__rewrap_iterB7v160006INS_20back_insert_iteratorINS_6vectorIN8nlohmann16json_abi_v3_11_310basic_jsonINS_3mapES2_NS_12basic_stringIcNS_11char_traitsIcEENS_9allocatorIcEEEEbxydSA_NS4_14adl_serializerENS2_IhNSA_IhEEEEvEENSA_ISG_EEEEEESJ_NS_18__unwrap_iter_implISJ_Lb0EEEEET_SM_T0_, symObjAddr: 0x3D490, symBinAddr: 0x10003F980, symSize: 0x50 }
  - { offsetInCU: 0x4CD4A, offset: 0x4CD4A, size: 0x8, addend: 0x0, symName: __ZNSt3__19make_pairB7v160006IPN8nlohmann16json_abi_v3_11_310basic_jsonINS_3mapENS_6vectorENS_12basic_stringIcNS_11char_traitsIcEENS_9allocatorIcEEEEbxydS9_NS2_14adl_serializerENS5_IhNS9_IhEEEEvEESG_EENS_4pairINS_18__unwrap_ref_decayIT_E4typeENSI_IT0_E4typeEEEOSJ_OSM_, symObjAddr: 0x3D4E0, symBinAddr: 0x10003F9D0, symSize: 0x30 }
  - { offsetInCU: 0x4CD99, offset: 0x4CD99, size: 0x8, addend: 0x0, symName: __ZNSt3__113__unwrap_iterB7v160006INS_11__wrap_iterIPN8nlohmann16json_abi_v3_11_310basic_jsonINS_3mapENS_6vectorENS_12basic_stringIcNS_11char_traitsIcEENS_9allocatorIcEEEEbxydSA_NS3_14adl_serializerENS6_IhNSA_IhEEEEvEEEENS_18__unwrap_iter_implISI_Lb1EEELi0EEEDTclsrT0_8__unwrapclsr3stdE7declvalIT_EEEESM_, symObjAddr: 0x3D510, symBinAddr: 0x10003FA00, symSize: 0x30 }
  - { offsetInCU: 0x4CF04, offset: 0x4CF04, size: 0x8, addend: 0x0, symName: __ZNSt3__112__to_addressB7v160006INS_11__wrap_iterIPN8nlohmann16json_abi_v3_11_310basic_jsonINS_3mapENS_6vectorENS_12basic_stringIcNS_11char_traitsIcEENS_9allocatorIcEEEEbxydSA_NS3_14adl_serializerENS6_IhNSA_IhEEEEvEEEEvEENS_5decayIDTclsr19__to_address_helperIT_EE6__callclsr3stdE7declvalIRKSK_EEEEE4typeESM_, symObjAddr: 0x3D5C0, symBinAddr: 0x10003FAB0, symSize: 0x20 }
  - { offsetInCU: 0x4D0B4, offset: 0x4D0B4, size: 0x8, addend: 0x0, symName: __ZNSt3__19make_pairB7v160006IPN8nlohmann16json_abi_v3_11_310basic_jsonINS_3mapENS_6vectorENS_12basic_stringIcNS_11char_traitsIcEENS_9allocatorIcEEEEbxydS9_NS2_14adl_serializerENS5_IhNS9_IhEEEEvEENS_20back_insert_iteratorINS5_ISF_NS9_ISF_EEEEEEEENS_4pairINS_18__unwrap_ref_decayIT_E4typeENSM_IT0_E4typeEEEOSN_OSQ_, symObjAddr: 0x3D6D0, symBinAddr: 0x10003FBC0, symSize: 0x30 }
  - { offsetInCU: 0x4D21F, offset: 0x4D21F, size: 0x8, addend: 0x0, symName: __ZNSt3__113__rewrap_iterB7v160006INS_11__wrap_iterIPN8nlohmann16json_abi_v3_11_310basic_jsonINS_3mapENS_6vectorENS_12basic_stringIcNS_11char_traitsIcEENS_9allocatorIcEEEEbxydSA_NS3_14adl_serializerENS6_IhNSA_IhEEEEvEEEESH_NS_18__unwrap_iter_implISI_Lb1EEEEET_SL_T0_, symObjAddr: 0x3D7F0, symBinAddr: 0x10003FCE0, symSize: 0x50 }
  - { offsetInCU: 0x4D274, offset: 0x4D274, size: 0x8, addend: 0x0, symName: __ZNSt3__1neB7v160006ERKNS_15__tree_iteratorINS_12__value_typeINS_12basic_stringIcNS_11char_traitsIcEENS_9allocatorIcEEEEN8nlohmann16json_abi_v3_11_310basic_jsonINS_3mapENS_6vectorES7_bxydS5_NS9_14adl_serializerENSC_IhNS5_IhEEEEvEEEEPNS_11__tree_nodeISH_PvEElEESO_, symObjAddr: 0x3DB80, symBinAddr: 0x100040070, symSize: 0x30 }
  - { offsetInCU: 0x4D2B1, offset: 0x4D2B1, size: 0x8, addend: 0x0, symName: __ZNSt3__1eqB7v160006ERKNS_15__tree_iteratorINS_12__value_typeINS_12basic_stringIcNS_11char_traitsIcEENS_9allocatorIcEEEEN8nlohmann16json_abi_v3_11_310basic_jsonINS_3mapENS_6vectorES7_bxydS5_NS9_14adl_serializerENSC_IhNS5_IhEEEEvEEEEPNS_11__tree_nodeISH_PvEElEESO_, symObjAddr: 0x3DBB0, symBinAddr: 0x1000400A0, symSize: 0x30 }
  - { offsetInCU: 0x4D321, offset: 0x4D321, size: 0x8, addend: 0x0, symName: __ZNSt3__118__debug_db_erase_cB7v160006INS_6vectorIN8nlohmann16json_abi_v3_11_310basic_jsonINS_3mapES1_NS_12basic_stringIcNS_11char_traitsIcEENS_9allocatorIcEEEEbxydS9_NS3_14adl_serializerENS1_IhNS9_IhEEEEvEENS9_ISF_EEEEEEvPT_, symObjAddr: 0x3E5C0, symBinAddr: 0x100040AB0, symSize: 0x10 }
  - { offsetInCU: 0x4D352, offset: 0x4D352, size: 0x8, addend: 0x0, symName: __ZNSt3__118__debug_db_erase_cB7v160006INS_6vectorIhNS_9allocatorIhEEEEEEvPT_, symObjAddr: 0x3EA90, symBinAddr: 0x100040F80, symSize: 0x10 }
  - { offsetInCU: 0x4D383, offset: 0x4D383, size: 0x8, addend: 0x0, symName: __ZNSt3__112__to_addressB7v160006IhEEPT_S2_, symObjAddr: 0x3EBA0, symBinAddr: 0x100041090, symSize: 0x10 }
  - { offsetInCU: 0x4D3B8, offset: 0x4D3B8, size: 0x8, addend: 0x0, symName: __ZNSt3__118__debug_db_erase_cB7v160006INS_12__hash_tableINS_17__hash_value_typeIcNS_10unique_ptrIN6spdlog21custom_flag_formatterENS_14default_deleteIS5_EEEEEENS_22__unordered_map_hasherIcS9_NS_4hashIcEENS_8equal_toIcEELb1EEENS_21__unordered_map_equalIcS9_SE_SC_Lb1EEENS_9allocatorIS9_EEEEEEvPT_, symObjAddr: 0x3EEB0, symBinAddr: 0x1000413A0, symSize: 0x10 }
  - { offsetInCU: 0x4D3E9, offset: 0x4D3E9, size: 0x8, addend: 0x0, symName: __ZNSt3__1neB7v160006ERKNS_21__hash_const_iteratorIPNS_11__hash_nodeINS_17__hash_value_typeIcNS_10unique_ptrIN6spdlog21custom_flag_formatterENS_14default_deleteIS5_EEEEEEPvEEEESF_, symObjAddr: 0x3F820, symBinAddr: 0x100041D10, symSize: 0x30 }
  - { offsetInCU: 0x4D426, offset: 0x4D426, size: 0x8, addend: 0x0, symName: __ZNSt3__1eqB7v160006ERKNS_21__hash_const_iteratorIPNS_11__hash_nodeINS_17__hash_value_typeIcNS_10unique_ptrIN6spdlog21custom_flag_formatterENS_14default_deleteIS5_EEEEEEPvEEEESF_, symObjAddr: 0x3F850, symBinAddr: 0x100041D40, symSize: 0x30 }
  - { offsetInCU: 0x4D496, offset: 0x4D496, size: 0x8, addend: 0x0, symName: __ZNSt3__116forward_as_tupleB7v160006IJRKcEEENS_5tupleIJDpOT_EEES6_, symObjAddr: 0x3FE90, symBinAddr: 0x100042380, symSize: 0x30 }
  - { offsetInCU: 0x4D4ED, offset: 0x4D4ED, size: 0x8, addend: 0x0, symName: __ZNSt3__13getB7v160006ILm0EJRKcEEERNS_13tuple_elementIXT_ENS_5tupleIJDpT0_EEEE4typeERS7_, symObjAddr: 0x404D0, symBinAddr: 0x1000429C0, symSize: 0x20 }
  - { offsetInCU: 0x4D530, offset: 0x4D530, size: 0x8, addend: 0x0, symName: __ZNSt3__125__debug_db_invalidate_allB7v160006INS_12__hash_tableINS_17__hash_value_typeIcNS_10unique_ptrIN6spdlog21custom_flag_formatterENS_14default_deleteIS5_EEEEEENS_22__unordered_map_hasherIcS9_NS_4hashIcEENS_8equal_toIcEELb1EEENS_21__unordered_map_equalIcS9_SE_SC_Lb1EEENS_9allocatorIS9_EEEEEEvPT_, symObjAddr: 0x40AD0, symBinAddr: 0x100042FC0, symSize: 0x10 }
  - { offsetInCU: 0x4D576, offset: 0x4D576, size: 0x8, addend: 0x0, symName: __ZNSt3__115allocate_sharedB7v160006IN6spdlog6loggerENS_9allocatorIS2_EEJRS2_EvEENS_10shared_ptrIT_EERKT0_DpOT1_, symObjAddr: 0x41280, symBinAddr: 0x100043770, symSize: 0xB0 }
  - { offsetInCU: 0x4D5F0, offset: 0x4D5F0, size: 0x8, addend: 0x0, symName: __ZNSt3__130__uninitialized_allocator_copyB7v160006INS_9allocatorINS_10shared_ptrIN6spdlog5sinks4sinkEEEEEPS6_S8_S8_EET2_RT_T0_T1_S9_, symObjAddr: 0x41840, symBinAddr: 0x100043D30, symSize: 0x100 }
  - { offsetInCU: 0x4D68F, offset: 0x4D68F, size: 0x8, addend: 0x0, symName: __ZNSt3__118__cxx_atomic_storeB7v160006IbEEvPNS_22__cxx_atomic_base_implIT_EES2_NS_12memory_orderE, symObjAddr: 0x41D50, symBinAddr: 0x100044240, symSize: 0x70 }
  - { offsetInCU: 0x4D6E0, offset: 0x4D6E0, size: 0x8, addend: 0x0, symName: __ZNSt3__18distanceB7v160006IPN6spdlog7details14log_msg_bufferEEENS_15iterator_traitsIT_E15difference_typeES6_S6_, symObjAddr: 0x41FC0, symBinAddr: 0x1000444B0, symSize: 0x30 }
  - { offsetInCU: 0x4D723, offset: 0x4D723, size: 0x8, addend: 0x0, symName: __ZNSt3__14copyB7v160006IPN6spdlog7details14log_msg_bufferES4_EET0_T_S6_S5_, symObjAddr: 0x42040, symBinAddr: 0x100044530, symSize: 0x40 }
  - { offsetInCU: 0x4D77D, offset: 0x4D77D, size: 0x8, addend: 0x0, symName: __ZNSt3__125__debug_db_invalidate_allB7v160006INS_6vectorIN6spdlog7details14log_msg_bufferENS_9allocatorIS4_EEEEEEvPT_, symObjAddr: 0x42330, symBinAddr: 0x100044820, symSize: 0x10 }
  - { offsetInCU: 0x4D7AE, offset: 0x4D7AE, size: 0x8, addend: 0x0, symName: __ZNSt3__110__distanceB7v160006IPN6spdlog7details14log_msg_bufferEEENS_15iterator_traitsIT_E15difference_typeES6_S6_NS_26random_access_iterator_tagE, symObjAddr: 0x42340, symBinAddr: 0x100044830, symSize: 0x30 }
  - { offsetInCU: 0x4D7FC, offset: 0x4D7FC, size: 0x8, addend: 0x0, symName: __ZNSt3__121__convert_to_integralB7v160006Em, symObjAddr: 0x42370, symBinAddr: 0x100044860, symSize: 0x10 }
  - { offsetInCU: 0x4D828, offset: 0x4D828, size: 0x8, addend: 0x0, symName: __ZNSt3__19__advanceB7v160006IPN6spdlog7details14log_msg_bufferEEEvRT_NS_15iterator_traitsIS5_E15difference_typeENS_26random_access_iterator_tagE, symObjAddr: 0x42380, symBinAddr: 0x100044870, symSize: 0x30 }
  - { offsetInCU: 0x4D872, offset: 0x4D872, size: 0x8, addend: 0x0, symName: __ZNSt3__16__copyB7v160006INS_17_ClassicAlgPolicyEPN6spdlog7details14log_msg_bufferES5_S5_EENS_4pairIT0_T2_EES7_T1_S8_, symObjAddr: 0x423B0, symBinAddr: 0x1000448A0, symSize: 0x40 }
  - { offsetInCU: 0x4D8DE, offset: 0x4D8DE, size: 0x8, addend: 0x0, symName: __ZNSt3__123__dispatch_copy_or_moveB7v160006INS_17_ClassicAlgPolicyENS_11__copy_loopIS1_EENS_14__copy_trivialEPN6spdlog7details14log_msg_bufferES8_S8_EENS_4pairIT2_T4_EESA_T3_SB_, symObjAddr: 0x423F0, symBinAddr: 0x1000448E0, symSize: 0x40 }
  - { offsetInCU: 0x4D95C, offset: 0x4D95C, size: 0x8, addend: 0x0, symName: __ZNSt3__121__unwrap_and_dispatchB7v160006INS_10__overloadINS_11__copy_loopINS_17_ClassicAlgPolicyEEENS_14__copy_trivialEEEPN6spdlog7details14log_msg_bufferESA_SA_Li0EEENS_4pairIT0_T2_EESC_T1_SD_, symObjAddr: 0x42430, symBinAddr: 0x100044920, symSize: 0xB0 }
  - { offsetInCU: 0x4D9EB, offset: 0x4D9EB, size: 0x8, addend: 0x0, symName: __ZNSt3__114__unwrap_rangeB7v160006IPN6spdlog7details14log_msg_bufferES4_EENS_4pairIT0_S6_EET_S8_, symObjAddr: 0x424E0, symBinAddr: 0x1000449D0, symSize: 0x50 }
  - { offsetInCU: 0x4DB5D, offset: 0x4DB5D, size: 0x8, addend: 0x0, symName: __ZNSt3__113__unwrap_iterB7v160006IPN6spdlog7details14log_msg_bufferENS_18__unwrap_iter_implIS4_Lb1EEELi0EEEDTclsrT0_8__unwrapclsr3stdE7declvalIT_EEEES8_, symObjAddr: 0x425B0, symBinAddr: 0x100044AA0, symSize: 0x20 }
  - { offsetInCU: 0x4DBA1, offset: 0x4DBA1, size: 0x8, addend: 0x0, symName: __ZNSt3__19make_pairB7v160006IPN6spdlog7details14log_msg_bufferES4_EENS_4pairINS_18__unwrap_ref_decayIT_E4typeENS6_IT0_E4typeEEEOS7_OSA_, symObjAddr: 0x425D0, symBinAddr: 0x100044AC0, symSize: 0x30 }
  - { offsetInCU: 0x4DBF0, offset: 0x4DBF0, size: 0x8, addend: 0x0, symName: __ZNSt3__114__rewrap_rangeB7v160006IPN6spdlog7details14log_msg_bufferES4_EET_S5_T0_, symObjAddr: 0x42600, symBinAddr: 0x100044AF0, symSize: 0x30 }
  - { offsetInCU: 0x4DC3C, offset: 0x4DC3C, size: 0x8, addend: 0x0, symName: __ZNSt3__113__rewrap_iterB7v160006IPN6spdlog7details14log_msg_bufferES4_NS_18__unwrap_iter_implIS4_Lb1EEEEET_S7_T0_, symObjAddr: 0x42630, symBinAddr: 0x100044B20, symSize: 0x40 }
  - { offsetInCU: 0x4DCE4, offset: 0x4DCE4, size: 0x8, addend: 0x0, symName: __ZNSt3__130__uninitialized_allocator_copyB7v160006INS_9allocatorIN6spdlog7details14log_msg_bufferEEEPS4_S6_S6_EET2_RT_T0_T1_S7_, symObjAddr: 0x428D0, symBinAddr: 0x100044DC0, symSize: 0x100 }
  - { offsetInCU: 0x4DD82, offset: 0x4DD82, size: 0x8, addend: 0x0, symName: __ZNSt3__122__make_exception_guardB7v160006INS_29_AllocatorDestroyRangeReverseINS_9allocatorIN6spdlog7details14log_msg_bufferEEEPS5_EEEENS_28__exception_guard_exceptionsIT_EESA_, symObjAddr: 0x42A30, symBinAddr: 0x100044F20, symSize: 0x60 }
  - { offsetInCU: 0x4DDB8, offset: 0x4DDB8, size: 0x8, addend: 0x0, symName: __ZNSt3__119__allocator_destroyB7v160006INS_9allocatorIN6spdlog7details14log_msg_bufferEEENS_16reverse_iteratorIPS4_EES8_EEvRT_T0_T1_, symObjAddr: 0x42E40, symBinAddr: 0x100045330, symSize: 0x70 }
  - { offsetInCU: 0x4DE1B, offset: 0x4DE1B, size: 0x8, addend: 0x0, symName: __ZNSt3__1neB7v160006IPN6spdlog7details14log_msg_bufferES4_EEbRKNS_16reverse_iteratorIT_EERKNS5_IT0_EE, symObjAddr: 0x42EE0, symBinAddr: 0x1000453D0, symSize: 0x40 }
  - { offsetInCU: 0x4DE67, offset: 0x4DE67, size: 0x8, addend: 0x0, symName: __ZNSt3__112__to_addressB7v160006INS_16reverse_iteratorIPN6spdlog7details14log_msg_bufferEEEvEENS_5decayIDTclsr19__to_address_helperIT_EE6__callclsr3stdE7declvalIRKS8_EEEEE4typeESA_, symObjAddr: 0x42F20, symBinAddr: 0x100045410, symSize: 0x20 }
  - { offsetInCU: 0x4DEC7, offset: 0x4DEC7, size: 0x8, addend: 0x0, symName: __ZNSt3__119__allocate_at_leastB7v160006INS_9allocatorIN6spdlog7details14log_msg_bufferEEEEENS_19__allocation_resultINS_16allocator_traitsIT_E7pointerEEERS8_m, symObjAddr: 0x43240, symBinAddr: 0x100045730, symSize: 0x40 }
  - { offsetInCU: 0x4DF0A, offset: 0x4DF0A, size: 0x8, addend: 0x0, symName: __ZNSt3__116__pad_and_outputB7v160006IcNS_11char_traitsIcEEEENS_19ostreambuf_iteratorIT_T0_EES6_PKS4_S8_S8_RNS_8ios_baseES4_, symObjAddr: 0x437F0, symBinAddr: 0x100045CE0, symSize: 0x220 }
  - { offsetInCU: 0x4DFDB, offset: 0x4DFDB, size: 0x8, addend: 0x0, symName: __ZNSt3__19use_facetB7v160006INS_5ctypeIcEEEERKT_RKNS_6localeE, symObjAddr: 0x43D20, symBinAddr: 0x100046210, symSize: 0x30 }
  - { offsetInCU: 0x4E8AA, offset: 0x4E8AA, size: 0x8, addend: 0x0, symName: __ZNSt3__1neB7v160006INS_3mapINS_12basic_stringIcNS_11char_traitsIcEENS_9allocatorIcEEEEN8nlohmann16json_abi_v3_11_310basic_jsonIS1_NS_6vectorES7_bxydS5_NS9_14adl_serializerENSB_IhNS5_IhEEEEvEENS_4lessIvEENS5_INS_4pairIKS7_SF_EEEEEEZNSF_6createISM_JEEEPT_DpOT0_EUlPSM_E_EEbRKNS_10unique_ptrISO_T0_EEDn, symObjAddr: 0x44F30, symBinAddr: 0x100047420, symSize: 0x30 }
  - { offsetInCU: 0x4ECF5, offset: 0x4ECF5, size: 0x8, addend: 0x0, symName: __ZNSt3__1neB7v160006INS_6vectorIN8nlohmann16json_abi_v3_11_310basic_jsonINS_3mapES1_NS_12basic_stringIcNS_11char_traitsIcEENS_9allocatorIcEEEEbxydS9_NS3_14adl_serializerENS1_IhNS9_IhEEEEvEENS9_ISF_EEEEZNSF_6createISH_JEEEPT_DpOT0_EUlPSH_E_EEbRKNS_10unique_ptrISJ_T0_EEDn, symObjAddr: 0x455F0, symBinAddr: 0x100047AE0, symSize: 0x30 }
  - { offsetInCU: 0x4F08C, offset: 0x4F08C, size: 0x8, addend: 0x0, symName: __ZNSt3__1neB7v160006INS_12basic_stringIcNS_11char_traitsIcEENS_9allocatorIcEEEEZN8nlohmann16json_abi_v3_11_310basic_jsonINS_3mapENS_6vectorES6_bxydS4_NS8_14adl_serializerENSB_IhNS4_IhEEEEvE6createIS6_JRA1_KcEEEPT_DpOT0_EUlPS6_E_EEbRKNS_10unique_ptrISK_T0_EEDn, symObjAddr: 0x45A60, symBinAddr: 0x100047F50, symSize: 0x30 }
  - { offsetInCU: 0x4F4D7, offset: 0x4F4D7, size: 0x8, addend: 0x0, symName: __ZNSt3__1neB7v160006IN8nlohmann16json_abi_v3_11_327byte_container_with_subtypeINS_6vectorIhNS_9allocatorIhEEEEEEZNS2_10basic_jsonINS_3mapES4_NS_12basic_stringIcNS_11char_traitsIcEENS5_IcEEEEbxydS5_NS2_14adl_serializerES7_vE6createIS8_JEEEPT_DpOT0_EUlPS8_E_EEbRKNS_10unique_ptrISJ_T0_EEDn, symObjAddr: 0x45EE0, symBinAddr: 0x1000483D0, symSize: 0x30 }
  - { offsetInCU: 0x4F523, offset: 0x4F523, size: 0x8, addend: 0x0, symName: __ZNSt3__119__debug_db_insert_cB7v160006INS_6vectorIhNS_9allocatorIhEEEEEEvPT_, symObjAddr: 0x461F0, symBinAddr: 0x1000486E0, symSize: 0x10 }
  - { offsetInCU: 0x4F554, offset: 0x4F554, size: 0x8, addend: 0x0, symName: __ZNSt3__119__debug_db_insert_cB7v160006INS_6vectorIcNS_9allocatorIcEEEEEEvPT_, symObjAddr: 0x47270, symBinAddr: 0x100049760, symSize: 0x10 }
  - { offsetInCU: 0x4FB0B, offset: 0x4FB0B, size: 0x8, addend: 0x0, symName: __ZNSt3__112__to_addressB7v160006IcEEPT_S2_, symObjAddr: 0x49A30, symBinAddr: 0x10004BF20, symSize: 0x10 }
  - { offsetInCU: 0x4FB40, offset: 0x4FB40, size: 0x8, addend: 0x0, symName: __ZNSt3__119__allocate_at_leastB7v160006INS_9allocatorIcEEEENS_19__allocation_resultINS_16allocator_traitsIT_E7pointerEEERS5_m, symObjAddr: 0x49F90, symBinAddr: 0x10004C480, symSize: 0x40 }
  - { offsetInCU: 0x4FB83, offset: 0x4FB83, size: 0x8, addend: 0x0, symName: __ZNSt3__142__uninitialized_allocator_move_if_noexceptB7v160006INS_9allocatorIcEENS_16reverse_iteratorIPcEES5_cvEET1_RT_T0_S9_S6_, symObjAddr: 0x4A170, symBinAddr: 0x10004C660, symSize: 0x70 }
  - { offsetInCU: 0x4FC00, offset: 0x4FC00, size: 0x8, addend: 0x0, symName: __ZNSt3__14swapB7v160006IPcEENS_9enable_ifIXaasr21is_move_constructibleIT_EE5valuesr18is_move_assignableIS3_EE5valueEvE4typeERS3_S6_, symObjAddr: 0x4A230, symBinAddr: 0x10004C720, symSize: 0x40 }
  - { offsetInCU: 0x4FC51, offset: 0x4FC51, size: 0x8, addend: 0x0, symName: __ZNSt3__125__debug_db_invalidate_allB7v160006INS_6vectorIcNS_9allocatorIcEEEEEEvPT_, symObjAddr: 0x4A310, symBinAddr: 0x10004C800, symSize: 0x10 }
  - { offsetInCU: 0x4FC82, offset: 0x4FC82, size: 0x8, addend: 0x0, symName: __ZNSt3__14moveB7v160006INS_16reverse_iteratorIPcEES3_EET0_T_S5_S4_, symObjAddr: 0x4A360, symBinAddr: 0x10004C850, symSize: 0x80 }
  - { offsetInCU: 0x4FCDC, offset: 0x4FCDC, size: 0x8, addend: 0x0, symName: __ZNSt3__16__moveB7v160006INS_17_ClassicAlgPolicyENS_16reverse_iteratorIPcEES4_S4_EENS_4pairIT0_T2_EES6_T1_S7_, symObjAddr: 0x4A3E0, symBinAddr: 0x10004C8D0, symSize: 0x90 }
  - { offsetInCU: 0x4FD48, offset: 0x4FD48, size: 0x8, addend: 0x0, symName: __ZNSt3__123__dispatch_copy_or_moveB7v160006INS_17_ClassicAlgPolicyENS_11__move_loopIS1_EENS_14__move_trivialENS_16reverse_iteratorIPcEES7_S7_EENS_4pairIT2_T4_EES9_T3_SA_, symObjAddr: 0x4A470, symBinAddr: 0x10004C960, symSize: 0x90 }
  - { offsetInCU: 0x4FDC6, offset: 0x4FDC6, size: 0x8, addend: 0x0, symName: __ZNSt3__121__unwrap_and_dispatchB7v160006INS_10__overloadINS_11__move_loopINS_17_ClassicAlgPolicyEEENS_14__move_trivialEEENS_16reverse_iteratorIPcEES9_S9_Li0EEENS_4pairIT0_T2_EESB_T1_SC_, symObjAddr: 0x4A500, symBinAddr: 0x10004C9F0, symSize: 0x210 }
  - { offsetInCU: 0x4FE55, offset: 0x4FE55, size: 0x8, addend: 0x0, symName: __ZNSt3__114__unwrap_rangeB7v160006INS_16reverse_iteratorIPcEES3_EENS_4pairIT0_S5_EET_S7_, symObjAddr: 0x4A710, symBinAddr: 0x10004CC00, symSize: 0x90 }
  - { offsetInCU: 0x4FF75, offset: 0x4FF75, size: 0x8, addend: 0x0, symName: __ZNSt3__113__unwrap_iterB7v160006INS_16reverse_iteratorIPcEENS_18__unwrap_iter_implIS3_Lb0EEELi0EEEDTclsrT0_8__unwrapclsr3stdE7declvalIT_EEEES7_, symObjAddr: 0x4A840, symBinAddr: 0x10004CD30, symSize: 0x40 }
  - { offsetInCU: 0x4FFB9, offset: 0x4FFB9, size: 0x8, addend: 0x0, symName: __ZNSt3__19make_pairB7v160006INS_16reverse_iteratorIPcEES3_EENS_4pairINS_18__unwrap_ref_decayIT_E4typeENS5_IT0_E4typeEEEOS6_OS9_, symObjAddr: 0x4A880, symBinAddr: 0x10004CD70, symSize: 0x30 }
  - { offsetInCU: 0x50008, offset: 0x50008, size: 0x8, addend: 0x0, symName: __ZNSt3__114__rewrap_rangeB7v160006INS_16reverse_iteratorIPcEES3_EET_S4_T0_, symObjAddr: 0x4A8B0, symBinAddr: 0x10004CDA0, symSize: 0x60 }
  - { offsetInCU: 0x50054, offset: 0x50054, size: 0x8, addend: 0x0, symName: __ZNSt3__113__rewrap_iterB7v160006INS_16reverse_iteratorIPcEES3_NS_18__unwrap_iter_implIS3_Lb0EEEEET_S6_T0_, symObjAddr: 0x4A910, symBinAddr: 0x10004CE00, symSize: 0x70 }
  - { offsetInCU: 0x500A9, offset: 0x500A9, size: 0x8, addend: 0x0, symName: __ZNSt3__1neB7v160006IPcS1_EEbRKNS_16reverse_iteratorIT_EERKNS2_IT0_EE, symObjAddr: 0x4A980, symBinAddr: 0x10004CE70, symSize: 0x40 }
  - { offsetInCU: 0x50161, offset: 0x50161, size: 0x8, addend: 0x0, symName: __ZNSt3__125__debug_db_invalidate_allB7v160006INS_12basic_stringIcNS_11char_traitsIcEENS_9allocatorIcEEEEEEvPT_, symObjAddr: 0x4B420, symBinAddr: 0x10004D910, symSize: 0x10 }
  - { offsetInCU: 0x50192, offset: 0x50192, size: 0x8, addend: 0x0, symName: __ZNSt3__118__debug_db_erase_cB7v160006INS_6vectorIcNS_9allocatorIcEEEEEEvPT_, symObjAddr: 0x4B6F0, symBinAddr: 0x10004DBE0, symSize: 0x10 }
  - { offsetInCU: 0x501C3, offset: 0x501C3, size: 0x8, addend: 0x0, symName: __ZNSt3__119__debug_db_insert_cB7v160006INS_6vectorIPN8nlohmann16json_abi_v3_11_310basic_jsonINS_3mapES1_NS_12basic_stringIcNS_11char_traitsIcEENS_9allocatorIcEEEEbxydS9_NS3_14adl_serializerENS1_IhNS9_IhEEEEvEENS9_ISG_EEEEEEvPT_, symObjAddr: 0x4FD10, symBinAddr: 0x100052200, symSize: 0x10 }
  - { offsetInCU: 0x501F4, offset: 0x501F4, size: 0x8, addend: 0x0, symName: __ZNSt3__125__debug_db_invalidate_allB7v160006INS_6vectorIbNS_9allocatorIbEEEEEEvPT_, symObjAddr: 0x50590, symBinAddr: 0x100052A80, symSize: 0x10 }
  - { offsetInCU: 0x50225, offset: 0x50225, size: 0x8, addend: 0x0, symName: __ZNSt3__119__allocate_at_leastB7v160006INS_9allocatorImEEEENS_19__allocation_resultINS_16allocator_traitsIT_E7pointerEEERS5_m, symObjAddr: 0x507F0, symBinAddr: 0x100052CE0, symSize: 0x40 }
  - { offsetInCU: 0x50268, offset: 0x50268, size: 0x8, addend: 0x0, symName: __ZNSt3__18distanceB7v160006INS_14__bit_iteratorINS_6vectorIbNS_9allocatorIbEEEELb0ELm0EEEEENS_15iterator_traitsIT_E15difference_typeES8_S8_, symObjAddr: 0x50930, symBinAddr: 0x100052E20, symSize: 0x50 }
  - { offsetInCU: 0x502AD, offset: 0x502AD, size: 0x8, addend: 0x0, symName: __ZNSt3__14copyB7v160006INS_6vectorIbNS_9allocatorIbEEEELb0EEENS_14__bit_iteratorIT_Lb0EXLi0EEEENS5_IS6_XT0_EXLi0EEEES8_S7_, symObjAddr: 0x509B0, symBinAddr: 0x100052EA0, symSize: 0x100 }
  - { offsetInCU: 0x5030F, offset: 0x5030F, size: 0x8, addend: 0x0, symName: __ZNSt3__110__distanceB7v160006INS_14__bit_iteratorINS_6vectorIbNS_9allocatorIbEEEELb0ELm0EEEEENS_15iterator_traitsIT_E15difference_typeES8_S8_NS_26random_access_iterator_tagE, symObjAddr: 0x50B00, symBinAddr: 0x100052FF0, symSize: 0x30 }
  - { offsetInCU: 0x5035F, offset: 0x5035F, size: 0x8, addend: 0x0, symName: __ZNSt3__1miB7v160006ERKNS_14__bit_iteratorINS_6vectorIbNS_9allocatorIbEEEELb0ELm0EEES7_, symObjAddr: 0x50B30, symBinAddr: 0x100053020, symSize: 0x40 }
  - { offsetInCU: 0x5039C, offset: 0x5039C, size: 0x8, addend: 0x0, symName: __ZNSt3__13minB7v160006IlEERKT_S3_S3_, symObjAddr: 0x51320, symBinAddr: 0x100053810, symSize: 0x30 }
  - { offsetInCU: 0x503DF, offset: 0x503DF, size: 0x8, addend: 0x0, symName: __ZNSt3__112__to_addressB7v160006ImEEPT_S2_, symObjAddr: 0x51390, symBinAddr: 0x100053880, symSize: 0x10 }
  - { offsetInCU: 0x50414, offset: 0x50414, size: 0x8, addend: 0x0, symName: __ZNSt3__13minB7v160006IlNS_6__lessIllEEEERKT_S5_S5_T0_, symObjAddr: 0x513A0, symBinAddr: 0x100053890, symSize: 0x50 }
  - { offsetInCU: 0x504A9, offset: 0x504A9, size: 0x8, addend: 0x0, symName: __ZNSt3__14copyB7v160006IPmS1_EET0_T_S3_S2_, symObjAddr: 0x51420, symBinAddr: 0x100053910, symSize: 0x40 }
  - { offsetInCU: 0x50503, offset: 0x50503, size: 0x8, addend: 0x0, symName: __ZNSt3__16__copyB7v160006INS_17_ClassicAlgPolicyEPmS2_S2_EENS_4pairIT0_T2_EES4_T1_S5_, symObjAddr: 0x51460, symBinAddr: 0x100053950, symSize: 0x40 }
  - { offsetInCU: 0x5056F, offset: 0x5056F, size: 0x8, addend: 0x0, symName: __ZNSt3__123__dispatch_copy_or_moveB7v160006INS_17_ClassicAlgPolicyENS_11__copy_loopIS1_EENS_14__copy_trivialEPmS5_S5_EENS_4pairIT2_T4_EES7_T3_S8_, symObjAddr: 0x514A0, symBinAddr: 0x100053990, symSize: 0x40 }
  - { offsetInCU: 0x505ED, offset: 0x505ED, size: 0x8, addend: 0x0, symName: __ZNSt3__121__unwrap_and_dispatchB7v160006INS_10__overloadINS_11__copy_loopINS_17_ClassicAlgPolicyEEENS_14__copy_trivialEEEPmS7_S7_Li0EEENS_4pairIT0_T2_EES9_T1_SA_, symObjAddr: 0x514E0, symBinAddr: 0x1000539D0, symSize: 0xB0 }
  - { offsetInCU: 0x5067C, offset: 0x5067C, size: 0x8, addend: 0x0, symName: __ZNSt3__114__unwrap_rangeB7v160006IPmS1_EENS_4pairIT0_S3_EET_S5_, symObjAddr: 0x51590, symBinAddr: 0x100053A80, symSize: 0x50 }
  - { offsetInCU: 0x50811, offset: 0x50811, size: 0x8, addend: 0x0, symName: __ZNSt3__113__unwrap_iterB7v160006IPmNS_18__unwrap_iter_implIS1_Lb1EEELi0EEEDTclsrT0_8__unwrapclsr3stdE7declvalIT_EEEES5_, symObjAddr: 0x51620, symBinAddr: 0x100053B10, symSize: 0x20 }
  - { offsetInCU: 0x50855, offset: 0x50855, size: 0x8, addend: 0x0, symName: __ZNSt3__19make_pairB7v160006IPmS1_EENS_4pairINS_18__unwrap_ref_decayIT_E4typeENS3_IT0_E4typeEEEOS4_OS7_, symObjAddr: 0x51640, symBinAddr: 0x100053B30, symSize: 0x30 }
  - { offsetInCU: 0x508A4, offset: 0x508A4, size: 0x8, addend: 0x0, symName: __ZNSt3__114__rewrap_rangeB7v160006IPmS1_EET_S2_T0_, symObjAddr: 0x51670, symBinAddr: 0x100053B60, symSize: 0x30 }
  - { offsetInCU: 0x508F0, offset: 0x508F0, size: 0x8, addend: 0x0, symName: __ZNSt3__113__rewrap_iterB7v160006IPmS1_NS_18__unwrap_iter_implIS1_Lb1EEEEET_S4_T0_, symObjAddr: 0x516A0, symBinAddr: 0x100053B90, symSize: 0x40 }
  - { offsetInCU: 0x50945, offset: 0x50945, size: 0x8, addend: 0x0, symName: __ZNSt3__119__copy_trivial_implB7v160006ImmEENS_4pairIPT_PT0_EES3_S3_S5_, symObjAddr: 0x516E0, symBinAddr: 0x100053BD0, symSize: 0x70 }
  - { offsetInCU: 0x509AD, offset: 0x509AD, size: 0x8, addend: 0x0, symName: __ZNSt3__19make_pairB7v160006IRPmS1_EENS_4pairINS_18__unwrap_ref_decayIT_E4typeENS4_IT0_E4typeEEEOS5_OS8_, symObjAddr: 0x51750, symBinAddr: 0x100053C40, symSize: 0x30 }
  - { offsetInCU: 0x50A4F, offset: 0x50A4F, size: 0x8, addend: 0x0, symName: __ZNSt3__14swapB7v160006IPmEENS_9enable_ifIXaasr21is_move_constructibleIT_EE5valuesr18is_move_assignableIS3_EE5valueEvE4typeERS3_S6_, symObjAddr: 0x51910, symBinAddr: 0x100053E00, symSize: 0x40 }
  - { offsetInCU: 0x50AA0, offset: 0x50AA0, size: 0x8, addend: 0x0, symName: __ZNSt3__116__swap_allocatorB7v160006INS_9allocatorImEEEEvRT_S4_NS_17integral_constantIbLb0EEE, symObjAddr: 0x51950, symBinAddr: 0x100053E40, symSize: 0x10 }
  - { offsetInCU: 0x50AE4, offset: 0x50AE4, size: 0x8, addend: 0x0, symName: __ZNSt3__125__debug_db_invalidate_allB7v160006INS_6vectorIbNS_9allocatorIbEEE16__destroy_vectorEEEvPT_, symObjAddr: 0x51B60, symBinAddr: 0x100054050, symSize: 0x10 }
  - { offsetInCU: 0x50B15, offset: 0x50B15, size: 0x8, addend: 0x0, symName: __ZNSt3__118__debug_db_erase_cB7v160006INS_6vectorIPN8nlohmann16json_abi_v3_11_310basic_jsonINS_3mapES1_NS_12basic_stringIcNS_11char_traitsIcEENS_9allocatorIcEEEEbxydS9_NS3_14adl_serializerENS1_IhNS9_IhEEEEvEENS9_ISG_EEEEEEvPT_, symObjAddr: 0x51D80, symBinAddr: 0x100054270, symSize: 0x10 }
  - { offsetInCU: 0x50B46, offset: 0x50B46, size: 0x8, addend: 0x0, symName: __ZNSt3__112__to_addressB7v160006IPN8nlohmann16json_abi_v3_11_310basic_jsonINS_3mapENS_6vectorENS_12basic_stringIcNS_11char_traitsIcEENS_9allocatorIcEEEEbxydS9_NS2_14adl_serializerENS5_IhNS9_IhEEEEvEEEEPT_SI_, symObjAddr: 0x51E90, symBinAddr: 0x100054380, symSize: 0x10 }
  - { offsetInCU: 0x50CAD, offset: 0x50CAD, size: 0x8, addend: 0x0, symName: __ZNSt3__119__allocate_at_leastB7v160006INS_9allocatorIPN8nlohmann16json_abi_v3_11_310basic_jsonINS_3mapENS_6vectorENS_12basic_stringIcNS_11char_traitsIcEENS1_IcEEEEbxydS1_NS3_14adl_serializerENS6_IhNS1_IhEEEEvEEEEEENS_19__allocation_resultINS_16allocator_traitsIT_E7pointerEEERSK_m, symObjAddr: 0x54250, symBinAddr: 0x100056740, symSize: 0x40 }
  - { offsetInCU: 0x50CF0, offset: 0x50CF0, size: 0x8, addend: 0x0, symName: __ZNSt3__142__uninitialized_allocator_move_if_noexceptB7v160006INS_9allocatorIPN8nlohmann16json_abi_v3_11_310basic_jsonINS_3mapENS_6vectorENS_12basic_stringIcNS_11char_traitsIcEENS1_IcEEEEbxydS1_NS3_14adl_serializerENS6_IhNS1_IhEEEEvEEEENS_16reverse_iteratorIPSG_EESK_SG_vEET1_RT_T0_SO_SL_, symObjAddr: 0x543E0, symBinAddr: 0x1000568D0, symSize: 0x70 }
  - { offsetInCU: 0x50D6D, offset: 0x50D6D, size: 0x8, addend: 0x0, symName: __ZNSt3__14swapB7v160006IPPN8nlohmann16json_abi_v3_11_310basic_jsonINS_3mapENS_6vectorENS_12basic_stringIcNS_11char_traitsIcEENS_9allocatorIcEEEEbxydS9_NS2_14adl_serializerENS5_IhNS9_IhEEEEvEEEENS_9enable_ifIXaasr21is_move_constructibleIT_EE5valuesr18is_move_assignableISJ_EE5valueEvE4typeERSJ_SM_, symObjAddr: 0x544A0, symBinAddr: 0x100056990, symSize: 0x40 }
  - { offsetInCU: 0x50DBE, offset: 0x50DBE, size: 0x8, addend: 0x0, symName: __ZNSt3__125__debug_db_invalidate_allB7v160006INS_6vectorIPN8nlohmann16json_abi_v3_11_310basic_jsonINS_3mapES1_NS_12basic_stringIcNS_11char_traitsIcEENS_9allocatorIcEEEEbxydS9_NS3_14adl_serializerENS1_IhNS9_IhEEEEvEENS9_ISG_EEEEEEvPT_, symObjAddr: 0x54590, symBinAddr: 0x100056A80, symSize: 0x10 }
  - { offsetInCU: 0x50DEF, offset: 0x50DEF, size: 0x8, addend: 0x0, symName: __ZNSt3__14moveB7v160006INS_16reverse_iteratorIPPN8nlohmann16json_abi_v3_11_310basic_jsonINS_3mapENS_6vectorENS_12basic_stringIcNS_11char_traitsIcEENS_9allocatorIcEEEEbxydSA_NS3_14adl_serializerENS6_IhNSA_IhEEEEvEEEESJ_EET0_T_SL_SK_, symObjAddr: 0x545A0, symBinAddr: 0x100056A90, symSize: 0x80 }
  - { offsetInCU: 0x50E49, offset: 0x50E49, size: 0x8, addend: 0x0, symName: __ZNSt3__16__moveB7v160006INS_17_ClassicAlgPolicyENS_16reverse_iteratorIPPN8nlohmann16json_abi_v3_11_310basic_jsonINS_3mapENS_6vectorENS_12basic_stringIcNS_11char_traitsIcEENS_9allocatorIcEEEEbxydSB_NS4_14adl_serializerENS7_IhNSB_IhEEEEvEEEESK_SK_EENS_4pairIT0_T2_EESM_T1_SN_, symObjAddr: 0x54620, symBinAddr: 0x100056B10, symSize: 0x90 }
  - { offsetInCU: 0x50EB5, offset: 0x50EB5, size: 0x8, addend: 0x0, symName: __ZNSt3__123__dispatch_copy_or_moveB7v160006INS_17_ClassicAlgPolicyENS_11__move_loopIS1_EENS_14__move_trivialENS_16reverse_iteratorIPPN8nlohmann16json_abi_v3_11_310basic_jsonINS_3mapENS_6vectorENS_12basic_stringIcNS_11char_traitsIcEENS_9allocatorIcEEEEbxydSE_NS7_14adl_serializerENSA_IhNSE_IhEEEEvEEEESN_SN_EENS_4pairIT2_T4_EESP_T3_SQ_, symObjAddr: 0x546B0, symBinAddr: 0x100056BA0, symSize: 0x90 }
  - { offsetInCU: 0x50F33, offset: 0x50F33, size: 0x8, addend: 0x0, symName: __ZNSt3__121__unwrap_and_dispatchB7v160006INS_10__overloadINS_11__move_loopINS_17_ClassicAlgPolicyEEENS_14__move_trivialEEENS_16reverse_iteratorIPPN8nlohmann16json_abi_v3_11_310basic_jsonINS_3mapENS_6vectorENS_12basic_stringIcNS_11char_traitsIcEENS_9allocatorIcEEEEbxydSG_NS9_14adl_serializerENSC_IhNSG_IhEEEEvEEEESP_SP_Li0EEENS_4pairIT0_T2_EESR_T1_SS_, symObjAddr: 0x54740, symBinAddr: 0x100056C30, symSize: 0x210 }
  - { offsetInCU: 0x50FC2, offset: 0x50FC2, size: 0x8, addend: 0x0, symName: __ZNSt3__114__unwrap_rangeB7v160006INS_16reverse_iteratorIPPN8nlohmann16json_abi_v3_11_310basic_jsonINS_3mapENS_6vectorENS_12basic_stringIcNS_11char_traitsIcEENS_9allocatorIcEEEEbxydSA_NS3_14adl_serializerENS6_IhNSA_IhEEEEvEEEESJ_EENS_4pairIT0_SL_EET_SN_, symObjAddr: 0x54950, symBinAddr: 0x100056E40, symSize: 0x90 }
  - { offsetInCU: 0x510E2, offset: 0x510E2, size: 0x8, addend: 0x0, symName: __ZNSt3__113__unwrap_iterB7v160006INS_16reverse_iteratorIPPN8nlohmann16json_abi_v3_11_310basic_jsonINS_3mapENS_6vectorENS_12basic_stringIcNS_11char_traitsIcEENS_9allocatorIcEEEEbxydSA_NS3_14adl_serializerENS6_IhNSA_IhEEEEvEEEENS_18__unwrap_iter_implISJ_Lb0EEELi0EEEDTclsrT0_8__unwrapclsr3stdE7declvalIT_EEEESN_, symObjAddr: 0x54A80, symBinAddr: 0x100056F70, symSize: 0x40 }
  - { offsetInCU: 0x51126, offset: 0x51126, size: 0x8, addend: 0x0, symName: __ZNSt3__19make_pairB7v160006INS_16reverse_iteratorIPPN8nlohmann16json_abi_v3_11_310basic_jsonINS_3mapENS_6vectorENS_12basic_stringIcNS_11char_traitsIcEENS_9allocatorIcEEEEbxydSA_NS3_14adl_serializerENS6_IhNSA_IhEEEEvEEEESJ_EENS_4pairINS_18__unwrap_ref_decayIT_E4typeENSL_IT0_E4typeEEEOSM_OSP_, symObjAddr: 0x54AC0, symBinAddr: 0x100056FB0, symSize: 0x30 }
  - { offsetInCU: 0x51175, offset: 0x51175, size: 0x8, addend: 0x0, symName: __ZNSt3__114__rewrap_rangeB7v160006INS_16reverse_iteratorIPPN8nlohmann16json_abi_v3_11_310basic_jsonINS_3mapENS_6vectorENS_12basic_stringIcNS_11char_traitsIcEENS_9allocatorIcEEEEbxydSA_NS3_14adl_serializerENS6_IhNSA_IhEEEEvEEEESJ_EET_SK_T0_, symObjAddr: 0x54AF0, symBinAddr: 0x100056FE0, symSize: 0x60 }
  - { offsetInCU: 0x511C1, offset: 0x511C1, size: 0x8, addend: 0x0, symName: __ZNSt3__113__rewrap_iterB7v160006INS_16reverse_iteratorIPPN8nlohmann16json_abi_v3_11_310basic_jsonINS_3mapENS_6vectorENS_12basic_stringIcNS_11char_traitsIcEENS_9allocatorIcEEEEbxydSA_NS3_14adl_serializerENS6_IhNSA_IhEEEEvEEEESJ_NS_18__unwrap_iter_implISJ_Lb0EEEEET_SM_T0_, symObjAddr: 0x54B50, symBinAddr: 0x100057040, symSize: 0x70 }
  - { offsetInCU: 0x51216, offset: 0x51216, size: 0x8, addend: 0x0, symName: __ZNSt3__1neB7v160006IPPN8nlohmann16json_abi_v3_11_310basic_jsonINS_3mapENS_6vectorENS_12basic_stringIcNS_11char_traitsIcEENS_9allocatorIcEEEEbxydS9_NS2_14adl_serializerENS5_IhNS9_IhEEEEvEESH_EEbRKNS_16reverse_iteratorIT_EERKNSI_IT0_EE, symObjAddr: 0x54BC0, symBinAddr: 0x1000570B0, symSize: 0x40 }
  - { offsetInCU: 0x5160E, offset: 0x5160E, size: 0x8, addend: 0x0, symName: __ZNSt3__1neB7v160006INS_3mapINS_12basic_stringIcNS_11char_traitsIcEENS_9allocatorIcEEEEN8nlohmann16json_abi_v3_11_310basic_jsonIS1_NS_6vectorES7_bxydS5_NS9_14adl_serializerENSB_IhNS5_IhEEEEvEENS_4lessIvEENS5_INS_4pairIKS7_SF_EEEEEEZNSF_6createISM_JRKSM_EEEPT_DpOT0_EUlPSM_E_EEbRKNS_10unique_ptrISQ_T0_EEDn, symObjAddr: 0x561F0, symBinAddr: 0x1000586E0, symSize: 0x30 }
  - { offsetInCU: 0x5165A, offset: 0x5165A, size: 0x8, addend: 0x0, symName: __ZNSt3__1neB7v160006ERKNS_20__map_const_iteratorINS_21__tree_const_iteratorINS_12__value_typeINS_12basic_stringIcNS_11char_traitsIcEENS_9allocatorIcEEEEN8nlohmann16json_abi_v3_11_310basic_jsonINS_3mapENS_6vectorES8_bxydS6_NSA_14adl_serializerENSD_IhNS6_IhEEEEvEEEEPNS_11__tree_nodeISI_PvEElEEEESQ_, symObjAddr: 0x56720, symBinAddr: 0x100058C10, symSize: 0x30 }
  - { offsetInCU: 0x51697, offset: 0x51697, size: 0x8, addend: 0x0, symName: __ZNSt3__1neB7v160006ERKNS_21__tree_const_iteratorINS_12__value_typeINS_12basic_stringIcNS_11char_traitsIcEENS_9allocatorIcEEEEN8nlohmann16json_abi_v3_11_310basic_jsonINS_3mapENS_6vectorES7_bxydS5_NS9_14adl_serializerENSC_IhNS5_IhEEEEvEEEEPNS_11__tree_nodeISH_PvEElEESO_, symObjAddr: 0x56830, symBinAddr: 0x100058D20, symSize: 0x30 }
  - { offsetInCU: 0x516D4, offset: 0x516D4, size: 0x8, addend: 0x0, symName: __ZNSt3__1eqB7v160006ERKNS_21__tree_const_iteratorINS_12__value_typeINS_12basic_stringIcNS_11char_traitsIcEENS_9allocatorIcEEEEN8nlohmann16json_abi_v3_11_310basic_jsonINS_3mapENS_6vectorES7_bxydS5_NS9_14adl_serializerENSC_IhNS5_IhEEEEvEEEEPNS_11__tree_nodeISH_PvEElEESO_, symObjAddr: 0x56860, symBinAddr: 0x100058D50, symSize: 0x30 }
  - { offsetInCU: 0x51735, offset: 0x51735, size: 0x8, addend: 0x0, symName: __ZNSt3__14nextB7v160006INS_21__tree_const_iteratorINS_12__value_typeINS_12basic_stringIcNS_11char_traitsIcEENS_9allocatorIcEEEEN8nlohmann16json_abi_v3_11_310basic_jsonINS_3mapENS_6vectorES8_bxydS6_NSA_14adl_serializerENSD_IhNS6_IhEEEEvEEEEPNS_11__tree_nodeISI_PvEElEEEENS_9enable_ifIXsr25__is_cpp17_input_iteratorIT_EE5valueESP_E4typeESP_NS_15iterator_traitsISP_E15difference_typeE, symObjAddr: 0x57280, symBinAddr: 0x100059770, symSize: 0x50 }
  - { offsetInCU: 0x51778, offset: 0x51778, size: 0x8, addend: 0x0, symName: __ZNSt3__1ltB7v160006IcNS_11char_traitsIcEENS_9allocatorIcEEEEbRKNS_12basic_stringIT_T0_T1_EESB_, symObjAddr: 0x57380, symBinAddr: 0x100059870, symSize: 0x30 }
  - { offsetInCU: 0x517F4, offset: 0x517F4, size: 0x8, addend: 0x0, symName: __ZNSt3__121__convert_to_integralB7v160006El, symObjAddr: 0x57660, symBinAddr: 0x100059B50, symSize: 0x10 }
  - { offsetInCU: 0x51820, offset: 0x51820, size: 0x8, addend: 0x0, symName: __ZNSt3__19__advanceB7v160006INS_21__tree_const_iteratorINS_12__value_typeINS_12basic_stringIcNS_11char_traitsIcEENS_9allocatorIcEEEEN8nlohmann16json_abi_v3_11_310basic_jsonINS_3mapENS_6vectorES8_bxydS6_NSA_14adl_serializerENSD_IhNS6_IhEEEEvEEEEPNS_11__tree_nodeISI_PvEElEEEEvRT_NS_15iterator_traitsISO_E15difference_typeENS_26bidirectional_iterator_tagE, symObjAddr: 0x57670, symBinAddr: 0x100059B60, symSize: 0x80 }
  - { offsetInCU: 0x51889, offset: 0x51889, size: 0x8, addend: 0x0, symName: __ZNSt3__127__tree_balance_after_insertB7v160006IPNS_16__tree_node_baseIPvEEEEvT_S5_, symObjAddr: 0x57AD0, symBinAddr: 0x100059FC0, symSize: 0x240 }
  - { offsetInCU: 0x51906, offset: 0x51906, size: 0x8, addend: 0x0, symName: __ZNSt3__118__tree_left_rotateB7v160006IPNS_16__tree_node_baseIPvEEEEvT_, symObjAddr: 0x57D10, symBinAddr: 0x10005A200, symSize: 0xD0 }
  - { offsetInCU: 0x51949, offset: 0x51949, size: 0x8, addend: 0x0, symName: __ZNSt3__119__tree_right_rotateB7v160006IPNS_16__tree_node_baseIPvEEEEvT_, symObjAddr: 0x57DE0, symBinAddr: 0x10005A2D0, symSize: 0xC0 }
  - { offsetInCU: 0x51CFE, offset: 0x51CFE, size: 0x8, addend: 0x0, symName: __ZNSt3__1neB7v160006INS_6vectorIN8nlohmann16json_abi_v3_11_310basic_jsonINS_3mapES1_NS_12basic_stringIcNS_11char_traitsIcEENS_9allocatorIcEEEEbxydS9_NS3_14adl_serializerENS1_IhNS9_IhEEEEvEENS9_ISF_EEEEZNSF_6createISH_JRKSH_EEEPT_DpOT0_EUlPSH_E_EEbRKNS_10unique_ptrISL_T0_EEDn, symObjAddr: 0x58480, symBinAddr: 0x10005A970, symSize: 0x30 }
  - { offsetInCU: 0x51D4A, offset: 0x51D4A, size: 0x8, addend: 0x0, symName: __ZNSt3__122__make_exception_guardB7v160006INS_6vectorIN8nlohmann16json_abi_v3_11_310basic_jsonINS_3mapES1_NS_12basic_stringIcNS_11char_traitsIcEENS_9allocatorIcEEEEbxydS9_NS3_14adl_serializerENS1_IhNS9_IhEEEEvEENS9_ISF_EEE16__destroy_vectorEEENS_28__exception_guard_exceptionsIT_EESK_, symObjAddr: 0x58790, symBinAddr: 0x10005AC80, symSize: 0x40 }
  - { offsetInCU: 0x51D7F, offset: 0x51D7F, size: 0x8, addend: 0x0, symName: __ZNSt3__130__uninitialized_allocator_copyB7v160006INS_9allocatorIN8nlohmann16json_abi_v3_11_310basic_jsonINS_3mapENS_6vectorENS_12basic_stringIcNS_11char_traitsIcEENS1_IcEEEEbxydS1_NS3_14adl_serializerENS6_IhNS1_IhEEEEvEEEEPSF_SH_SH_EET2_RT_T0_T1_SI_, symObjAddr: 0x589E0, symBinAddr: 0x10005AED0, symSize: 0x100 }
  - { offsetInCU: 0x51E1D, offset: 0x51E1D, size: 0x8, addend: 0x0, symName: __ZNSt3__122__make_exception_guardB7v160006INS_29_AllocatorDestroyRangeReverseINS_9allocatorIN8nlohmann16json_abi_v3_11_310basic_jsonINS_3mapENS_6vectorENS_12basic_stringIcNS_11char_traitsIcEENS2_IcEEEEbxydS2_NS4_14adl_serializerENS7_IhNS2_IhEEEEvEEEEPSG_EEEENS_28__exception_guard_exceptionsIT_EESL_, symObjAddr: 0x58AE0, symBinAddr: 0x10005AFD0, symSize: 0x60 }
  - { offsetInCU: 0x51E53, offset: 0x51E53, size: 0x8, addend: 0x0, symName: __ZNSt3__119__allocator_destroyB7v160006INS_9allocatorIN8nlohmann16json_abi_v3_11_310basic_jsonINS_3mapENS_6vectorENS_12basic_stringIcNS_11char_traitsIcEENS1_IcEEEEbxydS1_NS3_14adl_serializerENS6_IhNS1_IhEEEEvEEEENS_16reverse_iteratorIPSF_EESJ_EEvRT_T0_T1_, symObjAddr: 0x58D70, symBinAddr: 0x10005B260, symSize: 0x70 }
  - { offsetInCU: 0x521F6, offset: 0x521F6, size: 0x8, addend: 0x0, symName: __ZNSt3__1neB7v160006INS_12basic_stringIcNS_11char_traitsIcEENS_9allocatorIcEEEEZN8nlohmann16json_abi_v3_11_310basic_jsonINS_3mapENS_6vectorES6_bxydS4_NS8_14adl_serializerENSB_IhNS4_IhEEEEvE6createIS6_JRKS6_EEEPT_DpOT0_EUlPS6_E_EEbRKNS_10unique_ptrISJ_T0_EEDn, symObjAddr: 0x59140, symBinAddr: 0x10005B630, symSize: 0x30 }
  - { offsetInCU: 0x52582, offset: 0x52582, size: 0x8, addend: 0x0, symName: __ZNSt3__1neB7v160006IN8nlohmann16json_abi_v3_11_327byte_container_with_subtypeINS_6vectorIhNS_9allocatorIhEEEEEEZNS2_10basic_jsonINS_3mapES4_NS_12basic_stringIcNS_11char_traitsIcEENS5_IcEEEEbxydS5_NS2_14adl_serializerES7_vE6createIS8_JRKS8_EEEPT_DpOT0_EUlPS8_E_EEbRKNS_10unique_ptrISL_T0_EEDn, symObjAddr: 0x59670, symBinAddr: 0x10005BB60, symSize: 0x30 }
  - { offsetInCU: 0x525CE, offset: 0x525CE, size: 0x8, addend: 0x0, symName: __ZNSt3__122__make_exception_guardB7v160006INS_6vectorIhNS_9allocatorIhEEE16__destroy_vectorEEENS_28__exception_guard_exceptionsIT_EES7_, symObjAddr: 0x599E0, symBinAddr: 0x10005BED0, symSize: 0x40 }
  - { offsetInCU: 0x52603, offset: 0x52603, size: 0x8, addend: 0x0, symName: __ZNSt3__119__allocate_at_leastB7v160006INS_9allocatorIhEEEENS_19__allocation_resultINS_16allocator_traitsIT_E7pointerEEERS5_m, symObjAddr: 0x59CE0, symBinAddr: 0x10005C1D0, symSize: 0x40 }
  - { offsetInCU: 0x52646, offset: 0x52646, size: 0x8, addend: 0x0, symName: __ZNSt3__130__uninitialized_allocator_copyB7v160006INS_9allocatorIhEEPhS3_S3_EET2_RT_T0_T1_S4_, symObjAddr: 0x59ED0, symBinAddr: 0x10005C3C0, symSize: 0x100 }
  - { offsetInCU: 0x526E4, offset: 0x526E4, size: 0x8, addend: 0x0, symName: __ZNSt3__122__make_exception_guardB7v160006INS_29_AllocatorDestroyRangeReverseINS_9allocatorIhEEPhEEEENS_28__exception_guard_exceptionsIT_EES7_, symObjAddr: 0x5A030, symBinAddr: 0x10005C520, symSize: 0x60 }
  - { offsetInCU: 0x5271A, offset: 0x5271A, size: 0x8, addend: 0x0, symName: __ZNSt3__119__allocator_destroyB7v160006INS_9allocatorIhEENS_16reverse_iteratorIPhEES5_EEvRT_T0_T1_, symObjAddr: 0x5A2B0, symBinAddr: 0x10005C7A0, symSize: 0x70 }
  - { offsetInCU: 0x5277D, offset: 0x5277D, size: 0x8, addend: 0x0, symName: __ZNSt3__1neB7v160006IPhS1_EEbRKNS_16reverse_iteratorIT_EERKNS2_IT0_EE, symObjAddr: 0x5A350, symBinAddr: 0x10005C840, symSize: 0x40 }
  - { offsetInCU: 0x527C9, offset: 0x527C9, size: 0x8, addend: 0x0, symName: __ZNSt3__112__to_addressB7v160006INS_16reverse_iteratorIPhEEvEENS_5decayIDTclsr19__to_address_helperIT_EE6__callclsr3stdE7declvalIRKS5_EEEEE4typeES7_, symObjAddr: 0x5A390, symBinAddr: 0x10005C880, symSize: 0x20 }
  - { offsetInCU: 0x52829, offset: 0x52829, size: 0x8, addend: 0x0, symName: __ZNSt3__119__debug_db_insert_iB7v160006INS_11__wrap_iterIPN8nlohmann16json_abi_v3_11_310basic_jsonINS_3mapENS_6vectorENS_12basic_stringIcNS_11char_traitsIcEENS_9allocatorIcEEEEbxydSA_NS3_14adl_serializerENS6_IhNSA_IhEEEEvEEEEEEvPT_, symObjAddr: 0x5AB50, symBinAddr: 0x10005D040, symSize: 0x10 }
  - { offsetInCU: 0x5285A, offset: 0x5285A, size: 0x8, addend: 0x0, symName: __ZNSt3__1eqB7v160006ERKNS_14__map_iteratorINS_15__tree_iteratorINS_12__value_typeINS_12basic_stringIcNS_11char_traitsIcEENS_9allocatorIcEEEEN8nlohmann16json_abi_v3_11_310basic_jsonINS_3mapENS_6vectorES8_bxydS6_NSA_14adl_serializerENSD_IhNS6_IhEEEEvEEEEPNS_11__tree_nodeISI_PvEElEEEESQ_, symObjAddr: 0x5AF70, symBinAddr: 0x10005D460, symSize: 0x30 }
  - { offsetInCU: 0x52897, offset: 0x52897, size: 0x8, addend: 0x0, symName: __ZNSt3__1eqB7v160006IPN8nlohmann16json_abi_v3_11_310basic_jsonINS_3mapENS_6vectorENS_12basic_stringIcNS_11char_traitsIcEENS_9allocatorIcEEEEbxydS9_NS2_14adl_serializerENS5_IhNS9_IhEEEEvEEEEbRKNS_11__wrap_iterIT_EESL_, symObjAddr: 0x5AFA0, symBinAddr: 0x10005D490, symSize: 0x40 }
  - { offsetInCU: 0x528DA, offset: 0x528DA, size: 0x8, addend: 0x0, symName: __ZNSt3__1neB7v160006IPN8nlohmann16json_abi_v3_11_310basic_jsonINS_3mapENS_6vectorENS_12basic_stringIcNS_11char_traitsIcEENS_9allocatorIcEEEEbxydS9_NS2_14adl_serializerENS5_IhNS9_IhEEEEvEEEEbRKNS_11__wrap_iterIT_EESL_, symObjAddr: 0x5B210, symBinAddr: 0x10005D700, symSize: 0x30 }
  - { offsetInCU: 0x52951, offset: 0x52951, size: 0x8, addend: 0x0, symName: __ZNSt3__113__tree_removeB7v160006IPNS_16__tree_node_baseIPvEEEEvT_S5_, symObjAddr: 0x5B830, symBinAddr: 0x10005DD20, symSize: 0x5E0 }
  - { offsetInCU: 0x529CF, offset: 0x529CF, size: 0x8, addend: 0x0, symName: __ZNSt3__111__tree_nextB7v160006IPNS_16__tree_node_baseIPvEEEET_S5_, symObjAddr: 0x5BE10, symBinAddr: 0x10005E300, symSize: 0x80 }
  - { offsetInCU: 0x52A04, offset: 0x52A04, size: 0x8, addend: 0x0, symName: __ZNSt3__1miB7v160006IPKN8nlohmann16json_abi_v3_11_310basic_jsonINS_3mapENS_6vectorENS_12basic_stringIcNS_11char_traitsIcEENS_9allocatorIcEEEEbxydS9_NS2_14adl_serializerENS5_IhNS9_IhEEEEvEESH_EEDTmicldtfp_4baseEcldtfp0_4baseEERKNS_11__wrap_iterIT_EERKNSJ_IT0_EE, symObjAddr: 0x5BE90, symBinAddr: 0x10005E380, symSize: 0x40 }
  - { offsetInCU: 0x52A50, offset: 0x52A50, size: 0x8, addend: 0x0, symName: __ZNSt3__14moveB7v160006IPN8nlohmann16json_abi_v3_11_310basic_jsonINS_3mapENS_6vectorENS_12basic_stringIcNS_11char_traitsIcEENS_9allocatorIcEEEEbxydS9_NS2_14adl_serializerENS5_IhNS9_IhEEEEvEESG_EET0_T_SI_SH_, symObjAddr: 0x5BF00, symBinAddr: 0x10005E3F0, symSize: 0x40 }
  - { offsetInCU: 0x52AAA, offset: 0x52AAA, size: 0x8, addend: 0x0, symName: __ZNSt3__16__moveB7v160006INS_17_ClassicAlgPolicyEPN8nlohmann16json_abi_v3_11_310basic_jsonINS_3mapENS_6vectorENS_12basic_stringIcNS_11char_traitsIcEENS_9allocatorIcEEEEbxydSA_NS3_14adl_serializerENS6_IhNSA_IhEEEEvEESH_SH_EENS_4pairIT0_T2_EESJ_T1_SK_, symObjAddr: 0x5C010, symBinAddr: 0x10005E500, symSize: 0x40 }
  - { offsetInCU: 0x52B16, offset: 0x52B16, size: 0x8, addend: 0x0, symName: __ZNSt3__123__dispatch_copy_or_moveB7v160006INS_17_ClassicAlgPolicyENS_11__move_loopIS1_EENS_14__move_trivialEPN8nlohmann16json_abi_v3_11_310basic_jsonINS_3mapENS_6vectorENS_12basic_stringIcNS_11char_traitsIcEENS_9allocatorIcEEEEbxydSD_NS6_14adl_serializerENS9_IhNSD_IhEEEEvEESK_SK_EENS_4pairIT2_T4_EESM_T3_SN_, symObjAddr: 0x5C050, symBinAddr: 0x10005E540, symSize: 0x40 }
  - { offsetInCU: 0x52B94, offset: 0x52B94, size: 0x8, addend: 0x0, symName: __ZNSt3__121__unwrap_and_dispatchB7v160006INS_10__overloadINS_11__move_loopINS_17_ClassicAlgPolicyEEENS_14__move_trivialEEEPN8nlohmann16json_abi_v3_11_310basic_jsonINS_3mapENS_6vectorENS_12basic_stringIcNS_11char_traitsIcEENS_9allocatorIcEEEEbxydSF_NS8_14adl_serializerENSB_IhNSF_IhEEEEvEESM_SM_Li0EEENS_4pairIT0_T2_EESO_T1_SP_, symObjAddr: 0x5C090, symBinAddr: 0x10005E580, symSize: 0xB0 }
  - { offsetInCU: 0x52C23, offset: 0x52C23, size: 0x8, addend: 0x0, symName: __ZNSt3__114__unwrap_rangeB7v160006IPN8nlohmann16json_abi_v3_11_310basic_jsonINS_3mapENS_6vectorENS_12basic_stringIcNS_11char_traitsIcEENS_9allocatorIcEEEEbxydS9_NS2_14adl_serializerENS5_IhNS9_IhEEEEvEESG_EENS_4pairIT0_SI_EET_SK_, symObjAddr: 0x5C140, symBinAddr: 0x10005E630, symSize: 0x50 }
  - { offsetInCU: 0x52C6F, offset: 0x52C6F, size: 0x8, addend: 0x0, symName: __ZNSt3__113__unwrap_iterB7v160006IPN8nlohmann16json_abi_v3_11_310basic_jsonINS_3mapENS_6vectorENS_12basic_stringIcNS_11char_traitsIcEENS_9allocatorIcEEEEbxydS9_NS2_14adl_serializerENS5_IhNS9_IhEEEEvEENS_18__unwrap_iter_implISG_Lb1EEELi0EEEDTclsrT0_8__unwrapclsr3stdE7declvalIT_EEEESK_, symObjAddr: 0x5C230, symBinAddr: 0x10005E720, symSize: 0x20 }
  - { offsetInCU: 0x52CB3, offset: 0x52CB3, size: 0x8, addend: 0x0, symName: __ZNSt3__114__rewrap_rangeB7v160006IPN8nlohmann16json_abi_v3_11_310basic_jsonINS_3mapENS_6vectorENS_12basic_stringIcNS_11char_traitsIcEENS_9allocatorIcEEEEbxydS9_NS2_14adl_serializerENS5_IhNS9_IhEEEEvEESG_EET_SH_T0_, symObjAddr: 0x5C250, symBinAddr: 0x10005E740, symSize: 0x30 }
  - { offsetInCU: 0x52CFF, offset: 0x52CFF, size: 0x8, addend: 0x0, symName: __ZNSt3__113__rewrap_iterB7v160006IPN8nlohmann16json_abi_v3_11_310basic_jsonINS_3mapENS_6vectorENS_12basic_stringIcNS_11char_traitsIcEENS_9allocatorIcEEEEbxydS9_NS2_14adl_serializerENS5_IhNS9_IhEEEEvEESG_NS_18__unwrap_iter_implISG_Lb1EEEEET_SJ_T0_, symObjAddr: 0x5C280, symBinAddr: 0x10005E770, symSize: 0x40 }
  - { offsetInCU: 0x52DA7, offset: 0x52DA7, size: 0x8, addend: 0x0, symName: __ZNSt3__121__convert_to_integralB7v160006Ei, symObjAddr: 0x5C5E0, symBinAddr: 0x10005EAD0, symSize: 0x10 }
  - { offsetInCU: 0x52DD3, offset: 0x52DD3, size: 0x8, addend: 0x0, symName: __ZNSt3__19__advanceB7v160006INS_14__map_iteratorINS_15__tree_iteratorINS_12__value_typeINS_12basic_stringIcNS_11char_traitsIcEENS_9allocatorIcEEEEN8nlohmann16json_abi_v3_11_310basic_jsonINS_3mapENS_6vectorES9_bxydS7_NSB_14adl_serializerENSE_IhNS7_IhEEEEvEEEEPNS_11__tree_nodeISJ_PvEElEEEEEEvRT_NS_15iterator_traitsISQ_E15difference_typeENS_26bidirectional_iterator_tagE, symObjAddr: 0x5C5F0, symBinAddr: 0x10005EAE0, symSize: 0x80 }
  - { offsetInCU: 0x52E1D, offset: 0x52E1D, size: 0x8, addend: 0x0, symName: __ZNSt3__19__advanceB7v160006INS_11__wrap_iterIPN8nlohmann16json_abi_v3_11_310basic_jsonINS_3mapENS_6vectorENS_12basic_stringIcNS_11char_traitsIcEENS_9allocatorIcEEEEbxydSA_NS3_14adl_serializerENS6_IhNSA_IhEEEEvEEEEEEvRT_NS_15iterator_traitsISJ_E15difference_typeENS_26random_access_iterator_tagE, symObjAddr: 0x5C6D0, symBinAddr: 0x10005EBC0, symSize: 0x30 }
  - { offsetInCU: 0x52E67, offset: 0x52E67, size: 0x8, addend: 0x0, symName: __ZNSt3__116forward_as_tupleB7v160006IJRKNS_12basic_stringIcNS_11char_traitsIcEENS_9allocatorIcEEEEEEENS_5tupleIJDpOT_EEESC_, symObjAddr: 0x5CA10, symBinAddr: 0x10005EF00, symSize: 0x30 }
  - { offsetInCU: 0x52EA0, offset: 0x52EA0, size: 0x8, addend: 0x0, symName: __ZNSt3__13getB7v160006ILm0EJRKNS_12basic_stringIcNS_11char_traitsIcEENS_9allocatorIcEEEEEEERNS_13tuple_elementIXT_ENS_5tupleIJDpT0_EEEE4typeERSD_, symObjAddr: 0x5CC80, symBinAddr: 0x10005F170, symSize: 0x20 }
  - { offsetInCU: 0x531BB, offset: 0x531BB, size: 0x8, addend: 0x0, symName: __ZNSt3__14swapB7v160006IN8nlohmann16json_abi_v3_11_36detail7value_tEEENS_9enable_ifIXaasr21is_move_constructibleIT_EE5valuesr18is_move_assignableIS6_EE5valueEvE4typeERS6_S9_, symObjAddr: 0x60660, symBinAddr: 0x100062B50, symSize: 0x30 }
  - { offsetInCU: 0x5320C, offset: 0x5320C, size: 0x8, addend: 0x0, symName: __ZNSt3__14swapB7v160006IN8nlohmann16json_abi_v3_11_310basic_jsonINS_3mapENS_6vectorENS_12basic_stringIcNS_11char_traitsIcEENS_9allocatorIcEEEEbxydS9_NS2_14adl_serializerENS5_IhNS9_IhEEEEvE10json_valueEEENS_9enable_ifIXaasr21is_move_constructibleIT_EE5valuesr18is_move_assignableISI_EE5valueEvE4typeERSI_SL_, symObjAddr: 0x60690, symBinAddr: 0x100062B80, symSize: 0x40 }
  - { offsetInCU: 0x53281, offset: 0x53281, size: 0x8, addend: 0x0, symName: __ZNSt3__118__debug_db_erase_cB7v160006INS_6vectorIPN3ast11DeclarationENS_9allocatorIS4_EEEEEEvPT_, symObjAddr: 0x636F0, symBinAddr: 0x100065BE0, symSize: 0x10 }
  - { offsetInCU: 0x532B2, offset: 0x532B2, size: 0x8, addend: 0x0, symName: __ZNSt3__112__to_addressB7v160006IPN3ast11DeclarationEEEPT_S5_, symObjAddr: 0x63800, symBinAddr: 0x100065CF0, symSize: 0x10 }
  - { offsetInCU: 0x532E7, offset: 0x532E7, size: 0x8, addend: 0x0, symName: __ZNSt3__115__debug_db_swapB7v160006INS_6vectorIPN3ast11DeclarationENS_9allocatorIS4_EEEEEEvPT_S9_, symObjAddr: 0x63B10, symBinAddr: 0x100066000, symSize: 0x10 }
  - { offsetInCU: 0x53326, offset: 0x53326, size: 0x8, addend: 0x0, symName: __ZNSt3__125__debug_db_invalidate_allB7v160006INS_6vectorIPN3ast11DeclarationENS_9allocatorIS4_EEEEEEvPT_, symObjAddr: 0x63C10, symBinAddr: 0x100066100, symSize: 0x10 }
  - { offsetInCU: 0x587D9, offset: 0x587D9, size: 0x8, addend: 0x0, symName: __ZSt28__throw_bad_array_new_lengthB7v160006v, symObjAddr: 0x4290, symBinAddr: 0x100006780, symSize: 0x40 }
  - { offsetInCU: 0x591BC, offset: 0x591BC, size: 0x8, addend: 0x0, symName: __ZN3fmt3v116detail15do_count_digitsEj, symObjAddr: 0x7A10, symBinAddr: 0x100009F00, symSize: 0x40 }
  - { offsetInCU: 0x591E7, offset: 0x591E7, size: 0x8, addend: 0x0, symName: __ZZN3fmt3v116detail15do_count_digitsEjE5table, symObjAddr: 0x6A470, symBinAddr: 0x100088F30, symSize: 0x0 }
  - { offsetInCU: 0x5920F, offset: 0x5920F, size: 0x8, addend: 0x0, symName: __ZN3fmt3v116detail15do_count_digitsEy, symObjAddr: 0x147D0, symBinAddr: 0x100016CC0, symSize: 0x60 }
  - { offsetInCU: 0x5923A, offset: 0x5923A, size: 0x8, addend: 0x0, symName: __ZZN3fmt3v116detail15do_count_digitsEyE9bsr2log10, symObjAddr: 0x6A770, symBinAddr: 0x100089230, symSize: 0x0 }
  - { offsetInCU: 0x59250, offset: 0x59250, size: 0x8, addend: 0x0, symName: __ZZN3fmt3v116detail15do_count_digitsEyE20zero_or_powers_of_10, symObjAddr: 0x6A7B0, symBinAddr: 0x100089270, symSize: 0x0 }
  - { offsetInCU: 0x5930A, offset: 0x5930A, size: 0x8, addend: 0x0, symName: __ZN3fmt3v116detail13get_containerINSt3__120back_insert_iteratorINS0_19basic_memory_bufferIcLm250ENS3_9allocatorIcEEEEEEEERNT_14container_typeESA_, symObjAddr: 0x7CA0, symBinAddr: 0x10000A190, symSize: 0x30 }
  - { offsetInCU: 0x593AB, offset: 0x593AB, size: 0x8, addend: 0x0, symName: __ZN3fmt3v116detail16abort_fuzzing_ifEb, symObjAddr: 0x5A50, symBinAddr: 0x100007F40, symSize: 0x20 }
  - { offsetInCU: 0x593D6, offset: 0x593D6, size: 0x8, addend: 0x0, symName: __ZN3fmt3v116detail6assumeEb, symObjAddr: 0x5B20, symBinAddr: 0x100008010, symSize: 0x10 }
  - { offsetInCU: 0x59401, offset: 0x59401, size: 0x8, addend: 0x0, symName: __ZN3fmt3v116detail13ignore_unusedIJbEEEvDpRKT_, symObjAddr: 0x5B90, symBinAddr: 0x100008080, symSize: 0x10 }
  - { offsetInCU: 0x59433, offset: 0x59433, size: 0x8, addend: 0x0, symName: __ZN3fmt3v116detail11to_unsignedIlEENSt3__113make_unsignedIT_E4typeES5_, symObjAddr: 0x6D70, symBinAddr: 0x100009260, symSize: 0x40 }
  - { offsetInCU: 0x5946A, offset: 0x5946A, size: 0x8, addend: 0x0, symName: __ZN3fmt3v116detail14format_decimalIcjEENS1_21format_decimal_resultIPT_EES5_T0_i, symObjAddr: 0x7870, symBinAddr: 0x100009D60, symSize: 0x140 }
  - { offsetInCU: 0x594D7, offset: 0x594D7, size: 0x8, addend: 0x0, symName: __ZN3fmt3v116detail12count_digitsEj, symObjAddr: 0x79B0, symBinAddr: 0x100009EA0, symSize: 0x20 }
  - { offsetInCU: 0x59506, offset: 0x59506, size: 0x8, addend: 0x0, symName: __ZN3fmt3v116detail5copy2IcEEvPT_PKc, symObjAddr: 0x79D0, symBinAddr: 0x100009EC0, symSize: 0x20 }
  - { offsetInCU: 0x59548, offset: 0x59548, size: 0x8, addend: 0x0, symName: __ZN3fmt3v116detail7digits2Em, symObjAddr: 0x79F0, symBinAddr: 0x100009EE0, symSize: 0x20 }
  - { offsetInCU: 0x59988, offset: 0x59988, size: 0x8, addend: 0x0, symName: __ZN3fmt3v116detail10get_bufferIcNSt3__120back_insert_iteratorINS0_19basic_memory_bufferIcLm250ENS3_9allocatorIcEEEEEELi0EEERNS1_6bufferIT_EET0_, symObjAddr: 0x7C30, symBinAddr: 0x10000A120, symSize: 0x30 }
  - { offsetInCU: 0x599CE, offset: 0x599CE, size: 0x8, addend: 0x0, symName: __ZN3fmt3v116detail12get_iteratorIcNSt3__120back_insert_iteratorINS0_19basic_memory_bufferIcLm250ENS3_9allocatorIcEEEEEEEET0_RNS1_6bufferIT_EESA_, symObjAddr: 0x7C80, symBinAddr: 0x10000A170, symSize: 0x20 }
  - { offsetInCU: 0x59CD6, offset: 0x59CD6, size: 0x8, addend: 0x0, symName: __ZN3fmt3v116detail8make_argILb1ENS0_7contextEiLi0EEENS1_5valueIT0_EERT1_, symObjAddr: 0x7D40, symBinAddr: 0x10000A230, symSize: 0x50 }
  - { offsetInCU: 0x59D9A, offset: 0x59D9A, size: 0x8, addend: 0x0, symName: __ZN3fmt3v116detail19check_format_stringIJRiEZZN6spdlog7details10fmt_helper4pad2EiRNS0_19basic_memory_bufferIcLm250ENSt3__19allocatorIcEEEEENKUlvE_clEvE18FMT_COMPILE_STRINGLi0EEEvT0_, symObjAddr: 0x7E10, symBinAddr: 0x10000A300, symSize: 0x40 }
  - { offsetInCU: 0x59DFC, offset: 0x59DFC, size: 0x8, addend: 0x0, symName: __ZN3fmt3v116detail12count_digitsEy, symObjAddr: 0x147B0, symBinAddr: 0x100016CA0, symSize: 0x20 }
  - { offsetInCU: 0x59E2A, offset: 0x59E2A, size: 0x8, addend: 0x0, symName: __ZN3fmt3v116detail14format_decimalIcyEENS1_21format_decimal_resultIPT_EES5_T0_i, symObjAddr: 0x148E0, symBinAddr: 0x100016DD0, symSize: 0x140 }
  - { offsetInCU: 0x59EE3, offset: 0x59EE3, size: 0x8, addend: 0x0, symName: __ZN3fmt3v116detail8make_argILb1ENS0_7contextEPKcLi0EEENS1_5valueIT0_EERT1_, symObjAddr: 0x3A570, symBinAddr: 0x10003CA60, symSize: 0x50 }
  - { offsetInCU: 0x59FA6, offset: 0x59FA6, size: 0x8, addend: 0x0, symName: __ZN3fmt3v116detail8make_argILb1ENS0_7contextEKPKcLi0EEENS1_5valueIT0_EERT1_, symObjAddr: 0x3A5C0, symBinAddr: 0x10003CAB0, symSize: 0x50 }
  - { offsetInCU: 0x5A069, offset: 0x5A069, size: 0x8, addend: 0x0, symName: __ZN3fmt3v116detail8make_argILb1ENS0_7contextEKiLi0EEENS1_5valueIT0_EERT1_, symObjAddr: 0x3A610, symBinAddr: 0x10003CB00, symSize: 0x50 }
  - { offsetInCU: 0x5A12D, offset: 0x5A12D, size: 0x8, addend: 0x0, symName: __ZN3fmt3v116detail19check_format_stringIJPKcRKS4_RKiEZZN6spdlog6logger8sink_it_ERKNS9_7details7log_msgEENKUlvE_clEvE18FMT_COMPILE_STRINGLi0EEEvT0_, symObjAddr: 0x3A690, symBinAddr: 0x10003CB80, symSize: 0x40 }
  - { offsetInCU: 0x5AB48, offset: 0x5AB48, size: 0x8, addend: 0x0, symName: __ZN3fmt3v119format_toINSt3__120back_insert_iteratorINS0_19basic_memory_bufferIcLm250ENS2_9allocatorIcEEEEEEJRiELi0EEENS2_9remove_cvINS2_16remove_referenceIT_E4typeEE4typeEOSC_NS0_19basic_format_stringIcJDpNS0_13type_identityIT0_E4typeEEEEDpOSK_, symObjAddr: 0x7A50, symBinAddr: 0x100009F40, symSize: 0xF0 }
  - { offsetInCU: 0x5AC3A, offset: 0x5AC3A, size: 0x8, addend: 0x0, symName: __ZN3fmt3v1110vformat_toINSt3__120back_insert_iteratorINS0_19basic_memory_bufferIcLm250ENS2_9allocatorIcEEEEEELi0EEENS2_9remove_cvINS2_16remove_referenceIT_E4typeEE4typeEOSB_NS0_17basic_string_viewIcEENS0_17basic_format_argsINS0_7contextEEE, symObjAddr: 0x7B80, symBinAddr: 0x10000A070, symSize: 0xB0 }
  - { offsetInCU: 0x5ACC1, offset: 0x5ACC1, size: 0x8, addend: 0x0, symName: __ZN3fmt3v1115detail_exported22compile_string_to_viewIcLm6EEENS0_17basic_string_viewIT_EERAT0__KS4_, symObjAddr: 0x7E50, symBinAddr: 0x10000A340, symSize: 0x50 }
  - { offsetInCU: 0x5AD02, offset: 0x5AD02, size: 0x8, addend: 0x0, symName: __ZN3fmt3v1115detail_exported22compile_string_to_viewIcLm12EEENS0_17basic_string_viewIT_EERAT0__KS4_, symObjAddr: 0x3A6D0, symBinAddr: 0x10003CBC0, symSize: 0x50 }
  - { offsetInCU: 0x5ADCD, offset: 0x5ADCD, size: 0x8, addend: 0x0, symName: __ZN3fmt3v116formatIJPKcRKS3_RKiEEENSt3__112basic_stringIcNS8_11char_traitsIcEENS8_9allocatorIcEEEENS0_19basic_format_stringIcJDpNS0_13type_identityIT_E4typeEEEEDpOSH_, symObjAddr: 0x39FE0, symBinAddr: 0x10003C4D0, symSize: 0x140 }
  - { offsetInCU: 0x5C40A, offset: 0x5C40A, size: 0x8, addend: 0x0, symName: __ZN6spdlog7details8registry8instanceEv, symObjAddr: 0x1800, symBinAddr: 0x100003CF0, symSize: 0xA0 }
  - { offsetInCU: 0x5C42C, offset: 0x5C42C, size: 0x8, addend: 0x0, symName: __ZZN6spdlog7details8registry8instanceEvE10s_instance, symObjAddr: 0x6BD20, symBinAddr: 0x100094000, symSize: 0x0 }
  - { offsetInCU: 0x5C8A2, offset: 0x5C8A2, size: 0x8, addend: 0x0, symName: __ZN6spdlog3mdc11get_contextEv, symObjAddr: 0x5D10, symBinAddr: 0x100008200, symSize: 0x70 }
  - { offsetInCU: 0x5C915, offset: 0x5C915, size: 0x8, addend: 0x0, symName: __ZN6spdlog7details13console_mutex5mutexEv, symObjAddr: 0x9F20, symBinAddr: 0x10000C410, symSize: 0x60 }
  - { offsetInCU: 0x5C935, offset: 0x5C935, size: 0x8, addend: 0x0, symName: __ZZN6spdlog7details13console_mutex5mutexEvE7s_mutex, symObjAddr: 0x6BF30, symBinAddr: 0x100094210, symSize: 0x0 }
  - { offsetInCU: 0x5C94B, offset: 0x5C94B, size: 0x8, addend: 0x0, symName: __ZZN6spdlog7details2os17is_color_terminalEvENKUlvE_clEv, symObjAddr: 0xA650, symBinAddr: 0x10000CB40, symSize: 0xA0 }
  - { offsetInCU: 0x5C973, offset: 0x5C973, size: 0x8, addend: 0x0, symName: __ZZZN6spdlog7details2os17is_color_terminalEvENKUlvE_clEvE5terms, symObjAddr: 0x68BE8, symBinAddr: 0x100091F18, symSize: 0x0 }
  - { offsetInCU: 0x5CADD, offset: 0x5CADD, size: 0x8, addend: 0x0, symName: __ZN6spdlog6logger12err_handler_ERKNSt3__112basic_stringIcNS1_11char_traitsIcEENS1_9allocatorIcEEEE, symObjAddr: 0x39D10, symBinAddr: 0x10003C200, symSize: 0x2D0 }
  - { offsetInCU: 0x5CB19, offset: 0x5CB19, size: 0x8, addend: 0x0, symName: __ZZN6spdlog6logger12err_handler_ERKNSt3__112basic_stringIcNS1_11char_traitsIcEENS1_9allocatorIcEEEEE16last_report_time, symObjAddr: 0x6C080, symBinAddr: 0x100094320, symSize: 0x0 }
  - { offsetInCU: 0x5CBC4, offset: 0x5CBC4, size: 0x8, addend: 0x0, symName: __ZN8nlohmann16json_abi_v3_11_36detail12static_constINS1_10to_json_fnEE5valueE, symObjAddr: 0x6BCEB, symBinAddr: 0x10008A76B, symSize: 0x0 }
  - { offsetInCU: 0x5E03C, offset: 0x5E03C, size: 0x8, addend: 0x0, symName: __ZN8nlohmann16json_abi_v3_11_36detail13input_adapterERNSt3__113basic_istreamIcNS2_11char_traitsIcEEEE, symObjAddr: 0x43EB0, symBinAddr: 0x1000463A0, symSize: 0x30 }
  - { offsetInCU: 0x5E1B2, offset: 0x5E1B2, size: 0x8, addend: 0x0, symName: __ZN8nlohmann16json_abi_v3_11_36detail6concatINSt3__112basic_stringIcNS3_11char_traitsIcEENS3_9allocatorIcEEEEJS9_S9_RKS9_EEET_DpOT0_, symObjAddr: 0x46440, symBinAddr: 0x100048930, symSize: 0xC0 }
  - { offsetInCU: 0x5E227, offset: 0x5E227, size: 0x8, addend: 0x0, symName: __ZN8nlohmann16json_abi_v3_11_36detail13concat_lengthINSt3__112basic_stringIcNS3_11char_traitsIcEENS3_9allocatorIcEEEEJS9_S9_EEEmRKT_DpRKT0_, symObjAddr: 0x46600, symBinAddr: 0x100048AF0, symSize: 0x40 }
  - { offsetInCU: 0x5E288, offset: 0x5E288, size: 0x8, addend: 0x0, symName: __ZN8nlohmann16json_abi_v3_11_36detail11concat_intoINSt3__112basic_stringIcNS3_11char_traitsIcEENS3_9allocatorIcEEEES9_JS9_RKS9_ELi0EEEvRT_OT0_DpOT1_, symObjAddr: 0x46640, symBinAddr: 0x100048B30, symSize: 0x40 }
  - { offsetInCU: 0x5E302, offset: 0x5E302, size: 0x8, addend: 0x0, symName: __ZN8nlohmann16json_abi_v3_11_36detail13concat_lengthINSt3__112basic_stringIcNS3_11char_traitsIcEENS3_9allocatorIcEEEEJS9_EEEmRKT_DpRKT0_, symObjAddr: 0x46680, symBinAddr: 0x100048B70, symSize: 0x40 }
  - { offsetInCU: 0x5E350, offset: 0x5E350, size: 0x8, addend: 0x0, symName: __ZN8nlohmann16json_abi_v3_11_36detail13concat_lengthINSt3__112basic_stringIcNS3_11char_traitsIcEENS3_9allocatorIcEEEEJEEEmRKT_DpRKT0_, symObjAddr: 0x466C0, symBinAddr: 0x100048BB0, symSize: 0x30 }
  - { offsetInCU: 0x5E38B, offset: 0x5E38B, size: 0x8, addend: 0x0, symName: __ZN8nlohmann16json_abi_v3_11_36detail13concat_lengthEv, symObjAddr: 0x466F0, symBinAddr: 0x100048BE0, symSize: 0x10 }
  - { offsetInCU: 0x5E3A8, offset: 0x5E3A8, size: 0x8, addend: 0x0, symName: __ZN8nlohmann16json_abi_v3_11_36detail11concat_intoINSt3__112basic_stringIcNS3_11char_traitsIcEENS3_9allocatorIcEEEES9_JRKS9_ELi0EEEvRT_OT0_DpOT1_, symObjAddr: 0x46750, symBinAddr: 0x100048C40, symSize: 0x40 }
  - { offsetInCU: 0x5E40F, offset: 0x5E40F, size: 0x8, addend: 0x0, symName: __ZN8nlohmann16json_abi_v3_11_36detail11concat_intoINSt3__112basic_stringIcNS3_11char_traitsIcEENS3_9allocatorIcEEEERKS9_JELi0EEEvRT_OT0_DpOT1_, symObjAddr: 0x46790, symBinAddr: 0x100048C80, symSize: 0x30 }
  - { offsetInCU: 0x5E462, offset: 0x5E462, size: 0x8, addend: 0x0, symName: __ZN8nlohmann16json_abi_v3_11_36detail11concat_intoINSt3__112basic_stringIcNS3_11char_traitsIcEENS3_9allocatorIcEEEEEEvRT_, symObjAddr: 0x467C0, symBinAddr: 0x100048CB0, symSize: 0x10 }
  - { offsetInCU: 0x5E490, offset: 0x5E490, size: 0x8, addend: 0x0, symName: __ZN8nlohmann16json_abi_v3_11_36detail6concatINSt3__112basic_stringIcNS3_11char_traitsIcEENS3_9allocatorIcEEEEJRA17_KcRKS9_cS9_RA3_SA_EEET_DpOT0_, symObjAddr: 0x467D0, symBinAddr: 0x100048CC0, symSize: 0xE0 }
  - { offsetInCU: 0x5E52B, offset: 0x5E52B, size: 0x8, addend: 0x0, symName: __ZN8nlohmann16json_abi_v3_11_36detail13concat_lengthIJNSt3__112basic_stringIcNS3_11char_traitsIcEENS3_9allocatorIcEEEEcS9_A3_cEEEmPKcDpRKT_, symObjAddr: 0x468B0, symBinAddr: 0x100048DA0, symSize: 0x50 }
  - { offsetInCU: 0x5E5A9, offset: 0x5E5A9, size: 0x8, addend: 0x0, symName: __ZN8nlohmann16json_abi_v3_11_36detail11concat_intoINSt3__112basic_stringIcNS3_11char_traitsIcEENS3_9allocatorIcEEEERA17_KcJRKS9_cS9_RA3_SA_ELi0EEEvRT_OT0_DpOT1_, symObjAddr: 0x46900, symBinAddr: 0x100048DF0, symSize: 0x50 }
  - { offsetInCU: 0x5E649, offset: 0x5E649, size: 0x8, addend: 0x0, symName: __ZN8nlohmann16json_abi_v3_11_36detail13concat_lengthINSt3__112basic_stringIcNS3_11char_traitsIcEENS3_9allocatorIcEEEEJcS9_A3_cEEEmRKT_DpRKT0_, symObjAddr: 0x46950, symBinAddr: 0x100048E40, symSize: 0x50 }
  - { offsetInCU: 0x5E6BD, offset: 0x5E6BD, size: 0x8, addend: 0x0, symName: __ZN8nlohmann16json_abi_v3_11_36detail13concat_lengthIJNSt3__112basic_stringIcNS3_11char_traitsIcEENS3_9allocatorIcEEEEA3_cEEEmcDpRKT_, symObjAddr: 0x469A0, symBinAddr: 0x100048E90, symSize: 0x30 }
  - { offsetInCU: 0x5E712, offset: 0x5E712, size: 0x8, addend: 0x0, symName: __ZN8nlohmann16json_abi_v3_11_36detail13concat_lengthINSt3__112basic_stringIcNS3_11char_traitsIcEENS3_9allocatorIcEEEEJA3_cEEEmRKT_DpRKT0_, symObjAddr: 0x469D0, symBinAddr: 0x100048EC0, symSize: 0x40 }
  - { offsetInCU: 0x5E760, offset: 0x5E760, size: 0x8, addend: 0x0, symName: __ZN8nlohmann16json_abi_v3_11_36detail13concat_lengthIJEEEmPKcDpRKT_, symObjAddr: 0x46A10, symBinAddr: 0x100048F00, symSize: 0x30 }
  - { offsetInCU: 0x5E791, offset: 0x5E791, size: 0x8, addend: 0x0, symName: __ZN8nlohmann16json_abi_v3_11_36detail11concat_intoINSt3__112basic_stringIcNS3_11char_traitsIcEENS3_9allocatorIcEEEERKS9_JcS9_RA3_KcELi0EEEvRT_OT0_DpOT1_, symObjAddr: 0x46A40, symBinAddr: 0x100048F30, symSize: 0x50 }
  - { offsetInCU: 0x5E81E, offset: 0x5E81E, size: 0x8, addend: 0x0, symName: __ZN8nlohmann16json_abi_v3_11_36detail11concat_intoINSt3__112basic_stringIcNS3_11char_traitsIcEENS3_9allocatorIcEEEEcJS9_RA3_KcELi0EEEvRT_OT0_DpOT1_, symObjAddr: 0x46A90, symBinAddr: 0x100048F80, symSize: 0x50 }
  - { offsetInCU: 0x5E898, offset: 0x5E898, size: 0x8, addend: 0x0, symName: __ZN8nlohmann16json_abi_v3_11_36detail11concat_intoINSt3__112basic_stringIcNS3_11char_traitsIcEENS3_9allocatorIcEEEES9_JRA3_KcELi0EEEvRT_OT0_DpOT1_, symObjAddr: 0x46AE0, symBinAddr: 0x100048FD0, symSize: 0x40 }
  - { offsetInCU: 0x5E8FF, offset: 0x5E8FF, size: 0x8, addend: 0x0, symName: __ZN8nlohmann16json_abi_v3_11_36detail11concat_intoINSt3__112basic_stringIcNS3_11char_traitsIcEENS3_9allocatorIcEEEERA3_KcJELi0EEEvRT_OT0_DpOT1_, symObjAddr: 0x46B20, symBinAddr: 0x100049010, symSize: 0x30 }
  - { offsetInCU: 0x5F2AA, offset: 0x5F2AA, size: 0x8, addend: 0x0, symName: __ZN8nlohmann16json_abi_v3_11_36detail6concatINSt3__112basic_stringIcNS3_11char_traitsIcEENS3_9allocatorIcEEEEJRA26_KcS9_cEEET_DpOT0_, symObjAddr: 0x52C90, symBinAddr: 0x100055180, symSize: 0xC0 }
  - { offsetInCU: 0x5F31F, offset: 0x5F31F, size: 0x8, addend: 0x0, symName: __ZN8nlohmann16json_abi_v3_11_36detail6concatINSt3__112basic_stringIcNS3_11char_traitsIcEENS3_9allocatorIcEEEEJRA24_KcS9_EEET_DpOT0_, symObjAddr: 0x537E0, symBinAddr: 0x100055CD0, symSize: 0xB0 }
  - { offsetInCU: 0x5F381, offset: 0x5F381, size: 0x8, addend: 0x0, symName: __ZN8nlohmann16json_abi_v3_11_36detail13concat_lengthIJNSt3__112basic_stringIcNS3_11char_traitsIcEENS3_9allocatorIcEEEEEEEmPKcDpRKT_, symObjAddr: 0x551C0, symBinAddr: 0x1000576B0, symSize: 0x40 }
  - { offsetInCU: 0x5F3C6, offset: 0x5F3C6, size: 0x8, addend: 0x0, symName: __ZN8nlohmann16json_abi_v3_11_36detail11concat_intoINSt3__112basic_stringIcNS3_11char_traitsIcEENS3_9allocatorIcEEEERA24_KcJS9_ELi0EEEvRT_OT0_DpOT1_, symObjAddr: 0x55200, symBinAddr: 0x1000576F0, symSize: 0x40 }
  - { offsetInCU: 0x5F42D, offset: 0x5F42D, size: 0x8, addend: 0x0, symName: __ZN8nlohmann16json_abi_v3_11_36detail11concat_intoINSt3__112basic_stringIcNS3_11char_traitsIcEENS3_9allocatorIcEEEES9_JELi0EEEvRT_OT0_DpOT1_, symObjAddr: 0x55240, symBinAddr: 0x100057730, symSize: 0x30 }
  - { offsetInCU: 0x5F4EF, offset: 0x5F4EF, size: 0x8, addend: 0x0, symName: __ZN8nlohmann16json_abi_v3_11_36detaileqENS1_20primitive_iterator_tES2_, symObjAddr: 0x5AFE0, symBinAddr: 0x10005D4D0, symSize: 0x20 }
  - { offsetInCU: 0x5F598, offset: 0x5F598, size: 0x8, addend: 0x0, symName: __ZN8nlohmann16json_abi_v3_11_36detail6concatINSt3__112basic_stringIcNS3_11char_traitsIcEENS3_9allocatorIcEEEEJRA25_KcPSA_EEET_DpOT0_, symObjAddr: 0x5B560, symBinAddr: 0x10005DA50, symSize: 0xB0 }
  - { offsetInCU: 0x5F5FA, offset: 0x5F5FA, size: 0x8, addend: 0x0, symName: __ZN8nlohmann16json_abi_v3_11_36detail13concat_lengthIJPKcEEEmS4_DpRKT_, symObjAddr: 0x5C410, symBinAddr: 0x10005E900, symSize: 0x40 }
  - { offsetInCU: 0x5F63F, offset: 0x5F63F, size: 0x8, addend: 0x0, symName: __ZN8nlohmann16json_abi_v3_11_36detail11concat_intoINSt3__112basic_stringIcNS3_11char_traitsIcEENS3_9allocatorIcEEEERA25_KcJPSA_ELi0EEEvRT_OT0_DpOT1_, symObjAddr: 0x5C450, symBinAddr: 0x10005E940, symSize: 0x40 }
  - { offsetInCU: 0x5F6A6, offset: 0x5F6A6, size: 0x8, addend: 0x0, symName: __ZN8nlohmann16json_abi_v3_11_36detail11concat_intoINSt3__112basic_stringIcNS3_11char_traitsIcEENS3_9allocatorIcEEEEPKcJELi0EEEvRT_OT0_DpOT1_, symObjAddr: 0x5C490, symBinAddr: 0x10005E980, symSize: 0x30 }
  - { offsetInCU: 0x5F6FA, offset: 0x5F6FA, size: 0x8, addend: 0x0, symName: __ZN8nlohmann16json_abi_v3_11_36detail7to_jsonINS0_10basic_jsonINSt3__13mapENS4_6vectorENS4_12basic_stringIcNS4_11char_traitsIcEENS4_9allocatorIcEEEEbxydSA_NS0_14adl_serializerENS6_IhNSA_IhEEEEvEESC_Li0EEEvRT_RKT0_, symObjAddr: 0x5C880, symBinAddr: 0x10005ED70, symSize: 0x30 }
  - { offsetInCU: 0x5F77A, offset: 0x5F77A, size: 0x8, addend: 0x0, symName: __ZN8nlohmann16json_abi_v3_11_36detail6concatINSt3__112basic_stringIcNS3_11char_traitsIcEENS3_9allocatorIcEEEEJRA23_KcS9_EEET_DpOT0_, symObjAddr: 0x5CDA0, symBinAddr: 0x10005F290, symSize: 0xB0 }
  - { offsetInCU: 0x5F7DC, offset: 0x5F7DC, size: 0x8, addend: 0x0, symName: __ZN8nlohmann16json_abi_v3_11_36detail11concat_intoINSt3__112basic_stringIcNS3_11char_traitsIcEENS3_9allocatorIcEEEERA23_KcJS9_ELi0EEEvRT_OT0_DpOT1_, symObjAddr: 0x5CE50, symBinAddr: 0x10005F340, symSize: 0x40 }
  - { offsetInCU: 0x5F843, offset: 0x5F843, size: 0x8, addend: 0x0, symName: __ZN8nlohmann16json_abi_v3_11_36detail13concat_lengthIJNSt3__112basic_stringIcNS3_11char_traitsIcEENS3_9allocatorIcEEEEcEEEmPKcDpRKT_, symObjAddr: 0x5CF80, symBinAddr: 0x10005F470, symSize: 0x40 }
  - { offsetInCU: 0x5F89B, offset: 0x5F89B, size: 0x8, addend: 0x0, symName: __ZN8nlohmann16json_abi_v3_11_36detail11concat_intoINSt3__112basic_stringIcNS3_11char_traitsIcEENS3_9allocatorIcEEEERA26_KcJS9_cELi0EEEvRT_OT0_DpOT1_, symObjAddr: 0x5CFC0, symBinAddr: 0x10005F4B0, symSize: 0x40 }
  - { offsetInCU: 0x5F915, offset: 0x5F915, size: 0x8, addend: 0x0, symName: __ZN8nlohmann16json_abi_v3_11_36detail13concat_lengthINSt3__112basic_stringIcNS3_11char_traitsIcEENS3_9allocatorIcEEEEJcEEEmRKT_DpRKT0_, symObjAddr: 0x5D000, symBinAddr: 0x10005F4F0, symSize: 0x40 }
  - { offsetInCU: 0x5F963, offset: 0x5F963, size: 0x8, addend: 0x0, symName: __ZN8nlohmann16json_abi_v3_11_36detail13concat_lengthIJEEEmcDpRKT_, symObjAddr: 0x5D040, symBinAddr: 0x10005F530, symSize: 0x20 }
  - { offsetInCU: 0x5F991, offset: 0x5F991, size: 0x8, addend: 0x0, symName: __ZN8nlohmann16json_abi_v3_11_36detail11concat_intoINSt3__112basic_stringIcNS3_11char_traitsIcEENS3_9allocatorIcEEEES9_JcELi0EEEvRT_OT0_DpOT1_, symObjAddr: 0x5D060, symBinAddr: 0x10005F550, symSize: 0x40 }
  - { offsetInCU: 0x5F9F8, offset: 0x5F9F8, size: 0x8, addend: 0x0, symName: __ZN8nlohmann16json_abi_v3_11_36detail11concat_intoINSt3__112basic_stringIcNS3_11char_traitsIcEENS3_9allocatorIcEEEEcJELi0EEEvRT_OT0_DpOT1_, symObjAddr: 0x5D0A0, symBinAddr: 0x10005F590, symSize: 0x40 }
  - { offsetInCU: 0x5FA4C, offset: 0x5FA4C, size: 0x8, addend: 0x0, symName: __ZN8nlohmann16json_abi_v3_11_36detail7to_jsonINS0_10basic_jsonINSt3__13mapENS4_6vectorENS4_12basic_stringIcNS4_11char_traitsIcEENS4_9allocatorIcEEEEbxydSA_NS0_14adl_serializerENS6_IhNSA_IhEEEEvEEdLi0EEEvRT_T0_, symObjAddr: 0x5D760, symBinAddr: 0x10005FC50, symSize: 0x30 }
  - { offsetInCU: 0x5FACD, offset: 0x5FACD, size: 0x8, addend: 0x0, symName: __ZN8nlohmann16json_abi_v3_11_36detail7to_jsonINS0_10basic_jsonINSt3__13mapENS4_6vectorENS4_12basic_stringIcNS4_11char_traitsIcEENS4_9allocatorIcEEEEbxydSA_NS0_14adl_serializerENS6_IhNSA_IhEEEEvEEbLi0EEEvRT_T0_, symObjAddr: 0x5DE60, symBinAddr: 0x100060350, symSize: 0x30 }
  - { offsetInCU: 0x5FB4E, offset: 0x5FB4E, size: 0x8, addend: 0x0, symName: __ZN8nlohmann16json_abi_v3_11_36detail7to_jsonINS0_10basic_jsonINSt3__13mapENS4_6vectorENS4_12basic_stringIcNS4_11char_traitsIcEENS4_9allocatorIcEEEEbxydSA_NS0_14adl_serializerENS6_IhNSA_IhEEEEvEExLi0EEEvRT_T0_, symObjAddr: 0x5EAD0, symBinAddr: 0x100060FC0, symSize: 0x30 }
  - { offsetInCU: 0x5FBCF, offset: 0x5FBCF, size: 0x8, addend: 0x0, symName: __ZN8nlohmann16json_abi_v3_11_36detail7to_jsonINS0_10basic_jsonINSt3__13mapENS4_6vectorENS4_12basic_stringIcNS4_11char_traitsIcEENS4_9allocatorIcEEEEbxydSA_NS0_14adl_serializerENS6_IhNSA_IhEEEEvEEyLi0EEEvRT_T0_, symObjAddr: 0x5F740, symBinAddr: 0x100061C30, symSize: 0x30 }
  - { offsetInCU: 0x5FC4F, offset: 0x5FC4F, size: 0x8, addend: 0x0, symName: __ZN8nlohmann16json_abi_v3_11_36detail6concatINSt3__112basic_stringIcNS3_11char_traitsIcEENS3_9allocatorIcEEEEJS9_RA12_KcS9_RA3_SA_S9_RKS9_EEET_DpOT0_, symObjAddr: 0x5F970, symBinAddr: 0x100061E60, symSize: 0xF0 }
  - { offsetInCU: 0x5FCFD, offset: 0x5FCFD, size: 0x8, addend: 0x0, symName: __ZN8nlohmann16json_abi_v3_11_36detail13concat_lengthINSt3__112basic_stringIcNS3_11char_traitsIcEENS3_9allocatorIcEEEEJA12_cS9_A3_cS9_S9_EEEmRKT_DpRKT0_, symObjAddr: 0x5FB60, symBinAddr: 0x100062050, symSize: 0x60 }
  - { offsetInCU: 0x5FD97, offset: 0x5FD97, size: 0x8, addend: 0x0, symName: __ZN8nlohmann16json_abi_v3_11_36detail11concat_intoINSt3__112basic_stringIcNS3_11char_traitsIcEENS3_9allocatorIcEEEES9_JRA12_KcS9_RA3_SA_S9_RKS9_ELi0EEEvRT_OT0_DpOT1_, symObjAddr: 0x5FBC0, symBinAddr: 0x1000620B0, symSize: 0x60 }
  - { offsetInCU: 0x5FE4A, offset: 0x5FE4A, size: 0x8, addend: 0x0, symName: __ZN8nlohmann16json_abi_v3_11_36detail13concat_lengthIJNSt3__112basic_stringIcNS3_11char_traitsIcEENS3_9allocatorIcEEEEA3_cS9_S9_EEEmPKcDpRKT_, symObjAddr: 0x5FC20, symBinAddr: 0x100062110, symSize: 0x50 }
  - { offsetInCU: 0x5FEC8, offset: 0x5FEC8, size: 0x8, addend: 0x0, symName: __ZN8nlohmann16json_abi_v3_11_36detail13concat_lengthINSt3__112basic_stringIcNS3_11char_traitsIcEENS3_9allocatorIcEEEEJA3_cS9_S9_EEEmRKT_DpRKT0_, symObjAddr: 0x5FC70, symBinAddr: 0x100062160, symSize: 0x50 }
  - { offsetInCU: 0x5FF3C, offset: 0x5FF3C, size: 0x8, addend: 0x0, symName: __ZN8nlohmann16json_abi_v3_11_36detail13concat_lengthIJNSt3__112basic_stringIcNS3_11char_traitsIcEENS3_9allocatorIcEEEES9_EEEmPKcDpRKT_, symObjAddr: 0x5FCC0, symBinAddr: 0x1000621B0, symSize: 0x40 }
  - { offsetInCU: 0x5FF94, offset: 0x5FF94, size: 0x8, addend: 0x0, symName: __ZN8nlohmann16json_abi_v3_11_36detail11concat_intoINSt3__112basic_stringIcNS3_11char_traitsIcEENS3_9allocatorIcEEEERA12_KcJS9_RA3_SA_S9_RKS9_ELi0EEEvRT_OT0_DpOT1_, symObjAddr: 0x5FD00, symBinAddr: 0x1000621F0, symSize: 0x50 }
  - { offsetInCU: 0x60034, offset: 0x60034, size: 0x8, addend: 0x0, symName: __ZN8nlohmann16json_abi_v3_11_36detail11concat_intoINSt3__112basic_stringIcNS3_11char_traitsIcEENS3_9allocatorIcEEEES9_JRA3_KcS9_RKS9_ELi0EEEvRT_OT0_DpOT1_, symObjAddr: 0x5FD50, symBinAddr: 0x100062240, symSize: 0x50 }
  - { offsetInCU: 0x600C1, offset: 0x600C1, size: 0x8, addend: 0x0, symName: __ZN8nlohmann16json_abi_v3_11_36detail11concat_intoINSt3__112basic_stringIcNS3_11char_traitsIcEENS3_9allocatorIcEEEERA3_KcJS9_RKS9_ELi0EEEvRT_OT0_DpOT1_, symObjAddr: 0x5FDA0, symBinAddr: 0x100062290, symSize: 0x40 }
  - { offsetInCU: 0x6013B, offset: 0x6013B, size: 0x8, addend: 0x0, symName: __ZN8nlohmann16json_abi_v3_11_36detail6concatINSt3__112basic_stringIcNS3_11char_traitsIcEENS3_9allocatorIcEEEEJRA10_KcS9_SC_S9_EEET_DpOT0_, symObjAddr: 0x5FDE0, symBinAddr: 0x1000622D0, symSize: 0xD0 }
  - { offsetInCU: 0x601C3, offset: 0x601C3, size: 0x8, addend: 0x0, symName: __ZN8nlohmann16json_abi_v3_11_36detail13concat_lengthIJNSt3__112basic_stringIcNS3_11char_traitsIcEENS3_9allocatorIcEEEEA10_cS9_EEEmPKcDpRKT_, symObjAddr: 0x5FEB0, symBinAddr: 0x1000623A0, symSize: 0x50 }
  - { offsetInCU: 0x6022E, offset: 0x6022E, size: 0x8, addend: 0x0, symName: __ZN8nlohmann16json_abi_v3_11_36detail11concat_intoINSt3__112basic_stringIcNS3_11char_traitsIcEENS3_9allocatorIcEEEERA10_KcJS9_SC_S9_ELi0EEEvRT_OT0_DpOT1_, symObjAddr: 0x5FF00, symBinAddr: 0x1000623F0, symSize: 0x50 }
  - { offsetInCU: 0x602BB, offset: 0x602BB, size: 0x8, addend: 0x0, symName: __ZN8nlohmann16json_abi_v3_11_36detail13concat_lengthINSt3__112basic_stringIcNS3_11char_traitsIcEENS3_9allocatorIcEEEEJA10_cS9_EEEmRKT_DpRKT0_, symObjAddr: 0x5FF50, symBinAddr: 0x100062440, symSize: 0x40 }
  - { offsetInCU: 0x6031C, offset: 0x6031C, size: 0x8, addend: 0x0, symName: __ZN8nlohmann16json_abi_v3_11_36detail11concat_intoINSt3__112basic_stringIcNS3_11char_traitsIcEENS3_9allocatorIcEEEES9_JRA10_KcS9_ELi0EEEvRT_OT0_DpOT1_, symObjAddr: 0x5FF90, symBinAddr: 0x100062480, symSize: 0x40 }
  - { offsetInCU: 0x60396, offset: 0x60396, size: 0x8, addend: 0x0, symName: __ZN8nlohmann16json_abi_v3_11_36detail11concat_intoINSt3__112basic_stringIcNS3_11char_traitsIcEENS3_9allocatorIcEEEERA10_KcJS9_ELi0EEEvRT_OT0_DpOT1_, symObjAddr: 0x5FFD0, symBinAddr: 0x1000624C0, symSize: 0x40 }
  - { offsetInCU: 0x603FD, offset: 0x603FD, size: 0x8, addend: 0x0, symName: __ZN8nlohmann16json_abi_v3_11_36detail6concatINSt3__112basic_stringIcNS3_11char_traitsIcEENS3_9allocatorIcEEEEJRA15_KcRKS9_cEEET_DpOT0_, symObjAddr: 0x60090, symBinAddr: 0x100062580, symSize: 0xC0 }
  - { offsetInCU: 0x60472, offset: 0x60472, size: 0x8, addend: 0x0, symName: __ZN8nlohmann16json_abi_v3_11_36detail6concatINSt3__112basic_stringIcNS3_11char_traitsIcEENS3_9allocatorIcEEEEJPKcRA15_SA_S9_cEEET_DpOT0_, symObjAddr: 0x60180, symBinAddr: 0x100062670, symSize: 0xD0 }
  - { offsetInCU: 0x604FA, offset: 0x604FA, size: 0x8, addend: 0x0, symName: __ZN8nlohmann16json_abi_v3_11_36detail6concatINSt3__112basic_stringIcNS3_11char_traitsIcEENS3_9allocatorIcEEEEJRA12_KcPSA_EEET_DpOT0_, symObjAddr: 0x60270, symBinAddr: 0x100062760, symSize: 0xB0 }
  - { offsetInCU: 0x6055C, offset: 0x6055C, size: 0x8, addend: 0x0, symName: __ZN8nlohmann16json_abi_v3_11_36detail11concat_intoINSt3__112basic_stringIcNS3_11char_traitsIcEENS3_9allocatorIcEEEERA15_KcJRKS9_cELi0EEEvRT_OT0_DpOT1_, symObjAddr: 0x604A0, symBinAddr: 0x100062990, symSize: 0x40 }
  - { offsetInCU: 0x605D6, offset: 0x605D6, size: 0x8, addend: 0x0, symName: __ZN8nlohmann16json_abi_v3_11_36detail11concat_intoINSt3__112basic_stringIcNS3_11char_traitsIcEENS3_9allocatorIcEEEERKS9_JcELi0EEEvRT_OT0_DpOT1_, symObjAddr: 0x604E0, symBinAddr: 0x1000629D0, symSize: 0x40 }
  - { offsetInCU: 0x6063D, offset: 0x6063D, size: 0x8, addend: 0x0, symName: __ZN8nlohmann16json_abi_v3_11_36detail13concat_lengthIJA15_cNSt3__112basic_stringIcNS4_11char_traitsIcEENS4_9allocatorIcEEEEcEEEmPKcDpRKT_, symObjAddr: 0x60520, symBinAddr: 0x100062A10, symSize: 0x50 }
  - { offsetInCU: 0x606A8, offset: 0x606A8, size: 0x8, addend: 0x0, symName: __ZN8nlohmann16json_abi_v3_11_36detail11concat_intoINSt3__112basic_stringIcNS3_11char_traitsIcEENS3_9allocatorIcEEEEPKcJRA15_SA_S9_cELi0EEEvRT_OT0_DpOT1_, symObjAddr: 0x60570, symBinAddr: 0x100062A60, symSize: 0x50 }
  - { offsetInCU: 0x60735, offset: 0x60735, size: 0x8, addend: 0x0, symName: __ZN8nlohmann16json_abi_v3_11_36detail11concat_intoINSt3__112basic_stringIcNS3_11char_traitsIcEENS3_9allocatorIcEEEERA15_KcJS9_cELi0EEEvRT_OT0_DpOT1_, symObjAddr: 0x605C0, symBinAddr: 0x100062AB0, symSize: 0x40 }
  - { offsetInCU: 0x607AF, offset: 0x607AF, size: 0x8, addend: 0x0, symName: __ZN8nlohmann16json_abi_v3_11_36detail11concat_intoINSt3__112basic_stringIcNS3_11char_traitsIcEENS3_9allocatorIcEEEERA12_KcJPSA_ELi0EEEvRT_OT0_DpOT1_, symObjAddr: 0x60600, symBinAddr: 0x100062AF0, symSize: 0x40 }
  - { offsetInCU: 0x60816, offset: 0x60816, size: 0x8, addend: 0x0, symName: __ZN8nlohmann16json_abi_v3_11_36detail6concatINSt3__112basic_stringIcNS3_11char_traitsIcEENS3_9allocatorIcEEEEJRA51_KcPSA_EEET_DpOT0_, symObjAddr: 0x630A0, symBinAddr: 0x100065590, symSize: 0xB0 }
  - { offsetInCU: 0x60878, offset: 0x60878, size: 0x8, addend: 0x0, symName: __ZN8nlohmann16json_abi_v3_11_36detail11concat_intoINSt3__112basic_stringIcNS3_11char_traitsIcEENS3_9allocatorIcEEEERA51_KcJPSA_ELi0EEEvRT_OT0_DpOT1_, symObjAddr: 0x634E0, symBinAddr: 0x1000659D0, symSize: 0x40 }
  - { offsetInCU: 0x635D3, offset: 0x635D3, size: 0x8, addend: 0x0, symName: __ZNSt3__16vectorINS_10unique_ptrIN6spdlog7details14flag_formatterENS_14default_deleteIS4_EEEENS_9allocatorIS7_EEE26__swap_out_circular_bufferERNS_14__split_bufferIS7_RS9_EE, symObjAddr: 0x3B50, symBinAddr: 0x100006040, symSize: 0x130 }
  - { offsetInCU: 0x63786, offset: 0x63786, size: 0x8, addend: 0x0, symName: __ZNKSt3__16chrono15__duration_castINS0_8durationIxNS_5ratioILl1ELl1000000EEEEENS2_IxNS3_ILl1ELl1EEEEES4_Lb1ELb0EEclB7v160006ERKS5_, symObjAddr: 0x75A0, symBinAddr: 0x100009A90, symSize: 0x50 }
  - { offsetInCU: 0x6382C, offset: 0x6382C, size: 0x8, addend: 0x0, symName: __ZNKSt3__16chrono15__duration_castINS0_8durationIxNS_5ratioILl1ELl1000000EEEEENS2_IxNS3_ILl1ELl1000EEEEES6_Lb1ELb0EEclB7v160006ERKS5_, symObjAddr: 0x8030, symBinAddr: 0x10000A520, symSize: 0x50 }
  - { offsetInCU: 0x63876, offset: 0x63876, size: 0x8, addend: 0x0, symName: __ZNKSt3__16chrono15__duration_castINS0_8durationIxNS_5ratioILl1ELl1EEEEENS2_IxNS3_ILl1ELl1000EEEEENS3_ILl1000ELl1EEELb0ELb1EEclB7v160006ERKS5_, symObjAddr: 0x8080, symBinAddr: 0x10000A570, symSize: 0x40 }
  - { offsetInCU: 0x652A4, offset: 0x652A4, size: 0x8, addend: 0x0, symName: __ZNKSt3__16chrono15__duration_castINS0_8durationIxNS_5ratioILl1ELl1EEEEENS2_IxNS3_ILl1ELl1000000EEEEENS3_ILl1000000ELl1EEELb0ELb1EEclB7v160006ERKS5_, symObjAddr: 0x1ABE0, symBinAddr: 0x10001D0D0, symSize: 0x40 }
  - { offsetInCU: 0x653A7, offset: 0x653A7, size: 0x8, addend: 0x0, symName: __ZNKSt3__16chrono15__duration_castINS0_8durationIxNS_5ratioILl1ELl1000000EEEEENS2_IxNS3_ILl1ELl1000000000EEEEENS3_ILl1000ELl1EEELb0ELb1EEclB7v160006ERKS5_, symObjAddr: 0x1B3F0, symBinAddr: 0x10001D8E0, symSize: 0x40 }
  - { offsetInCU: 0x653F1, offset: 0x653F1, size: 0x8, addend: 0x0, symName: __ZNKSt3__16chrono15__duration_castINS0_8durationIxNS_5ratioILl1ELl1EEEEENS2_IxNS3_ILl1ELl1000000000EEEEENS3_ILl1000000000ELl1EEELb0ELb1EEclB7v160006ERKS5_, symObjAddr: 0x1B430, symBinAddr: 0x10001D920, symSize: 0x40 }
  - { offsetInCU: 0x6589C, offset: 0x6589C, size: 0x8, addend: 0x0, symName: __ZNKSt3__16chrono13__duration_ltINS0_8durationIxNS_5ratioILl1ELl1000000EEEEENS2_IxNS3_ILl1ELl1EEEEEEclB7v160006ERKS5_RKS7_, symObjAddr: 0x1DBF0, symBinAddr: 0x1000200E0, symSize: 0x60 }
  - { offsetInCU: 0x6817A, offset: 0x6817A, size: 0x8, addend: 0x0, symName: __ZNSt3__16vectorIN8nlohmann16json_abi_v3_11_310basic_jsonINS_3mapES0_NS_12basic_stringIcNS_11char_traitsIcEENS_9allocatorIcEEEEbxydS8_NS2_14adl_serializerENS0_IhNS8_IhEEEEvEENS8_ISE_EEE26__swap_out_circular_bufferERNS_14__split_bufferISE_RSF_EE, symObjAddr: 0x3BF00, symBinAddr: 0x10003E3F0, symSize: 0x130 }
  - { offsetInCU: 0x68567, offset: 0x68567, size: 0x8, addend: 0x0, symName: __ZNSt3__16vectorIcNS_9allocatorIcEEE26__swap_out_circular_bufferERNS_14__split_bufferIcRS2_EE, symObjAddr: 0x49C00, symBinAddr: 0x10004C0F0, symSize: 0x130 }
  - { offsetInCU: 0x68901, offset: 0x68901, size: 0x8, addend: 0x0, symName: __ZNSt3__16vectorIPN8nlohmann16json_abi_v3_11_310basic_jsonINS_3mapES0_NS_12basic_stringIcNS_11char_traitsIcEENS_9allocatorIcEEEEbxydS8_NS2_14adl_serializerENS0_IhNS8_IhEEEEvEENS8_ISF_EEE26__swap_out_circular_bufferERNS_14__split_bufferISF_RSG_EE, symObjAddr: 0x53EF0, symBinAddr: 0x1000563E0, symSize: 0x130 }
  - { offsetInCU: 0x68F6C, offset: 0x68F6C, size: 0x8, addend: 0x0, symName: __Z7isdigiti, symObjAddr: 0x10380, symBinAddr: 0x100012870, symSize: 0x20 }
  - { offsetInCU: 0x6AF2F, offset: 0x6AF2F, size: 0x8, addend: 0x0, symName: __ZNK6spdlog9spdlog_ex4whatEv, symObjAddr: 0x0, symBinAddr: 0x1000024F0, symSize: 0x20 }
  - { offsetInCU: 0x6AF57, offset: 0x6AF57, size: 0x8, addend: 0x0, symName: __ZNKSt3__112basic_stringIcNS_11char_traitsIcEENS_9allocatorIcEEE5c_strB7v160006Ev, symObjAddr: 0x20, symBinAddr: 0x100002510, symSize: 0x20 }
  - { offsetInCU: 0x6AF7D, offset: 0x6AF7D, size: 0x8, addend: 0x0, symName: __ZNK6spdlog17pattern_formatter5cloneEv, symObjAddr: 0x40, symBinAddr: 0x100002530, symSize: 0x1E0 }
  - { offsetInCU: 0x6B013, offset: 0x6B013, size: 0x8, addend: 0x0, symName: __ZNSt3__113unordered_mapIcNS_10unique_ptrIN6spdlog21custom_flag_formatterENS_14default_deleteIS3_EEEENS_4hashIcEENS_8equal_toIcEENS_9allocatorINS_4pairIKcS6_EEEEEC1B7v160006Ev, symObjAddr: 0x220, symBinAddr: 0x100002710, symSize: 0x20 }
  - { offsetInCU: 0x6B03D, offset: 0x6B03D, size: 0x8, addend: 0x0, symName: __ZNKSt3__113unordered_mapIcNS_10unique_ptrIN6spdlog21custom_flag_formatterENS_14default_deleteIS3_EEEENS_4hashIcEENS_8equal_toIcEENS_9allocatorINS_4pairIKcS6_EEEEE5beginB7v160006Ev, symObjAddr: 0x240, symBinAddr: 0x100002730, symSize: 0x30 }
  - { offsetInCU: 0x6B063, offset: 0x6B063, size: 0x8, addend: 0x0, symName: __ZNKSt3__113unordered_mapIcNS_10unique_ptrIN6spdlog21custom_flag_formatterENS_14default_deleteIS3_EEEENS_4hashIcEENS_8equal_toIcEENS_9allocatorINS_4pairIKcS6_EEEEE3endB7v160006Ev, symObjAddr: 0x270, symBinAddr: 0x100002760, symSize: 0x30 }
  - { offsetInCU: 0x6B089, offset: 0x6B089, size: 0x8, addend: 0x0, symName: __ZNKSt3__125__hash_map_const_iteratorINS_21__hash_const_iteratorIPNS_11__hash_nodeINS_17__hash_value_typeIcNS_10unique_ptrIN6spdlog21custom_flag_formatterENS_14default_deleteIS6_EEEEEEPvEEEEEdeB7v160006Ev, symObjAddr: 0x2D0, symBinAddr: 0x1000027C0, symSize: 0x30 }
  - { offsetInCU: 0x6B0AF, offset: 0x6B0AF, size: 0x8, addend: 0x0, symName: __ZNKSt3__110unique_ptrIN6spdlog21custom_flag_formatterENS_14default_deleteIS2_EEEptB7v160006Ev, symObjAddr: 0x300, symBinAddr: 0x1000027F0, symSize: 0x20 }
  - { offsetInCU: 0x6B0D5, offset: 0x6B0D5, size: 0x8, addend: 0x0, symName: __ZNSt3__113unordered_mapIcNS_10unique_ptrIN6spdlog21custom_flag_formatterENS_14default_deleteIS3_EEEENS_4hashIcEENS_8equal_toIcEENS_9allocatorINS_4pairIKcS6_EEEEEixERSD_, symObjAddr: 0x320, symBinAddr: 0x100002810, symSize: 0x70 }
  - { offsetInCU: 0x6B10C, offset: 0x6B10C, size: 0x8, addend: 0x0, symName: __ZNSt3__110unique_ptrIN6spdlog21custom_flag_formatterENS_14default_deleteIS2_EEEaSB7v160006EOS5_, symObjAddr: 0x390, symBinAddr: 0x100002880, symSize: 0x50 }
  - { offsetInCU: 0x6B140, offset: 0x6B140, size: 0x8, addend: 0x0, symName: __ZNSt3__110unique_ptrIN6spdlog21custom_flag_formatterENS_14default_deleteIS2_EEED1B7v160006Ev, symObjAddr: 0x3E0, symBinAddr: 0x1000028D0, symSize: 0x20 }
  - { offsetInCU: 0x6B16A, offset: 0x6B16A, size: 0x8, addend: 0x0, symName: __ZNSt3__125__hash_map_const_iteratorINS_21__hash_const_iteratorIPNS_11__hash_nodeINS_17__hash_value_typeIcNS_10unique_ptrIN6spdlog21custom_flag_formatterENS_14default_deleteIS6_EEEEEEPvEEEEEppB7v160006Ev, symObjAddr: 0x400, symBinAddr: 0x1000028F0, symSize: 0x30 }
  - { offsetInCU: 0x6B190, offset: 0x6B190, size: 0x8, addend: 0x0, symName: __ZNKSt3__110unique_ptrIN6spdlog17pattern_formatterENS_14default_deleteIS2_EEEptB7v160006Ev, symObjAddr: 0x5B0, symBinAddr: 0x100002AA0, symSize: 0x20 }
  - { offsetInCU: 0x6B1B6, offset: 0x6B1B6, size: 0x8, addend: 0x0, symName: __ZN6spdlog17pattern_formatter14need_localtimeEb, symObjAddr: 0x5D0, symBinAddr: 0x100002AC0, symSize: 0x20 }
  - { offsetInCU: 0x6B1EE, offset: 0x6B1EE, size: 0x8, addend: 0x0, symName: __ZNSt3__110unique_ptrIN6spdlog9formatterENS_14default_deleteIS2_EEEC1B7v160006INS1_17pattern_formatterENS3_IS7_EEvvEEONS0_IT_T0_EE, symObjAddr: 0x5F0, symBinAddr: 0x100002AE0, symSize: 0x30 }
  - { offsetInCU: 0x6B23A, offset: 0x6B23A, size: 0x8, addend: 0x0, symName: __ZNSt3__110unique_ptrIN6spdlog17pattern_formatterENS_14default_deleteIS2_EEED1B7v160006Ev, symObjAddr: 0x620, symBinAddr: 0x100002B10, symSize: 0x20 }
  - { offsetInCU: 0x6B264, offset: 0x6B264, size: 0x8, addend: 0x0, symName: __ZNSt3__113unordered_mapIcNS_10unique_ptrIN6spdlog21custom_flag_formatterENS_14default_deleteIS3_EEEENS_4hashIcEENS_8equal_toIcEENS_9allocatorINS_4pairIKcS6_EEEEED1B7v160006Ev, symObjAddr: 0x640, symBinAddr: 0x100002B30, symSize: 0x20 }
  - { offsetInCU: 0x6B28E, offset: 0x6B28E, size: 0x8, addend: 0x0, symName: __ZN6spdlog6logger5cloneENSt3__112basic_stringIcNS1_11char_traitsIcEENS1_9allocatorIcEEEE, symObjAddr: 0x660, symBinAddr: 0x100002B50, symSize: 0x70 }
  - { offsetInCU: 0x6B2D4, offset: 0x6B2D4, size: 0x8, addend: 0x0, symName: __ZNKSt3__110shared_ptrIN6spdlog6loggerEEptB7v160006Ev, symObjAddr: 0x710, symBinAddr: 0x100002C00, symSize: 0x20 }
  - { offsetInCU: 0x6B2FA, offset: 0x6B2FA, size: 0x8, addend: 0x0, symName: __ZNSt3__112basic_stringIcNS_11char_traitsIcEENS_9allocatorIcEEEaSB7v160006EOS5_, symObjAddr: 0x730, symBinAddr: 0x100002C20, symSize: 0x30 }
  - { offsetInCU: 0x6B32F, offset: 0x6B32F, size: 0x8, addend: 0x0, symName: __ZNSt3__110shared_ptrIN6spdlog6loggerEED1B7v160006Ev, symObjAddr: 0x760, symBinAddr: 0x100002C50, symSize: 0x20 }
  - { offsetInCU: 0x6B359, offset: 0x6B359, size: 0x8, addend: 0x0, symName: _main, symObjAddr: 0x780, symBinAddr: 0x100002C70, symSize: 0x2C0 }
  - { offsetInCU: 0x6B470, offset: 0x6B470, size: 0x8, addend: 0x0, symName: __ZNSt3__114basic_ifstreamIcNS_11char_traitsIcEEEC1EPKcj, symObjAddr: 0xA70, symBinAddr: 0x100002F60, symSize: 0x160 }
  - { offsetInCU: 0x6B4BA, offset: 0x6B4BA, size: 0x8, addend: 0x0, symName: __ZNKSt3__114basic_ifstreamIcNS_11char_traitsIcEEE7is_openEv, symObjAddr: 0xBD0, symBinAddr: 0x1000030C0, symSize: 0x30 }
  - { offsetInCU: 0x6B4E2, offset: 0x6B4E2, size: 0x8, addend: 0x0, symName: __ZNSt3__113basic_ostreamIcNS_11char_traitsIcEEElsB7v160006EPFRS3_S4_E, symObjAddr: 0xC40, symBinAddr: 0x100003130, symSize: 0x20 }
  - { offsetInCU: 0x6B51C, offset: 0x6B51C, size: 0x8, addend: 0x0, symName: __ZN8nlohmann16json_abi_v3_11_310basic_jsonINSt3__13mapENS2_6vectorENS2_12basic_stringIcNS2_11char_traitsIcEENS2_9allocatorIcEEEEbxydS8_NS0_14adl_serializerENS4_IhNS8_IhEEEEvE5parseIRNS2_14basic_ifstreamIcS7_EEEESE_OT_NS2_8functionIFbiNS0_6detail13parse_event_tERSE_EEEbb, symObjAddr: 0xCB0, symBinAddr: 0x1000031A0, symSize: 0x200 }
  - { offsetInCU: 0x6B58C, offset: 0x6B58C, size: 0x8, addend: 0x0, symName: __ZNSt3__18functionIFbiN8nlohmann16json_abi_v3_11_36detail13parse_event_tERNS2_10basic_jsonINS_3mapENS_6vectorENS_12basic_stringIcNS_11char_traitsIcEENS_9allocatorIcEEEEbxydSB_NS2_14adl_serializerENS7_IhNSB_IhEEEEvEEEEC1B7v160006EDn, symObjAddr: 0xEB0, symBinAddr: 0x1000033A0, symSize: 0x30 }
  - { offsetInCU: 0x6B5C2, offset: 0x6B5C2, size: 0x8, addend: 0x0, symName: __ZNSt3__18functionIFbiN8nlohmann16json_abi_v3_11_36detail13parse_event_tERNS2_10basic_jsonINS_3mapENS_6vectorENS_12basic_stringIcNS_11char_traitsIcEENS_9allocatorIcEEEEbxydSB_NS2_14adl_serializerENS7_IhNSB_IhEEEEvEEEED1Ev, symObjAddr: 0xEE0, symBinAddr: 0x1000033D0, symSize: 0x20 }
  - { offsetInCU: 0x6B5EE, offset: 0x6B5EE, size: 0x8, addend: 0x0, symName: __ZN8nlohmann16json_abi_v3_11_310basic_jsonINSt3__13mapENS2_6vectorENS2_12basic_stringIcNS2_11char_traitsIcEENS2_9allocatorIcEEEEbxydS8_NS0_14adl_serializerENS4_IhNS8_IhEEEEvEixIKcEERSE_PT_, symObjAddr: 0xF00, symBinAddr: 0x1000033F0, symSize: 0x70 }
  - { offsetInCU: 0x6B62C, offset: 0x6B62C, size: 0x8, addend: 0x0, symName: __ZNSt3__16vectorIPN3ast11DeclarationENS_9allocatorIS3_EEEaSB7v160006EOS6_, symObjAddr: 0xF70, symBinAddr: 0x100003460, symSize: 0x30 }
  - { offsetInCU: 0x6B663, offset: 0x6B663, size: 0x8, addend: 0x0, symName: __ZNSt3__16vectorIPN3ast11DeclarationENS_9allocatorIS3_EEED1B7v160006Ev, symObjAddr: 0xFA0, symBinAddr: 0x100003490, symSize: 0x20 }
  - { offsetInCU: 0x6B68D, offset: 0x6B68D, size: 0x8, addend: 0x0, symName: __ZNSt3__114basic_ifstreamIcNS_11char_traitsIcEEE5closeEv, symObjAddr: 0xFC0, symBinAddr: 0x1000034B0, symSize: 0x50 }
  - { offsetInCU: 0x6B6B5, offset: 0x6B6B5, size: 0x8, addend: 0x0, symName: __ZN8nlohmann16json_abi_v3_11_310basic_jsonINSt3__13mapENS2_6vectorENS2_12basic_stringIcNS2_11char_traitsIcEENS2_9allocatorIcEEEEbxydS8_NS0_14adl_serializerENS4_IhNS8_IhEEEEvED1Ev, symObjAddr: 0x1010, symBinAddr: 0x100003500, symSize: 0x20 }
  - { offsetInCU: 0x6B6E5, offset: 0x6B6E5, size: 0x8, addend: 0x0, symName: __ZNSt3__114basic_ifstreamIcNS_11char_traitsIcEEED1Ev, symObjAddr: 0x1030, symBinAddr: 0x100003520, symSize: 0x40 }
  - { offsetInCU: 0x6B712, offset: 0x6B712, size: 0x8, addend: 0x0, symName: __ZN6spdlog9spdlog_exD1Ev, symObjAddr: 0x1070, symBinAddr: 0x100003560, symSize: 0x20 }
  - { offsetInCU: 0x6B73F, offset: 0x6B73F, size: 0x8, addend: 0x0, symName: __ZN6spdlog9spdlog_exD0Ev, symObjAddr: 0x1090, symBinAddr: 0x100003580, symSize: 0x30 }
  - { offsetInCU: 0x6B76C, offset: 0x6B76C, size: 0x8, addend: 0x0, symName: __ZN6spdlog6loggerD1Ev, symObjAddr: 0x10C0, symBinAddr: 0x1000035B0, symSize: 0x20 }
  - { offsetInCU: 0x6B796, offset: 0x6B796, size: 0x8, addend: 0x0, symName: __ZN6spdlog6loggerD0Ev, symObjAddr: 0x10E0, symBinAddr: 0x1000035D0, symSize: 0x30 }
  - { offsetInCU: 0x6B887, offset: 0x6B887, size: 0x8, addend: 0x0, symName: __ZN6spdlog6logger8sink_it_ERKNS_7details7log_msgE, symObjAddr: 0x1110, symBinAddr: 0x100003600, symSize: 0x360 }
  - { offsetInCU: 0x6B97B, offset: 0x6B97B, size: 0x8, addend: 0x0, symName: __ZN6spdlog6logger6flush_Ev, symObjAddr: 0x1470, symBinAddr: 0x100003960, symSize: 0x1D0 }
  - { offsetInCU: 0x6B9FC, offset: 0x6B9FC, size: 0x8, addend: 0x0, symName: __ZN6spdlog17pattern_formatterD1Ev, symObjAddr: 0x1640, symBinAddr: 0x100003B30, symSize: 0x20 }
  - { offsetInCU: 0x6BA28, offset: 0x6BA28, size: 0x8, addend: 0x0, symName: __ZN6spdlog17pattern_formatterD0Ev, symObjAddr: 0x1660, symBinAddr: 0x100003B50, symSize: 0x30 }
  - { offsetInCU: 0x6BA54, offset: 0x6BA54, size: 0x8, addend: 0x0, symName: __ZN6spdlog17pattern_formatter6formatERKNS_7details7log_msgERN3fmt3v1119basic_memory_bufferIcLm250ENSt3__19allocatorIcEEEE, symObjAddr: 0x1690, symBinAddr: 0x100003B80, symSize: 0x170 }
  - { offsetInCU: 0x6BB0E, offset: 0x6BB0E, size: 0x8, addend: 0x0, symName: __ZN6spdlog7details8registry9set_levelENS_5level10level_enumE, symObjAddr: 0x18A0, symBinAddr: 0x100003D90, symSize: 0x100 }
  - { offsetInCU: 0x6BBA4, offset: 0x6BBA4, size: 0x8, addend: 0x0, symName: __ZN6spdlog7details8registryC1Ev, symObjAddr: 0x19A0, symBinAddr: 0x100003E90, symSize: 0x20 }
  - { offsetInCU: 0x6BBD0, offset: 0x6BBD0, size: 0x8, addend: 0x0, symName: __ZN6spdlog7details8registryD1Ev, symObjAddr: 0x19C0, symBinAddr: 0x100003EB0, symSize: 0x20 }
  - { offsetInCU: 0x6BBFC, offset: 0x6BBFC, size: 0x8, addend: 0x0, symName: __ZN6spdlog7details8registryC2Ev, symObjAddr: 0x19E0, symBinAddr: 0x100003ED0, symSize: 0x3A0 }
  - { offsetInCU: 0x6BC4D, offset: 0x6BC4D, size: 0x8, addend: 0x0, symName: __ZNSt3__15mutexC1B7v160006Ev, symObjAddr: 0x1D80, symBinAddr: 0x100004270, symSize: 0x20 }
  - { offsetInCU: 0x6BC77, offset: 0x6BC77, size: 0x8, addend: 0x0, symName: __ZNSt3__113unordered_mapINS_12basic_stringIcNS_11char_traitsIcEENS_9allocatorIcEEEENS_10shared_ptrIN6spdlog6loggerEEENS_4hashIS6_EENS_8equal_toIS6_EENS4_INS_4pairIKS6_SA_EEEEEC1B7v160006Ev, symObjAddr: 0x1DA0, symBinAddr: 0x100004290, symSize: 0x20 }
  - { offsetInCU: 0x6BCA1, offset: 0x6BCA1, size: 0x8, addend: 0x0, symName: __ZNSt3__113unordered_mapINS_12basic_stringIcNS_11char_traitsIcEENS_9allocatorIcEEEEN6spdlog5level10level_enumENS_4hashIS6_EENS_8equal_toIS6_EENS4_INS_4pairIKS6_S9_EEEEEC1B7v160006Ev, symObjAddr: 0x1DC0, symBinAddr: 0x1000042B0, symSize: 0x20 }
  - { offsetInCU: 0x6BCD1, offset: 0x6BCD1, size: 0x8, addend: 0x0, symName: __ZNSt3__112basic_stringIcNS_11char_traitsIcEENS_9allocatorIcEEEC1B7v160006IDnEEPKc, symObjAddr: 0x1DE0, symBinAddr: 0x1000042D0, symSize: 0x30 }
  - { offsetInCU: 0x6BD0F, offset: 0x6BD0F, size: 0x8, addend: 0x0, symName: __ZN6spdlog17pattern_formatterC1ENS_17pattern_time_typeENSt3__112basic_stringIcNS2_11char_traitsIcEENS2_9allocatorIcEEEE, symObjAddr: 0x1E10, symBinAddr: 0x100004300, symSize: 0x30 }
  - { offsetInCU: 0x6BD5B, offset: 0x6BD5B, size: 0x8, addend: 0x0, symName: __ZNSt3__110unique_ptrIN6spdlog9formatterENS_14default_deleteIS2_EEEC1B7v160006ILb1EvEEPS2_, symObjAddr: 0x1E40, symBinAddr: 0x100004330, symSize: 0x30 }
  - { offsetInCU: 0x6BD9E, offset: 0x6BD9E, size: 0x8, addend: 0x0, symName: __ZNSt3__18functionIFvRKNS_12basic_stringIcNS_11char_traitsIcEENS_9allocatorIcEEEEEEC1B7v160006Ev, symObjAddr: 0x1E70, symBinAddr: 0x100004360, symSize: 0x20 }
  - { offsetInCU: 0x6BDC8, offset: 0x6BDC8, size: 0x8, addend: 0x0, symName: __ZNSt3__110shared_ptrIN6spdlog7details11thread_poolEEC1B7v160006Ev, symObjAddr: 0x1E90, symBinAddr: 0x100004380, symSize: 0x20 }
  - { offsetInCU: 0x6BDF2, offset: 0x6BDF2, size: 0x8, addend: 0x0, symName: __ZNSt3__110unique_ptrIN6spdlog7details15periodic_workerENS_14default_deleteIS3_EEEC1B7v160006ILb1EvEEv, symObjAddr: 0x1EB0, symBinAddr: 0x1000043A0, symSize: 0x20 }
  - { offsetInCU: 0x6BE27, offset: 0x6BE27, size: 0x8, addend: 0x0, symName: __ZNSt3__110shared_ptrIN6spdlog6loggerEEC1B7v160006Ev, symObjAddr: 0x1ED0, symBinAddr: 0x1000043C0, symSize: 0x20 }
  - { offsetInCU: 0x6BE51, offset: 0x6BE51, size: 0x8, addend: 0x0, symName: __ZNSt3__110shared_ptrIN6spdlog6loggerEEaSB7v160006EOS3_, symObjAddr: 0x1F80, symBinAddr: 0x100004470, symSize: 0x50 }
  - { offsetInCU: 0x6BE86, offset: 0x6BE86, size: 0x8, addend: 0x0, symName: __ZNSt3__113unordered_mapINS_12basic_stringIcNS_11char_traitsIcEENS_9allocatorIcEEEENS_10shared_ptrIN6spdlog6loggerEEENS_4hashIS6_EENS_8equal_toIS6_EENS4_INS_4pairIKS6_SA_EEEEEixEOS6_, symObjAddr: 0x1FD0, symBinAddr: 0x1000044C0, symSize: 0x70 }
  - { offsetInCU: 0x6BEBD, offset: 0x6BEBD, size: 0x8, addend: 0x0, symName: __ZNSt3__110shared_ptrIN6spdlog6loggerEEaSB7v160006ERKS3_, symObjAddr: 0x2040, symBinAddr: 0x100004530, symSize: 0x50 }
  - { offsetInCU: 0x6BF1B, offset: 0x6BF1B, size: 0x8, addend: 0x0, symName: __ZNSt3__110shared_ptrIN6spdlog5sinks21ansicolor_stdout_sinkINS1_7details13console_mutexEEEED1B7v160006Ev, symObjAddr: 0x2090, symBinAddr: 0x100004580, symSize: 0x20 }
  - { offsetInCU: 0x6BF45, offset: 0x6BF45, size: 0x8, addend: 0x0, symName: __ZNSt3__110unique_ptrIN6spdlog7details15periodic_workerENS_14default_deleteIS3_EEED1B7v160006Ev, symObjAddr: 0x20B0, symBinAddr: 0x1000045A0, symSize: 0x20 }
  - { offsetInCU: 0x6BF6F, offset: 0x6BF6F, size: 0x8, addend: 0x0, symName: __ZNSt3__110shared_ptrIN6spdlog7details11thread_poolEED1B7v160006Ev, symObjAddr: 0x20D0, symBinAddr: 0x1000045C0, symSize: 0x20 }
  - { offsetInCU: 0x6BF99, offset: 0x6BF99, size: 0x8, addend: 0x0, symName: __ZNSt3__18functionIFvRKNS_12basic_stringIcNS_11char_traitsIcEENS_9allocatorIcEEEEEED1Ev, symObjAddr: 0x20F0, symBinAddr: 0x1000045E0, symSize: 0x20 }
  - { offsetInCU: 0x6BFC5, offset: 0x6BFC5, size: 0x8, addend: 0x0, symName: __ZNSt3__110unique_ptrIN6spdlog9formatterENS_14default_deleteIS2_EEED1B7v160006Ev, symObjAddr: 0x2110, symBinAddr: 0x100004600, symSize: 0x20 }
  - { offsetInCU: 0x6BFEF, offset: 0x6BFEF, size: 0x8, addend: 0x0, symName: __ZNSt3__113unordered_mapINS_12basic_stringIcNS_11char_traitsIcEENS_9allocatorIcEEEEN6spdlog5level10level_enumENS_4hashIS6_EENS_8equal_toIS6_EENS4_INS_4pairIKS6_S9_EEEEED1B7v160006Ev, symObjAddr: 0x2130, symBinAddr: 0x100004620, symSize: 0x20 }
  - { offsetInCU: 0x6C019, offset: 0x6C019, size: 0x8, addend: 0x0, symName: __ZNSt3__113unordered_mapINS_12basic_stringIcNS_11char_traitsIcEENS_9allocatorIcEEEENS_10shared_ptrIN6spdlog6loggerEEENS_4hashIS6_EENS_8equal_toIS6_EENS4_INS_4pairIKS6_SA_EEEEED1B7v160006Ev, symObjAddr: 0x2150, symBinAddr: 0x100004640, symSize: 0x20 }
  - { offsetInCU: 0x6C043, offset: 0x6C043, size: 0x8, addend: 0x0, symName: __ZNSt3__15mutexC2B7v160006Ev, symObjAddr: 0x2170, symBinAddr: 0x100004660, symSize: 0x30 }
  - { offsetInCU: 0x6C06D, offset: 0x6C06D, size: 0x8, addend: 0x0, symName: __ZNSt3__113unordered_mapINS_12basic_stringIcNS_11char_traitsIcEENS_9allocatorIcEEEENS_10shared_ptrIN6spdlog6loggerEEENS_4hashIS6_EENS_8equal_toIS6_EENS4_INS_4pairIKS6_SA_EEEEEC2B7v160006Ev, symObjAddr: 0x21A0, symBinAddr: 0x100004690, symSize: 0x40 }
  - { offsetInCU: 0x6C097, offset: 0x6C097, size: 0x8, addend: 0x0, symName: __ZNSt3__112__hash_tableINS_17__hash_value_typeINS_12basic_stringIcNS_11char_traitsIcEENS_9allocatorIcEEEENS_10shared_ptrIN6spdlog6loggerEEEEENS_22__unordered_map_hasherIS7_SC_NS_4hashIS7_EENS_8equal_toIS7_EELb1EEENS_21__unordered_map_equalIS7_SC_SH_SF_Lb1EEENS5_ISC_EEEC1Ev, symObjAddr: 0x21E0, symBinAddr: 0x1000046D0, symSize: 0x20 }
  - { offsetInCU: 0x6C0C3, offset: 0x6C0C3, size: 0x8, addend: 0x0, symName: __ZNSt3__112__hash_tableINS_17__hash_value_typeINS_12basic_stringIcNS_11char_traitsIcEENS_9allocatorIcEEEENS_10shared_ptrIN6spdlog6loggerEEEEENS_22__unordered_map_hasherIS7_SC_NS_4hashIS7_EENS_8equal_toIS7_EELb1EEENS_21__unordered_map_equalIS7_SC_SH_SF_Lb1EEENS5_ISC_EEEC2Ev, symObjAddr: 0x2220, symBinAddr: 0x100004710, symSize: 0x80 }
  - { offsetInCU: 0x6C0EF, offset: 0x6C0EF, size: 0x8, addend: 0x0, symName: __ZNSt3__110unique_ptrIA_PNS_16__hash_node_baseIPNS_11__hash_nodeINS_17__hash_value_typeINS_12basic_stringIcNS_11char_traitsIcEENS_9allocatorIcEEEENS_10shared_ptrIN6spdlog6loggerEEEEEPvEEEENS_25__bucket_list_deallocatorINS7_ISJ_EEEEEC1B7v160006ILb1EvEEv, symObjAddr: 0x22A0, symBinAddr: 0x100004790, symSize: 0x20 }
  - { offsetInCU: 0x6C124, offset: 0x6C124, size: 0x8, addend: 0x0, symName: __ZNSt3__117__compressed_pairINS_16__hash_node_baseIPNS_11__hash_nodeINS_17__hash_value_typeINS_12basic_stringIcNS_11char_traitsIcEENS_9allocatorIcEEEENS_10shared_ptrIN6spdlog6loggerEEEEEPvEEEENS7_ISG_EEEC1B7v160006ILb1EvEEv, symObjAddr: 0x22C0, symBinAddr: 0x1000047B0, symSize: 0x20 }
  - { offsetInCU: 0x6C15F, offset: 0x6C15F, size: 0x8, addend: 0x0, symName: __ZNSt3__117__compressed_pairImNS_22__unordered_map_hasherINS_12basic_stringIcNS_11char_traitsIcEENS_9allocatorIcEEEENS_17__hash_value_typeIS7_NS_10shared_ptrIN6spdlog6loggerEEEEENS_4hashIS7_EENS_8equal_toIS7_EELb1EEEEC1B7v160006IiNS_18__default_init_tagEEEOT_OT0_, symObjAddr: 0x22E0, symBinAddr: 0x1000047D0, symSize: 0x30 }
  - { offsetInCU: 0x6C1BD, offset: 0x6C1BD, size: 0x8, addend: 0x0, symName: __ZNSt3__117__compressed_pairIfNS_21__unordered_map_equalINS_12basic_stringIcNS_11char_traitsIcEENS_9allocatorIcEEEENS_17__hash_value_typeIS7_NS_10shared_ptrIN6spdlog6loggerEEEEENS_8equal_toIS7_EENS_4hashIS7_EELb1EEEEC1B7v160006IfNS_18__default_init_tagEEEOT_OT0_, symObjAddr: 0x2310, symBinAddr: 0x100004800, symSize: 0x30 }
  - { offsetInCU: 0x6C215, offset: 0x6C215, size: 0x8, addend: 0x0, symName: __ZNSt3__110unique_ptrIA_PNS_16__hash_node_baseIPNS_11__hash_nodeINS_17__hash_value_typeINS_12basic_stringIcNS_11char_traitsIcEENS_9allocatorIcEEEENS_10shared_ptrIN6spdlog6loggerEEEEEPvEEEENS_25__bucket_list_deallocatorINS7_ISJ_EEEEEC2B7v160006ILb1EvEEv, symObjAddr: 0x2340, symBinAddr: 0x100004830, symSize: 0x30 }
  - { offsetInCU: 0x6C250, offset: 0x6C250, size: 0x8, addend: 0x0, symName: __ZNSt3__117__compressed_pairIPPNS_16__hash_node_baseIPNS_11__hash_nodeINS_17__hash_value_typeINS_12basic_stringIcNS_11char_traitsIcEENS_9allocatorIcEEEENS_10shared_ptrIN6spdlog6loggerEEEEEPvEEEENS_25__bucket_list_deallocatorINS7_ISJ_EEEEEC1B7v160006INS_16__value_init_tagESQ_EEOT_OT0_, symObjAddr: 0x2370, symBinAddr: 0x100004860, symSize: 0x30 }
  - { offsetInCU: 0x6C2A8, offset: 0x6C2A8, size: 0x8, addend: 0x0, symName: __ZNSt3__117__compressed_pairIPPNS_16__hash_node_baseIPNS_11__hash_nodeINS_17__hash_value_typeINS_12basic_stringIcNS_11char_traitsIcEENS_9allocatorIcEEEENS_10shared_ptrIN6spdlog6loggerEEEEEPvEEEENS_25__bucket_list_deallocatorINS7_ISJ_EEEEEC2B7v160006INS_16__value_init_tagESQ_EEOT_OT0_, symObjAddr: 0x23A0, symBinAddr: 0x100004890, symSize: 0x40 }
  - { offsetInCU: 0x6C300, offset: 0x6C300, size: 0x8, addend: 0x0, symName: __ZNSt3__122__compressed_pair_elemIPPNS_16__hash_node_baseIPNS_11__hash_nodeINS_17__hash_value_typeINS_12basic_stringIcNS_11char_traitsIcEENS_9allocatorIcEEEENS_10shared_ptrIN6spdlog6loggerEEEEEPvEEEELi0ELb0EEC2B7v160006ENS_16__value_init_tagE, symObjAddr: 0x23E0, symBinAddr: 0x1000048D0, symSize: 0x20 }
  - { offsetInCU: 0x6C335, offset: 0x6C335, size: 0x8, addend: 0x0, symName: __ZNSt3__122__compressed_pair_elemINS_25__bucket_list_deallocatorINS_9allocatorIPNS_16__hash_node_baseIPNS_11__hash_nodeINS_17__hash_value_typeINS_12basic_stringIcNS_11char_traitsIcEENS2_IcEEEENS_10shared_ptrIN6spdlog6loggerEEEEEPvEEEEEEEELi1ELb0EEC2B7v160006ENS_16__value_init_tagE, symObjAddr: 0x2400, symBinAddr: 0x1000048F0, symSize: 0x20 }
  - { offsetInCU: 0x6C36A, offset: 0x6C36A, size: 0x8, addend: 0x0, symName: __ZNSt3__125__bucket_list_deallocatorINS_9allocatorIPNS_16__hash_node_baseIPNS_11__hash_nodeINS_17__hash_value_typeINS_12basic_stringIcNS_11char_traitsIcEENS1_IcEEEENS_10shared_ptrIN6spdlog6loggerEEEEEPvEEEEEEEC1B7v160006Ev, symObjAddr: 0x2420, symBinAddr: 0x100004910, symSize: 0x20 }
  - { offsetInCU: 0x6C394, offset: 0x6C394, size: 0x8, addend: 0x0, symName: __ZNSt3__125__bucket_list_deallocatorINS_9allocatorIPNS_16__hash_node_baseIPNS_11__hash_nodeINS_17__hash_value_typeINS_12basic_stringIcNS_11char_traitsIcEENS1_IcEEEENS_10shared_ptrIN6spdlog6loggerEEEEEPvEEEEEEEC2B7v160006Ev, symObjAddr: 0x2440, symBinAddr: 0x100004930, symSize: 0x40 }
  - { offsetInCU: 0x6C3BE, offset: 0x6C3BE, size: 0x8, addend: 0x0, symName: __ZNSt3__117__compressed_pairImNS_9allocatorIPNS_16__hash_node_baseIPNS_11__hash_nodeINS_17__hash_value_typeINS_12basic_stringIcNS_11char_traitsIcEENS1_IcEEEENS_10shared_ptrIN6spdlog6loggerEEEEEPvEEEEEEEC1B7v160006IiNS_18__default_init_tagEEEOT_OT0_, symObjAddr: 0x2480, symBinAddr: 0x100004970, symSize: 0x30 }
  - { offsetInCU: 0x6C416, offset: 0x6C416, size: 0x8, addend: 0x0, symName: __ZNSt3__117__compressed_pairImNS_9allocatorIPNS_16__hash_node_baseIPNS_11__hash_nodeINS_17__hash_value_typeINS_12basic_stringIcNS_11char_traitsIcEENS1_IcEEEENS_10shared_ptrIN6spdlog6loggerEEEEEPvEEEEEEEC2B7v160006IiNS_18__default_init_tagEEEOT_OT0_, symObjAddr: 0x24B0, symBinAddr: 0x1000049A0, symSize: 0x40 }
  - { offsetInCU: 0x6C46E, offset: 0x6C46E, size: 0x8, addend: 0x0, symName: __ZNSt3__122__compressed_pair_elemImLi0ELb0EEC2B7v160006IivEEOT_, symObjAddr: 0x24F0, symBinAddr: 0x1000049E0, symSize: 0x20 }
  - { offsetInCU: 0x6C4B0, offset: 0x6C4B0, size: 0x8, addend: 0x0, symName: __ZNSt3__122__compressed_pair_elemINS_9allocatorIPNS_16__hash_node_baseIPNS_11__hash_nodeINS_17__hash_value_typeINS_12basic_stringIcNS_11char_traitsIcEENS1_IcEEEENS_10shared_ptrIN6spdlog6loggerEEEEEPvEEEEEELi1ELb1EEC2B7v160006ENS_18__default_init_tagE, symObjAddr: 0x2510, symBinAddr: 0x100004A00, symSize: 0x20 }
  - { offsetInCU: 0x6C4E5, offset: 0x6C4E5, size: 0x8, addend: 0x0, symName: __ZNSt3__19allocatorIPNS_16__hash_node_baseIPNS_11__hash_nodeINS_17__hash_value_typeINS_12basic_stringIcNS_11char_traitsIcEENS0_IcEEEENS_10shared_ptrIN6spdlog6loggerEEEEEPvEEEEEC2B7v160006Ev, symObjAddr: 0x2530, symBinAddr: 0x100004A20, symSize: 0x20 }
  - { offsetInCU: 0x6C50F, offset: 0x6C50F, size: 0x8, addend: 0x0, symName: __ZNSt3__116__non_trivial_ifILb1ENS_9allocatorIPNS_16__hash_node_baseIPNS_11__hash_nodeINS_17__hash_value_typeINS_12basic_stringIcNS_11char_traitsIcEENS1_IcEEEENS_10shared_ptrIN6spdlog6loggerEEEEEPvEEEEEEEC2B7v160006Ev, symObjAddr: 0x2550, symBinAddr: 0x100004A40, symSize: 0x10 }
  - { offsetInCU: 0x6C539, offset: 0x6C539, size: 0x8, addend: 0x0, symName: __ZNSt3__117__compressed_pairINS_16__hash_node_baseIPNS_11__hash_nodeINS_17__hash_value_typeINS_12basic_stringIcNS_11char_traitsIcEENS_9allocatorIcEEEENS_10shared_ptrIN6spdlog6loggerEEEEEPvEEEENS7_ISG_EEEC2B7v160006ILb1EvEEv, symObjAddr: 0x2560, symBinAddr: 0x100004A50, symSize: 0x30 }
  - { offsetInCU: 0x6C56E, offset: 0x6C56E, size: 0x8, addend: 0x0, symName: __ZNSt3__122__compressed_pair_elemINS_16__hash_node_baseIPNS_11__hash_nodeINS_17__hash_value_typeINS_12basic_stringIcNS_11char_traitsIcEENS_9allocatorIcEEEENS_10shared_ptrIN6spdlog6loggerEEEEEPvEEEELi0ELb0EEC2B7v160006ENS_16__value_init_tagE, symObjAddr: 0x2590, symBinAddr: 0x100004A80, symSize: 0x20 }
  - { offsetInCU: 0x6C5A3, offset: 0x6C5A3, size: 0x8, addend: 0x0, symName: __ZNSt3__122__compressed_pair_elemINS_9allocatorINS_11__hash_nodeINS_17__hash_value_typeINS_12basic_stringIcNS_11char_traitsIcEENS1_IcEEEENS_10shared_ptrIN6spdlog6loggerEEEEEPvEEEELi1ELb1EEC2B7v160006ENS_16__value_init_tagE, symObjAddr: 0x25B0, symBinAddr: 0x100004AA0, symSize: 0x20 }
  - { offsetInCU: 0x6C5D8, offset: 0x6C5D8, size: 0x8, addend: 0x0, symName: __ZNSt3__116__hash_node_baseIPNS_11__hash_nodeINS_17__hash_value_typeINS_12basic_stringIcNS_11char_traitsIcEENS_9allocatorIcEEEENS_10shared_ptrIN6spdlog6loggerEEEEEPvEEEC1B7v160006Ev, symObjAddr: 0x25D0, symBinAddr: 0x100004AC0, symSize: 0x20 }
  - { offsetInCU: 0x6C602, offset: 0x6C602, size: 0x8, addend: 0x0, symName: __ZNSt3__116__hash_node_baseIPNS_11__hash_nodeINS_17__hash_value_typeINS_12basic_stringIcNS_11char_traitsIcEENS_9allocatorIcEEEENS_10shared_ptrIN6spdlog6loggerEEEEEPvEEEC2B7v160006Ev, symObjAddr: 0x25F0, symBinAddr: 0x100004AE0, symSize: 0x20 }
  - { offsetInCU: 0x6C62C, offset: 0x6C62C, size: 0x8, addend: 0x0, symName: __ZNSt3__19allocatorINS_11__hash_nodeINS_17__hash_value_typeINS_12basic_stringIcNS_11char_traitsIcEENS0_IcEEEENS_10shared_ptrIN6spdlog6loggerEEEEEPvEEEC2B7v160006Ev, symObjAddr: 0x2610, symBinAddr: 0x100004B00, symSize: 0x20 }
  - { offsetInCU: 0x6C656, offset: 0x6C656, size: 0x8, addend: 0x0, symName: __ZNSt3__116__non_trivial_ifILb1ENS_9allocatorINS_11__hash_nodeINS_17__hash_value_typeINS_12basic_stringIcNS_11char_traitsIcEENS1_IcEEEENS_10shared_ptrIN6spdlog6loggerEEEEEPvEEEEEC2B7v160006Ev, symObjAddr: 0x2630, symBinAddr: 0x100004B20, symSize: 0x10 }
  - { offsetInCU: 0x6C680, offset: 0x6C680, size: 0x8, addend: 0x0, symName: __ZNSt3__117__compressed_pairImNS_22__unordered_map_hasherINS_12basic_stringIcNS_11char_traitsIcEENS_9allocatorIcEEEENS_17__hash_value_typeIS7_NS_10shared_ptrIN6spdlog6loggerEEEEENS_4hashIS7_EENS_8equal_toIS7_EELb1EEEEC2B7v160006IiNS_18__default_init_tagEEEOT_OT0_, symObjAddr: 0x2640, symBinAddr: 0x100004B30, symSize: 0x40 }
  - { offsetInCU: 0x6C6D8, offset: 0x6C6D8, size: 0x8, addend: 0x0, symName: __ZNSt3__122__compressed_pair_elemINS_22__unordered_map_hasherINS_12basic_stringIcNS_11char_traitsIcEENS_9allocatorIcEEEENS_17__hash_value_typeIS7_NS_10shared_ptrIN6spdlog6loggerEEEEENS_4hashIS7_EENS_8equal_toIS7_EELb1EEELi1ELb1EEC2B7v160006ENS_18__default_init_tagE, symObjAddr: 0x2680, symBinAddr: 0x100004B70, symSize: 0x20 }
  - { offsetInCU: 0x6C70D, offset: 0x6C70D, size: 0x8, addend: 0x0, symName: __ZNSt3__122__unordered_map_hasherINS_12basic_stringIcNS_11char_traitsIcEENS_9allocatorIcEEEENS_17__hash_value_typeIS6_NS_10shared_ptrIN6spdlog6loggerEEEEENS_4hashIS6_EENS_8equal_toIS6_EELb1EEC2B7v160006Ev, symObjAddr: 0x26A0, symBinAddr: 0x100004B90, symSize: 0x10 }
  - { offsetInCU: 0x6C737, offset: 0x6C737, size: 0x8, addend: 0x0, symName: __ZNSt3__117__compressed_pairIfNS_21__unordered_map_equalINS_12basic_stringIcNS_11char_traitsIcEENS_9allocatorIcEEEENS_17__hash_value_typeIS7_NS_10shared_ptrIN6spdlog6loggerEEEEENS_8equal_toIS7_EENS_4hashIS7_EELb1EEEEC2B7v160006IfNS_18__default_init_tagEEEOT_OT0_, symObjAddr: 0x26B0, symBinAddr: 0x100004BA0, symSize: 0x40 }
  - { offsetInCU: 0x6C78F, offset: 0x6C78F, size: 0x8, addend: 0x0, symName: __ZNSt3__122__compressed_pair_elemIfLi0ELb0EEC2B7v160006IfvEEOT_, symObjAddr: 0x26F0, symBinAddr: 0x100004BE0, symSize: 0x20 }
  - { offsetInCU: 0x6C7D1, offset: 0x6C7D1, size: 0x8, addend: 0x0, symName: __ZNSt3__122__compressed_pair_elemINS_21__unordered_map_equalINS_12basic_stringIcNS_11char_traitsIcEENS_9allocatorIcEEEENS_17__hash_value_typeIS7_NS_10shared_ptrIN6spdlog6loggerEEEEENS_8equal_toIS7_EENS_4hashIS7_EELb1EEELi1ELb1EEC2B7v160006ENS_18__default_init_tagE, symObjAddr: 0x2710, symBinAddr: 0x100004C00, symSize: 0x20 }
  - { offsetInCU: 0x6C806, offset: 0x6C806, size: 0x8, addend: 0x0, symName: __ZNSt3__121__unordered_map_equalINS_12basic_stringIcNS_11char_traitsIcEENS_9allocatorIcEEEENS_17__hash_value_typeIS6_NS_10shared_ptrIN6spdlog6loggerEEEEENS_8equal_toIS6_EENS_4hashIS6_EELb1EEC2B7v160006Ev, symObjAddr: 0x2730, symBinAddr: 0x100004C20, symSize: 0x10 }
  - { offsetInCU: 0x6C830, offset: 0x6C830, size: 0x8, addend: 0x0, symName: __ZNSt3__113unordered_mapINS_12basic_stringIcNS_11char_traitsIcEENS_9allocatorIcEEEEN6spdlog5level10level_enumENS_4hashIS6_EENS_8equal_toIS6_EENS4_INS_4pairIKS6_S9_EEEEEC2B7v160006Ev, symObjAddr: 0x2740, symBinAddr: 0x100004C30, symSize: 0x40 }
  - { offsetInCU: 0x6C85A, offset: 0x6C85A, size: 0x8, addend: 0x0, symName: __ZNSt3__112__hash_tableINS_17__hash_value_typeINS_12basic_stringIcNS_11char_traitsIcEENS_9allocatorIcEEEEN6spdlog5level10level_enumEEENS_22__unordered_map_hasherIS7_SB_NS_4hashIS7_EENS_8equal_toIS7_EELb1EEENS_21__unordered_map_equalIS7_SB_SG_SE_Lb1EEENS5_ISB_EEEC1Ev, symObjAddr: 0x2780, symBinAddr: 0x100004C70, symSize: 0x20 }
  - { offsetInCU: 0x6C886, offset: 0x6C886, size: 0x8, addend: 0x0, symName: __ZNSt3__112__hash_tableINS_17__hash_value_typeINS_12basic_stringIcNS_11char_traitsIcEENS_9allocatorIcEEEEN6spdlog5level10level_enumEEENS_22__unordered_map_hasherIS7_SB_NS_4hashIS7_EENS_8equal_toIS7_EELb1EEENS_21__unordered_map_equalIS7_SB_SG_SE_Lb1EEENS5_ISB_EEEC2Ev, symObjAddr: 0x27B0, symBinAddr: 0x100004CA0, symSize: 0x80 }
  - { offsetInCU: 0x6C8B2, offset: 0x6C8B2, size: 0x8, addend: 0x0, symName: __ZNSt3__110unique_ptrIA_PNS_16__hash_node_baseIPNS_11__hash_nodeINS_17__hash_value_typeINS_12basic_stringIcNS_11char_traitsIcEENS_9allocatorIcEEEEN6spdlog5level10level_enumEEEPvEEEENS_25__bucket_list_deallocatorINS7_ISI_EEEEEC1B7v160006ILb1EvEEv, symObjAddr: 0x2830, symBinAddr: 0x100004D20, symSize: 0x20 }
  - { offsetInCU: 0x6C8E7, offset: 0x6C8E7, size: 0x8, addend: 0x0, symName: __ZNSt3__117__compressed_pairINS_16__hash_node_baseIPNS_11__hash_nodeINS_17__hash_value_typeINS_12basic_stringIcNS_11char_traitsIcEENS_9allocatorIcEEEEN6spdlog5level10level_enumEEEPvEEEENS7_ISF_EEEC1B7v160006ILb1EvEEv, symObjAddr: 0x2850, symBinAddr: 0x100004D40, symSize: 0x20 }
  - { offsetInCU: 0x6C91C, offset: 0x6C91C, size: 0x8, addend: 0x0, symName: __ZNSt3__117__compressed_pairImNS_22__unordered_map_hasherINS_12basic_stringIcNS_11char_traitsIcEENS_9allocatorIcEEEENS_17__hash_value_typeIS7_N6spdlog5level10level_enumEEENS_4hashIS7_EENS_8equal_toIS7_EELb1EEEEC1B7v160006IiNS_18__default_init_tagEEEOT_OT0_, symObjAddr: 0x2870, symBinAddr: 0x100004D60, symSize: 0x30 }
  - { offsetInCU: 0x6C974, offset: 0x6C974, size: 0x8, addend: 0x0, symName: __ZNSt3__117__compressed_pairIfNS_21__unordered_map_equalINS_12basic_stringIcNS_11char_traitsIcEENS_9allocatorIcEEEENS_17__hash_value_typeIS7_N6spdlog5level10level_enumEEENS_8equal_toIS7_EENS_4hashIS7_EELb1EEEEC1B7v160006IfNS_18__default_init_tagEEEOT_OT0_, symObjAddr: 0x28A0, symBinAddr: 0x100004D90, symSize: 0x30 }
  - { offsetInCU: 0x6C9CC, offset: 0x6C9CC, size: 0x8, addend: 0x0, symName: __ZNSt3__110unique_ptrIA_PNS_16__hash_node_baseIPNS_11__hash_nodeINS_17__hash_value_typeINS_12basic_stringIcNS_11char_traitsIcEENS_9allocatorIcEEEEN6spdlog5level10level_enumEEEPvEEEENS_25__bucket_list_deallocatorINS7_ISI_EEEEEC2B7v160006ILb1EvEEv, symObjAddr: 0x28D0, symBinAddr: 0x100004DC0, symSize: 0x30 }
  - { offsetInCU: 0x6CA01, offset: 0x6CA01, size: 0x8, addend: 0x0, symName: __ZNSt3__117__compressed_pairIPPNS_16__hash_node_baseIPNS_11__hash_nodeINS_17__hash_value_typeINS_12basic_stringIcNS_11char_traitsIcEENS_9allocatorIcEEEEN6spdlog5level10level_enumEEEPvEEEENS_25__bucket_list_deallocatorINS7_ISI_EEEEEC1B7v160006INS_16__value_init_tagESP_EEOT_OT0_, symObjAddr: 0x2900, symBinAddr: 0x100004DF0, symSize: 0x30 }
  - { offsetInCU: 0x6CA59, offset: 0x6CA59, size: 0x8, addend: 0x0, symName: __ZNSt3__117__compressed_pairIPPNS_16__hash_node_baseIPNS_11__hash_nodeINS_17__hash_value_typeINS_12basic_stringIcNS_11char_traitsIcEENS_9allocatorIcEEEEN6spdlog5level10level_enumEEEPvEEEENS_25__bucket_list_deallocatorINS7_ISI_EEEEEC2B7v160006INS_16__value_init_tagESP_EEOT_OT0_, symObjAddr: 0x2930, symBinAddr: 0x100004E20, symSize: 0x40 }
  - { offsetInCU: 0x6CAB1, offset: 0x6CAB1, size: 0x8, addend: 0x0, symName: __ZNSt3__122__compressed_pair_elemIPPNS_16__hash_node_baseIPNS_11__hash_nodeINS_17__hash_value_typeINS_12basic_stringIcNS_11char_traitsIcEENS_9allocatorIcEEEEN6spdlog5level10level_enumEEEPvEEEELi0ELb0EEC2B7v160006ENS_16__value_init_tagE, symObjAddr: 0x2970, symBinAddr: 0x100004E60, symSize: 0x20 }
  - { offsetInCU: 0x6CAE6, offset: 0x6CAE6, size: 0x8, addend: 0x0, symName: __ZNSt3__122__compressed_pair_elemINS_25__bucket_list_deallocatorINS_9allocatorIPNS_16__hash_node_baseIPNS_11__hash_nodeINS_17__hash_value_typeINS_12basic_stringIcNS_11char_traitsIcEENS2_IcEEEEN6spdlog5level10level_enumEEEPvEEEEEEEELi1ELb0EEC2B7v160006ENS_16__value_init_tagE, symObjAddr: 0x2990, symBinAddr: 0x100004E80, symSize: 0x20 }
  - { offsetInCU: 0x6CB1B, offset: 0x6CB1B, size: 0x8, addend: 0x0, symName: __ZNSt3__125__bucket_list_deallocatorINS_9allocatorIPNS_16__hash_node_baseIPNS_11__hash_nodeINS_17__hash_value_typeINS_12basic_stringIcNS_11char_traitsIcEENS1_IcEEEEN6spdlog5level10level_enumEEEPvEEEEEEEC1B7v160006Ev, symObjAddr: 0x29B0, symBinAddr: 0x100004EA0, symSize: 0x20 }
  - { offsetInCU: 0x6CB45, offset: 0x6CB45, size: 0x8, addend: 0x0, symName: __ZNSt3__125__bucket_list_deallocatorINS_9allocatorIPNS_16__hash_node_baseIPNS_11__hash_nodeINS_17__hash_value_typeINS_12basic_stringIcNS_11char_traitsIcEENS1_IcEEEEN6spdlog5level10level_enumEEEPvEEEEEEEC2B7v160006Ev, symObjAddr: 0x29D0, symBinAddr: 0x100004EC0, symSize: 0x40 }
  - { offsetInCU: 0x6CB6F, offset: 0x6CB6F, size: 0x8, addend: 0x0, symName: __ZNSt3__117__compressed_pairImNS_9allocatorIPNS_16__hash_node_baseIPNS_11__hash_nodeINS_17__hash_value_typeINS_12basic_stringIcNS_11char_traitsIcEENS1_IcEEEEN6spdlog5level10level_enumEEEPvEEEEEEEC1B7v160006IiNS_18__default_init_tagEEEOT_OT0_, symObjAddr: 0x2A10, symBinAddr: 0x100004F00, symSize: 0x30 }
  - { offsetInCU: 0x6CBC7, offset: 0x6CBC7, size: 0x8, addend: 0x0, symName: __ZNSt3__117__compressed_pairImNS_9allocatorIPNS_16__hash_node_baseIPNS_11__hash_nodeINS_17__hash_value_typeINS_12basic_stringIcNS_11char_traitsIcEENS1_IcEEEEN6spdlog5level10level_enumEEEPvEEEEEEEC2B7v160006IiNS_18__default_init_tagEEEOT_OT0_, symObjAddr: 0x2A40, symBinAddr: 0x100004F30, symSize: 0x40 }
  - { offsetInCU: 0x6CC1F, offset: 0x6CC1F, size: 0x8, addend: 0x0, symName: __ZNSt3__122__compressed_pair_elemINS_9allocatorIPNS_16__hash_node_baseIPNS_11__hash_nodeINS_17__hash_value_typeINS_12basic_stringIcNS_11char_traitsIcEENS1_IcEEEEN6spdlog5level10level_enumEEEPvEEEEEELi1ELb1EEC2B7v160006ENS_18__default_init_tagE, symObjAddr: 0x2A80, symBinAddr: 0x100004F70, symSize: 0x20 }
  - { offsetInCU: 0x6CC54, offset: 0x6CC54, size: 0x8, addend: 0x0, symName: __ZNSt3__19allocatorIPNS_16__hash_node_baseIPNS_11__hash_nodeINS_17__hash_value_typeINS_12basic_stringIcNS_11char_traitsIcEENS0_IcEEEEN6spdlog5level10level_enumEEEPvEEEEEC2B7v160006Ev, symObjAddr: 0x2AA0, symBinAddr: 0x100004F90, symSize: 0x20 }
  - { offsetInCU: 0x6CC7E, offset: 0x6CC7E, size: 0x8, addend: 0x0, symName: __ZNSt3__116__non_trivial_ifILb1ENS_9allocatorIPNS_16__hash_node_baseIPNS_11__hash_nodeINS_17__hash_value_typeINS_12basic_stringIcNS_11char_traitsIcEENS1_IcEEEEN6spdlog5level10level_enumEEEPvEEEEEEEC2B7v160006Ev, symObjAddr: 0x2AC0, symBinAddr: 0x100004FB0, symSize: 0x10 }
  - { offsetInCU: 0x6CCA8, offset: 0x6CCA8, size: 0x8, addend: 0x0, symName: __ZNSt3__117__compressed_pairINS_16__hash_node_baseIPNS_11__hash_nodeINS_17__hash_value_typeINS_12basic_stringIcNS_11char_traitsIcEENS_9allocatorIcEEEEN6spdlog5level10level_enumEEEPvEEEENS7_ISF_EEEC2B7v160006ILb1EvEEv, symObjAddr: 0x2AD0, symBinAddr: 0x100004FC0, symSize: 0x30 }
  - { offsetInCU: 0x6CCDD, offset: 0x6CCDD, size: 0x8, addend: 0x0, symName: __ZNSt3__122__compressed_pair_elemINS_16__hash_node_baseIPNS_11__hash_nodeINS_17__hash_value_typeINS_12basic_stringIcNS_11char_traitsIcEENS_9allocatorIcEEEEN6spdlog5level10level_enumEEEPvEEEELi0ELb0EEC2B7v160006ENS_16__value_init_tagE, symObjAddr: 0x2B00, symBinAddr: 0x100004FF0, symSize: 0x20 }
  - { offsetInCU: 0x6CD12, offset: 0x6CD12, size: 0x8, addend: 0x0, symName: __ZNSt3__122__compressed_pair_elemINS_9allocatorINS_11__hash_nodeINS_17__hash_value_typeINS_12basic_stringIcNS_11char_traitsIcEENS1_IcEEEEN6spdlog5level10level_enumEEEPvEEEELi1ELb1EEC2B7v160006ENS_16__value_init_tagE, symObjAddr: 0x2B20, symBinAddr: 0x100005010, symSize: 0x20 }
  - { offsetInCU: 0x6CD47, offset: 0x6CD47, size: 0x8, addend: 0x0, symName: __ZNSt3__116__hash_node_baseIPNS_11__hash_nodeINS_17__hash_value_typeINS_12basic_stringIcNS_11char_traitsIcEENS_9allocatorIcEEEEN6spdlog5level10level_enumEEEPvEEEC1B7v160006Ev, symObjAddr: 0x2B40, symBinAddr: 0x100005030, symSize: 0x20 }
  - { offsetInCU: 0x6CD71, offset: 0x6CD71, size: 0x8, addend: 0x0, symName: __ZNSt3__116__hash_node_baseIPNS_11__hash_nodeINS_17__hash_value_typeINS_12basic_stringIcNS_11char_traitsIcEENS_9allocatorIcEEEEN6spdlog5level10level_enumEEEPvEEEC2B7v160006Ev, symObjAddr: 0x2B60, symBinAddr: 0x100005050, symSize: 0x20 }
  - { offsetInCU: 0x6CD9B, offset: 0x6CD9B, size: 0x8, addend: 0x0, symName: __ZNSt3__19allocatorINS_11__hash_nodeINS_17__hash_value_typeINS_12basic_stringIcNS_11char_traitsIcEENS0_IcEEEEN6spdlog5level10level_enumEEEPvEEEC2B7v160006Ev, symObjAddr: 0x2B80, symBinAddr: 0x100005070, symSize: 0x20 }
  - { offsetInCU: 0x6CDC5, offset: 0x6CDC5, size: 0x8, addend: 0x0, symName: __ZNSt3__116__non_trivial_ifILb1ENS_9allocatorINS_11__hash_nodeINS_17__hash_value_typeINS_12basic_stringIcNS_11char_traitsIcEENS1_IcEEEEN6spdlog5level10level_enumEEEPvEEEEEC2B7v160006Ev, symObjAddr: 0x2BA0, symBinAddr: 0x100005090, symSize: 0x10 }
  - { offsetInCU: 0x6CDEF, offset: 0x6CDEF, size: 0x8, addend: 0x0, symName: __ZNSt3__117__compressed_pairImNS_22__unordered_map_hasherINS_12basic_stringIcNS_11char_traitsIcEENS_9allocatorIcEEEENS_17__hash_value_typeIS7_N6spdlog5level10level_enumEEENS_4hashIS7_EENS_8equal_toIS7_EELb1EEEEC2B7v160006IiNS_18__default_init_tagEEEOT_OT0_, symObjAddr: 0x2BB0, symBinAddr: 0x1000050A0, symSize: 0x40 }
  - { offsetInCU: 0x6CE47, offset: 0x6CE47, size: 0x8, addend: 0x0, symName: __ZNSt3__122__compressed_pair_elemINS_22__unordered_map_hasherINS_12basic_stringIcNS_11char_traitsIcEENS_9allocatorIcEEEENS_17__hash_value_typeIS7_N6spdlog5level10level_enumEEENS_4hashIS7_EENS_8equal_toIS7_EELb1EEELi1ELb1EEC2B7v160006ENS_18__default_init_tagE, symObjAddr: 0x2BF0, symBinAddr: 0x1000050E0, symSize: 0x20 }
  - { offsetInCU: 0x6CE7C, offset: 0x6CE7C, size: 0x8, addend: 0x0, symName: __ZNSt3__122__unordered_map_hasherINS_12basic_stringIcNS_11char_traitsIcEENS_9allocatorIcEEEENS_17__hash_value_typeIS6_N6spdlog5level10level_enumEEENS_4hashIS6_EENS_8equal_toIS6_EELb1EEC2B7v160006Ev, symObjAddr: 0x2C10, symBinAddr: 0x100005100, symSize: 0x10 }
  - { offsetInCU: 0x6CEA6, offset: 0x6CEA6, size: 0x8, addend: 0x0, symName: __ZNSt3__117__compressed_pairIfNS_21__unordered_map_equalINS_12basic_stringIcNS_11char_traitsIcEENS_9allocatorIcEEEENS_17__hash_value_typeIS7_N6spdlog5level10level_enumEEENS_8equal_toIS7_EENS_4hashIS7_EELb1EEEEC2B7v160006IfNS_18__default_init_tagEEEOT_OT0_, symObjAddr: 0x2C20, symBinAddr: 0x100005110, symSize: 0x40 }
  - { offsetInCU: 0x6CEFE, offset: 0x6CEFE, size: 0x8, addend: 0x0, symName: __ZNSt3__122__compressed_pair_elemINS_21__unordered_map_equalINS_12basic_stringIcNS_11char_traitsIcEENS_9allocatorIcEEEENS_17__hash_value_typeIS7_N6spdlog5level10level_enumEEENS_8equal_toIS7_EENS_4hashIS7_EELb1EEELi1ELb1EEC2B7v160006ENS_18__default_init_tagE, symObjAddr: 0x2C60, symBinAddr: 0x100005150, symSize: 0x20 }
  - { offsetInCU: 0x6CF33, offset: 0x6CF33, size: 0x8, addend: 0x0, symName: __ZNSt3__121__unordered_map_equalINS_12basic_stringIcNS_11char_traitsIcEENS_9allocatorIcEEEENS_17__hash_value_typeIS6_N6spdlog5level10level_enumEEENS_8equal_toIS6_EENS_4hashIS6_EELb1EEC2B7v160006Ev, symObjAddr: 0x2C80, symBinAddr: 0x100005170, symSize: 0x10 }
  - { offsetInCU: 0x6CF5D, offset: 0x6CF5D, size: 0x8, addend: 0x0, symName: __ZNSt3__112basic_stringIcNS_11char_traitsIcEENS_9allocatorIcEEEC2B7v160006IDnEEPKc, symObjAddr: 0x2C90, symBinAddr: 0x100005180, symSize: 0x60 }
  - { offsetInCU: 0x6CF9B, offset: 0x6CF9B, size: 0x8, addend: 0x0, symName: __ZNSt3__117__compressed_pairINS_12basic_stringIcNS_11char_traitsIcEENS_9allocatorIcEEE5__repES5_EC1B7v160006INS_18__default_init_tagESA_EEOT_OT0_, symObjAddr: 0x2CF0, symBinAddr: 0x1000051E0, symSize: 0x30 }
  - { offsetInCU: 0x6CFF3, offset: 0x6CFF3, size: 0x8, addend: 0x0, symName: __ZNSt3__111char_traitsIcE6lengthEPKc, symObjAddr: 0x2D20, symBinAddr: 0x100005210, symSize: 0x30 }
  - { offsetInCU: 0x6D016, offset: 0x6D016, size: 0x8, addend: 0x0, symName: __ZNSt3__117__compressed_pairINS_12basic_stringIcNS_11char_traitsIcEENS_9allocatorIcEEE5__repES5_EC2B7v160006INS_18__default_init_tagESA_EEOT_OT0_, symObjAddr: 0x2D60, symBinAddr: 0x100005250, symSize: 0x30 }
  - { offsetInCU: 0x6D06E, offset: 0x6D06E, size: 0x8, addend: 0x0, symName: __ZNSt3__122__compressed_pair_elemINS_12basic_stringIcNS_11char_traitsIcEENS_9allocatorIcEEE5__repELi0ELb0EEC2B7v160006ENS_18__default_init_tagE, symObjAddr: 0x2D90, symBinAddr: 0x100005280, symSize: 0x10 }
  - { offsetInCU: 0x6D0A3, offset: 0x6D0A3, size: 0x8, addend: 0x0, symName: __ZNSt3__122__compressed_pair_elemINS_9allocatorIcEELi1ELb1EEC2B7v160006ENS_18__default_init_tagE, symObjAddr: 0x2DA0, symBinAddr: 0x100005290, symSize: 0x20 }
  - { offsetInCU: 0x6D0D8, offset: 0x6D0D8, size: 0x8, addend: 0x0, symName: __ZNSt3__19allocatorIcEC2B7v160006Ev, symObjAddr: 0x2DC0, symBinAddr: 0x1000052B0, symSize: 0x20 }
  - { offsetInCU: 0x6D102, offset: 0x6D102, size: 0x8, addend: 0x0, symName: __ZNSt3__116__non_trivial_ifILb1ENS_9allocatorIcEEEC2B7v160006Ev, symObjAddr: 0x2DE0, symBinAddr: 0x1000052D0, symSize: 0x10 }
  - { offsetInCU: 0x6D12C, offset: 0x6D12C, size: 0x8, addend: 0x0, symName: __ZN6spdlog17pattern_formatterC2ENS_17pattern_time_typeENSt3__112basic_stringIcNS2_11char_traitsIcEENS2_9allocatorIcEEEE, symObjAddr: 0x2E10, symBinAddr: 0x100005300, symSize: 0x1E0 }
  - { offsetInCU: 0x6D178, offset: 0x6D178, size: 0x8, addend: 0x0, symName: __ZN6spdlog9formatterC2Ev, symObjAddr: 0x2FF0, symBinAddr: 0x1000054E0, symSize: 0x20 }
  - { offsetInCU: 0x6D1A4, offset: 0x6D1A4, size: 0x8, addend: 0x0, symName: __ZNSt3__112basic_stringIcNS_11char_traitsIcEENS_9allocatorIcEEEC1B7v160006EOS5_, symObjAddr: 0x3010, symBinAddr: 0x100005500, symSize: 0x30 }
  - { offsetInCU: 0x6D1E3, offset: 0x6D1E3, size: 0x8, addend: 0x0, symName: __ZNSt3__16chrono8durationIxNS_5ratioILl1ELl1EEEEC1B7v160006IiEERKT_PNS_9enable_ifIXaasr14is_convertibleIS8_xEE5valueooL_ZNS_17integral_constantIbLb0EE5valueEEntsr23treat_as_floating_pointIS6_EE5valueEvE4typeE, symObjAddr: 0x3040, symBinAddr: 0x100005530, symSize: 0x30 }
  - { offsetInCU: 0x6D230, offset: 0x6D230, size: 0x8, addend: 0x0, symName: __ZNSt3__16vectorINS_10unique_ptrIN6spdlog7details14flag_formatterENS_14default_deleteIS4_EEEENS_9allocatorIS7_EEEC1B7v160006Ev, symObjAddr: 0x3070, symBinAddr: 0x100005560, symSize: 0x20 }
  - { offsetInCU: 0x6D25A, offset: 0x6D25A, size: 0x8, addend: 0x0, symName: __ZNSt3__16vectorINS_10unique_ptrIN6spdlog7details14flag_formatterENS_14default_deleteIS4_EEEENS_9allocatorIS7_EEE9push_backB7v160006EOS7_, symObjAddr: 0x3090, symBinAddr: 0x100005580, symSize: 0x60 }
  - { offsetInCU: 0x6D291, offset: 0x6D291, size: 0x8, addend: 0x0, symName: __ZN6spdlog7details12padding_infoC1Ev, symObjAddr: 0x3180, symBinAddr: 0x100005670, symSize: 0x20 }
  - { offsetInCU: 0x6D2BB, offset: 0x6D2BB, size: 0x8, addend: 0x0, symName: __ZNSt3__110unique_ptrIN6spdlog7details14flag_formatterENS_14default_deleteIS3_EEEC1B7v160006INS2_14full_formatterENS4_IS8_EEvvEEONS0_IT_T0_EE, symObjAddr: 0x31A0, symBinAddr: 0x100005690, symSize: 0x30 }
  - { offsetInCU: 0x6D307, offset: 0x6D307, size: 0x8, addend: 0x0, symName: __ZNSt3__110unique_ptrIN6spdlog7details14flag_formatterENS_14default_deleteIS3_EEED1B7v160006Ev, symObjAddr: 0x31D0, symBinAddr: 0x1000056C0, symSize: 0x20 }
  - { offsetInCU: 0x6D331, offset: 0x6D331, size: 0x8, addend: 0x0, symName: __ZNSt3__110unique_ptrIN6spdlog7details14full_formatterENS_14default_deleteIS3_EEED1B7v160006Ev, symObjAddr: 0x31F0, symBinAddr: 0x1000056E0, symSize: 0x20 }
  - { offsetInCU: 0x6D35B, offset: 0x6D35B, size: 0x8, addend: 0x0, symName: __ZNSt3__16vectorINS_10unique_ptrIN6spdlog7details14flag_formatterENS_14default_deleteIS4_EEEENS_9allocatorIS7_EEED1B7v160006Ev, symObjAddr: 0x3210, symBinAddr: 0x100005700, symSize: 0x20 }
  - { offsetInCU: 0x6D385, offset: 0x6D385, size: 0x8, addend: 0x0, symName: __ZN6spdlog9formatterD2Ev, symObjAddr: 0x3230, symBinAddr: 0x100005720, symSize: 0x10 }
  - { offsetInCU: 0x6D3AF, offset: 0x6D3AF, size: 0x8, addend: 0x0, symName: __ZN6spdlog9formatterD1Ev, symObjAddr: 0x3240, symBinAddr: 0x100005730, symSize: 0x10 }
  - { offsetInCU: 0x6D3D9, offset: 0x6D3D9, size: 0x8, addend: 0x0, symName: __ZN6spdlog9formatterD0Ev, symObjAddr: 0x3250, symBinAddr: 0x100005740, symSize: 0x10 }
  - { offsetInCU: 0x6D403, offset: 0x6D403, size: 0x8, addend: 0x0, symName: __ZNSt3__112basic_stringIcNS_11char_traitsIcEENS_9allocatorIcEEEC2B7v160006EOS5_, symObjAddr: 0x3260, symBinAddr: 0x100005750, symSize: 0x80 }
  - { offsetInCU: 0x6D43C, offset: 0x6D43C, size: 0x8, addend: 0x0, symName: __ZNSt3__112basic_stringIcNS_11char_traitsIcEENS_9allocatorIcEEE14__default_initB7v160006Ev, symObjAddr: 0x32E0, symBinAddr: 0x1000057D0, symSize: 0x50 }
  - { offsetInCU: 0x6D462, offset: 0x6D462, size: 0x8, addend: 0x0, symName: __ZNKSt3__112basic_stringIcNS_11char_traitsIcEENS_9allocatorIcEEE9__is_longB7v160006Ev, symObjAddr: 0x3330, symBinAddr: 0x100005820, symSize: 0x30 }
  - { offsetInCU: 0x6D488, offset: 0x6D488, size: 0x8, addend: 0x0, symName: __ZNSt3__117__compressed_pairINS_12basic_stringIcNS_11char_traitsIcEENS_9allocatorIcEEE5__repES5_E5firstB7v160006Ev, symObjAddr: 0x3370, symBinAddr: 0x100005860, symSize: 0x20 }
  - { offsetInCU: 0x6D4AE, offset: 0x6D4AE, size: 0x8, addend: 0x0, symName: __ZNSt3__122__compressed_pair_elemINS_12basic_stringIcNS_11char_traitsIcEENS_9allocatorIcEEE5__repELi0ELb0EE5__getB7v160006Ev, symObjAddr: 0x3390, symBinAddr: 0x100005880, symSize: 0x10 }
  - { offsetInCU: 0x6D4D4, offset: 0x6D4D4, size: 0x8, addend: 0x0, symName: __ZNKSt3__117__compressed_pairINS_12basic_stringIcNS_11char_traitsIcEENS_9allocatorIcEEE5__repES5_E5firstB7v160006Ev, symObjAddr: 0x33A0, symBinAddr: 0x100005890, symSize: 0x20 }
  - { offsetInCU: 0x6D4FA, offset: 0x6D4FA, size: 0x8, addend: 0x0, symName: __ZNKSt3__122__compressed_pair_elemINS_12basic_stringIcNS_11char_traitsIcEENS_9allocatorIcEEE5__repELi0ELb0EE5__getB7v160006Ev, symObjAddr: 0x33C0, symBinAddr: 0x1000058B0, symSize: 0x10 }
  - { offsetInCU: 0x6D520, offset: 0x6D520, size: 0x8, addend: 0x0, symName: __ZNSt3__16chrono8durationIxNS_5ratioILl1ELl1EEEEC2B7v160006IiEERKT_PNS_9enable_ifIXaasr14is_convertibleIS8_xEE5valueooL_ZNS_17integral_constantIbLb0EE5valueEEntsr23treat_as_floating_pointIS6_EE5valueEvE4typeE, symObjAddr: 0x33D0, symBinAddr: 0x1000058C0, symSize: 0x20 }
  - { offsetInCU: 0x6D56D, offset: 0x6D56D, size: 0x8, addend: 0x0, symName: __ZNSt3__16vectorINS_10unique_ptrIN6spdlog7details14flag_formatterENS_14default_deleteIS4_EEEENS_9allocatorIS7_EEEC2B7v160006Ev, symObjAddr: 0x33F0, symBinAddr: 0x1000058E0, symSize: 0x60 }
  - { offsetInCU: 0x6D59D, offset: 0x6D59D, size: 0x8, addend: 0x0, symName: __ZNSt3__117__compressed_pairIPNS_10unique_ptrIN6spdlog7details14flag_formatterENS_14default_deleteIS4_EEEENS_9allocatorIS7_EEEC1B7v160006IDnNS_18__default_init_tagEEEOT_OT0_, symObjAddr: 0x3450, symBinAddr: 0x100005940, symSize: 0x30 }
  - { offsetInCU: 0x6D5F5, offset: 0x6D5F5, size: 0x8, addend: 0x0, symName: __ZNSt3__117__compressed_pairIPNS_10unique_ptrIN6spdlog7details14flag_formatterENS_14default_deleteIS4_EEEENS_9allocatorIS7_EEEC2B7v160006IDnNS_18__default_init_tagEEEOT_OT0_, symObjAddr: 0x3490, symBinAddr: 0x100005980, symSize: 0x40 }
  - { offsetInCU: 0x6D64D, offset: 0x6D64D, size: 0x8, addend: 0x0, symName: __ZNSt3__122__compressed_pair_elemIPNS_10unique_ptrIN6spdlog7details14flag_formatterENS_14default_deleteIS4_EEEELi0ELb0EEC2B7v160006IDnvEEOT_, symObjAddr: 0x34D0, symBinAddr: 0x1000059C0, symSize: 0x20 }
  - { offsetInCU: 0x6D68F, offset: 0x6D68F, size: 0x8, addend: 0x0, symName: __ZNSt3__122__compressed_pair_elemINS_9allocatorINS_10unique_ptrIN6spdlog7details14flag_formatterENS_14default_deleteIS5_EEEEEELi1ELb1EEC2B7v160006ENS_18__default_init_tagE, symObjAddr: 0x34F0, symBinAddr: 0x1000059E0, symSize: 0x20 }
  - { offsetInCU: 0x6D6C4, offset: 0x6D6C4, size: 0x8, addend: 0x0, symName: __ZNSt3__19allocatorINS_10unique_ptrIN6spdlog7details14flag_formatterENS_14default_deleteIS4_EEEEEC2B7v160006Ev, symObjAddr: 0x3510, symBinAddr: 0x100005A00, symSize: 0x20 }
  - { offsetInCU: 0x6D6EE, offset: 0x6D6EE, size: 0x8, addend: 0x0, symName: __ZNSt3__116__non_trivial_ifILb1ENS_9allocatorINS_10unique_ptrIN6spdlog7details14flag_formatterENS_14default_deleteIS5_EEEEEEEC2B7v160006Ev, symObjAddr: 0x3530, symBinAddr: 0x100005A20, symSize: 0x10 }
  - { offsetInCU: 0x6D718, offset: 0x6D718, size: 0x8, addend: 0x0, symName: __ZNSt3__16vectorINS_10unique_ptrIN6spdlog7details14flag_formatterENS_14default_deleteIS4_EEEENS_9allocatorIS7_EEE9__end_capB7v160006Ev, symObjAddr: 0x3540, symBinAddr: 0x100005A30, symSize: 0x20 }
  - { offsetInCU: 0x6D73E, offset: 0x6D73E, size: 0x8, addend: 0x0, symName: __ZNSt3__16vectorINS_10unique_ptrIN6spdlog7details14flag_formatterENS_14default_deleteIS4_EEEENS_9allocatorIS7_EEE22__construct_one_at_endB7v160006IJS7_EEEvDpOT_, symObjAddr: 0x3560, symBinAddr: 0x100005A50, symSize: 0x90 }
  - { offsetInCU: 0x6D78D, offset: 0x6D78D, size: 0x8, addend: 0x0, symName: __ZNSt3__16vectorINS_10unique_ptrIN6spdlog7details14flag_formatterENS_14default_deleteIS4_EEEENS_9allocatorIS7_EEE21__push_back_slow_pathIS7_EEvOT_, symObjAddr: 0x35F0, symBinAddr: 0x100005AE0, symSize: 0xD0 }
  - { offsetInCU: 0x6D7EB, offset: 0x6D7EB, size: 0x8, addend: 0x0, symName: __ZNSt3__117__compressed_pairIPNS_10unique_ptrIN6spdlog7details14flag_formatterENS_14default_deleteIS4_EEEENS_9allocatorIS7_EEE5firstB7v160006Ev, symObjAddr: 0x36C0, symBinAddr: 0x100005BB0, symSize: 0x20 }
  - { offsetInCU: 0x6D811, offset: 0x6D811, size: 0x8, addend: 0x0, symName: __ZNSt3__122__compressed_pair_elemIPNS_10unique_ptrIN6spdlog7details14flag_formatterENS_14default_deleteIS4_EEEELi0ELb0EE5__getB7v160006Ev, symObjAddr: 0x36E0, symBinAddr: 0x100005BD0, symSize: 0x10 }
  - { offsetInCU: 0x6D853, offset: 0x6D853, size: 0x8, addend: 0x0, symName: __ZNSt3__16vectorINS_10unique_ptrIN6spdlog7details14flag_formatterENS_14default_deleteIS4_EEEENS_9allocatorIS7_EEE21_ConstructTransactionC1B7v160006ERSA_m, symObjAddr: 0x36F0, symBinAddr: 0x100005BE0, symSize: 0x30 }
  - { offsetInCU: 0x6D89B, offset: 0x6D89B, size: 0x8, addend: 0x0, symName: __ZNSt3__116allocator_traitsINS_9allocatorINS_10unique_ptrIN6spdlog7details14flag_formatterENS_14default_deleteIS5_EEEEEEE9constructB7v160006IS8_JS8_EvEEvRS9_PT_DpOT0_, symObjAddr: 0x3720, symBinAddr: 0x100005C10, symSize: 0x30 }
  - { offsetInCU: 0x6D8F2, offset: 0x6D8F2, size: 0x8, addend: 0x0, symName: __ZNSt3__16vectorINS_10unique_ptrIN6spdlog7details14flag_formatterENS_14default_deleteIS4_EEEENS_9allocatorIS7_EEE7__allocB7v160006Ev, symObjAddr: 0x3750, symBinAddr: 0x100005C40, symSize: 0x20 }
  - { offsetInCU: 0x6D918, offset: 0x6D918, size: 0x8, addend: 0x0, symName: __ZNSt3__16vectorINS_10unique_ptrIN6spdlog7details14flag_formatterENS_14default_deleteIS4_EEEENS_9allocatorIS7_EEE21_ConstructTransactionD1B7v160006Ev, symObjAddr: 0x3780, symBinAddr: 0x100005C70, symSize: 0x20 }
  - { offsetInCU: 0x6D942, offset: 0x6D942, size: 0x8, addend: 0x0, symName: __ZNSt3__16vectorINS_10unique_ptrIN6spdlog7details14flag_formatterENS_14default_deleteIS4_EEEENS_9allocatorIS7_EEE21_ConstructTransactionC2B7v160006ERSA_m, symObjAddr: 0x37A0, symBinAddr: 0x100005C90, symSize: 0x40 }
  - { offsetInCU: 0x6D98A, offset: 0x6D98A, size: 0x8, addend: 0x0, symName: __ZNSt3__19allocatorINS_10unique_ptrIN6spdlog7details14flag_formatterENS_14default_deleteIS4_EEEEE9constructB7v160006IS7_JS7_EEEvPT_DpOT0_, symObjAddr: 0x37E0, symBinAddr: 0x100005CD0, symSize: 0x30 }
  - { offsetInCU: 0x6D9E0, offset: 0x6D9E0, size: 0x8, addend: 0x0, symName: __ZNSt3__110unique_ptrIN6spdlog7details14flag_formatterENS_14default_deleteIS3_EEEC1B7v160006EOS6_, symObjAddr: 0x3810, symBinAddr: 0x100005D00, symSize: 0x30 }
  - { offsetInCU: 0x6DA18, offset: 0x6DA18, size: 0x8, addend: 0x0, symName: __ZNSt3__110unique_ptrIN6spdlog7details14flag_formatterENS_14default_deleteIS3_EEEC2B7v160006EOS6_, symObjAddr: 0x3840, symBinAddr: 0x100005D30, symSize: 0x60 }
  - { offsetInCU: 0x6DA50, offset: 0x6DA50, size: 0x8, addend: 0x0, symName: __ZNSt3__110unique_ptrIN6spdlog7details14flag_formatterENS_14default_deleteIS3_EEE7releaseB7v160006Ev, symObjAddr: 0x38A0, symBinAddr: 0x100005D90, symSize: 0x40 }
  - { offsetInCU: 0x6DA85, offset: 0x6DA85, size: 0x8, addend: 0x0, symName: __ZNSt3__110unique_ptrIN6spdlog7details14flag_formatterENS_14default_deleteIS3_EEE11get_deleterB7v160006Ev, symObjAddr: 0x38E0, symBinAddr: 0x100005DD0, symSize: 0x20 }
  - { offsetInCU: 0x6DAB7, offset: 0x6DAB7, size: 0x8, addend: 0x0, symName: __ZNSt3__117__compressed_pairIPN6spdlog7details14flag_formatterENS_14default_deleteIS3_EEEC1B7v160006IS4_S6_EEOT_OT0_, symObjAddr: 0x3900, symBinAddr: 0x100005DF0, symSize: 0x30 }
  - { offsetInCU: 0x6DB0F, offset: 0x6DB0F, size: 0x8, addend: 0x0, symName: __ZNSt3__117__compressed_pairIPN6spdlog7details14flag_formatterENS_14default_deleteIS3_EEE5firstB7v160006Ev, symObjAddr: 0x3930, symBinAddr: 0x100005E20, symSize: 0x20 }
  - { offsetInCU: 0x6DB35, offset: 0x6DB35, size: 0x8, addend: 0x0, symName: __ZNSt3__122__compressed_pair_elemIPN6spdlog7details14flag_formatterELi0ELb0EE5__getB7v160006Ev, symObjAddr: 0x3950, symBinAddr: 0x100005E40, symSize: 0x10 }
  - { offsetInCU: 0x6DB5B, offset: 0x6DB5B, size: 0x8, addend: 0x0, symName: __ZNSt3__117__compressed_pairIPN6spdlog7details14flag_formatterENS_14default_deleteIS3_EEE6secondB7v160006Ev, symObjAddr: 0x3960, symBinAddr: 0x100005E50, symSize: 0x20 }
  - { offsetInCU: 0x6DB81, offset: 0x6DB81, size: 0x8, addend: 0x0, symName: __ZNSt3__122__compressed_pair_elemINS_14default_deleteIN6spdlog7details14flag_formatterEEELi1ELb1EE5__getB7v160006Ev, symObjAddr: 0x3980, symBinAddr: 0x100005E70, symSize: 0x10 }
  - { offsetInCU: 0x6DBA7, offset: 0x6DBA7, size: 0x8, addend: 0x0, symName: __ZNSt3__117__compressed_pairIPN6spdlog7details14flag_formatterENS_14default_deleteIS3_EEEC2B7v160006IS4_S6_EEOT_OT0_, symObjAddr: 0x3990, symBinAddr: 0x100005E80, symSize: 0x40 }
  - { offsetInCU: 0x6DBFF, offset: 0x6DBFF, size: 0x8, addend: 0x0, symName: __ZNSt3__122__compressed_pair_elemIPN6spdlog7details14flag_formatterELi0ELb0EEC2B7v160006IS4_vEEOT_, symObjAddr: 0x39D0, symBinAddr: 0x100005EC0, symSize: 0x20 }
  - { offsetInCU: 0x6DC41, offset: 0x6DC41, size: 0x8, addend: 0x0, symName: __ZNSt3__122__compressed_pair_elemINS_14default_deleteIN6spdlog7details14flag_formatterEEELi1ELb1EEC2B7v160006IS5_vEEOT_, symObjAddr: 0x39F0, symBinAddr: 0x100005EE0, symSize: 0x10 }
  - { offsetInCU: 0x6DC83, offset: 0x6DC83, size: 0x8, addend: 0x0, symName: __ZNSt3__117__compressed_pairIPNS_10unique_ptrIN6spdlog7details14flag_formatterENS_14default_deleteIS4_EEEENS_9allocatorIS7_EEE6secondB7v160006Ev, symObjAddr: 0x3A00, symBinAddr: 0x100005EF0, symSize: 0x20 }
  - { offsetInCU: 0x6DCA9, offset: 0x6DCA9, size: 0x8, addend: 0x0, symName: __ZNSt3__122__compressed_pair_elemINS_9allocatorINS_10unique_ptrIN6spdlog7details14flag_formatterENS_14default_deleteIS5_EEEEEELi1ELb1EE5__getB7v160006Ev, symObjAddr: 0x3A20, symBinAddr: 0x100005F10, symSize: 0x10 }
  - { offsetInCU: 0x6DCCF, offset: 0x6DCCF, size: 0x8, addend: 0x0, symName: __ZNSt3__16vectorINS_10unique_ptrIN6spdlog7details14flag_formatterENS_14default_deleteIS4_EEEENS_9allocatorIS7_EEE21_ConstructTransactionD2B7v160006Ev, symObjAddr: 0x3A30, symBinAddr: 0x100005F20, symSize: 0x20 }
  - { offsetInCU: 0x6DCF9, offset: 0x6DCF9, size: 0x8, addend: 0x0, symName: __ZNKSt3__16vectorINS_10unique_ptrIN6spdlog7details14flag_formatterENS_14default_deleteIS4_EEEENS_9allocatorIS7_EEE11__recommendB7v160006Em, symObjAddr: 0x3A50, symBinAddr: 0x100005F40, symSize: 0xA0 }
  - { offsetInCU: 0x6DD4E, offset: 0x6DD4E, size: 0x8, addend: 0x0, symName: __ZNKSt3__16vectorINS_10unique_ptrIN6spdlog7details14flag_formatterENS_14default_deleteIS4_EEEENS_9allocatorIS7_EEE4sizeB7v160006Ev, symObjAddr: 0x3AF0, symBinAddr: 0x100005FE0, symSize: 0x20 }
  - { offsetInCU: 0x6DD74, offset: 0x6DD74, size: 0x8, addend: 0x0, symName: __ZNSt3__114__split_bufferINS_10unique_ptrIN6spdlog7details14flag_formatterENS_14default_deleteIS4_EEEERNS_9allocatorIS7_EEEC1EmmSA_, symObjAddr: 0x3B10, symBinAddr: 0x100006000, symSize: 0x40 }
  - { offsetInCU: 0x6DDCA, offset: 0x6DDCA, size: 0x8, addend: 0x0, symName: __ZNSt3__114__split_bufferINS_10unique_ptrIN6spdlog7details14flag_formatterENS_14default_deleteIS4_EEEERNS_9allocatorIS7_EEED1Ev, symObjAddr: 0x3C80, symBinAddr: 0x100006170, symSize: 0x20 }
  - { offsetInCU: 0x6DDF6, offset: 0x6DDF6, size: 0x8, addend: 0x0, symName: __ZNKSt3__16vectorINS_10unique_ptrIN6spdlog7details14flag_formatterENS_14default_deleteIS4_EEEENS_9allocatorIS7_EEE8max_sizeEv, symObjAddr: 0x3CA0, symBinAddr: 0x100006190, symSize: 0x60 }
  - { offsetInCU: 0x6DE1E, offset: 0x6DE1E, size: 0x8, addend: 0x0, symName: __ZNKSt3__16vectorINS_10unique_ptrIN6spdlog7details14flag_formatterENS_14default_deleteIS4_EEEENS_9allocatorIS7_EEE20__throw_length_errorB7v160006Ev, symObjAddr: 0x3D00, symBinAddr: 0x1000061F0, symSize: 0x20 }
  - { offsetInCU: 0x6DE44, offset: 0x6DE44, size: 0x8, addend: 0x0, symName: __ZNKSt3__16vectorINS_10unique_ptrIN6spdlog7details14flag_formatterENS_14default_deleteIS4_EEEENS_9allocatorIS7_EEE8capacityB7v160006Ev, symObjAddr: 0x3D20, symBinAddr: 0x100006210, symSize: 0x30 }
  - { offsetInCU: 0x6DE75, offset: 0x6DE75, size: 0x8, addend: 0x0, symName: __ZNSt3__116allocator_traitsINS_9allocatorINS_10unique_ptrIN6spdlog7details14flag_formatterENS_14default_deleteIS5_EEEEEEE8max_sizeB7v160006IS9_vEEmRKS9_, symObjAddr: 0x3DB0, symBinAddr: 0x1000062A0, symSize: 0x20 }
  - { offsetInCU: 0x6DEA3, offset: 0x6DEA3, size: 0x8, addend: 0x0, symName: __ZNKSt3__16vectorINS_10unique_ptrIN6spdlog7details14flag_formatterENS_14default_deleteIS4_EEEENS_9allocatorIS7_EEE7__allocB7v160006Ev, symObjAddr: 0x3DD0, symBinAddr: 0x1000062C0, symSize: 0x20 }
  - { offsetInCU: 0x6DEC9, offset: 0x6DEC9, size: 0x8, addend: 0x0, symName: __ZNSt3__114numeric_limitsIlE3maxB7v160006Ev, symObjAddr: 0x3DF0, symBinAddr: 0x1000062E0, symSize: 0x10 }
  - { offsetInCU: 0x6DEE8, offset: 0x6DEE8, size: 0x8, addend: 0x0, symName: __ZNKSt3__16__lessImmEclB7v160006ERKmS3_, symObjAddr: 0x3E50, symBinAddr: 0x100006340, symSize: 0x30 }
  - { offsetInCU: 0x6DF2A, offset: 0x6DF2A, size: 0x8, addend: 0x0, symName: __ZNKSt3__19allocatorINS_10unique_ptrIN6spdlog7details14flag_formatterENS_14default_deleteIS4_EEEEE8max_sizeB7v160006Ev, symObjAddr: 0x3E80, symBinAddr: 0x100006370, symSize: 0x20 }
  - { offsetInCU: 0x6DF50, offset: 0x6DF50, size: 0x8, addend: 0x0, symName: __ZNKSt3__117__compressed_pairIPNS_10unique_ptrIN6spdlog7details14flag_formatterENS_14default_deleteIS4_EEEENS_9allocatorIS7_EEE6secondB7v160006Ev, symObjAddr: 0x3EA0, symBinAddr: 0x100006390, symSize: 0x20 }
  - { offsetInCU: 0x6DF76, offset: 0x6DF76, size: 0x8, addend: 0x0, symName: __ZNKSt3__122__compressed_pair_elemINS_9allocatorINS_10unique_ptrIN6spdlog7details14flag_formatterENS_14default_deleteIS5_EEEEEELi1ELb1EE5__getB7v160006Ev, symObjAddr: 0x3EC0, symBinAddr: 0x1000063B0, symSize: 0x10 }
  - { offsetInCU: 0x6DF9C, offset: 0x6DF9C, size: 0x8, addend: 0x0, symName: __ZNSt3__123__libcpp_numeric_limitsIlLb1EE3maxB7v160006Ev, symObjAddr: 0x3ED0, symBinAddr: 0x1000063C0, symSize: 0x10 }
  - { offsetInCU: 0x6DFB0, offset: 0x6DFB0, size: 0x8, addend: 0x0, symName: __ZNSt12length_errorC1B7v160006EPKc, symObjAddr: 0x3F50, symBinAddr: 0x100006440, symSize: 0x30 }
  - { offsetInCU: 0x6DFE8, offset: 0x6DFE8, size: 0x8, addend: 0x0, symName: __ZNSt12length_errorC2B7v160006EPKc, symObjAddr: 0x3F80, symBinAddr: 0x100006470, symSize: 0x40 }
  - { offsetInCU: 0x6E020, offset: 0x6E020, size: 0x8, addend: 0x0, symName: __ZNKSt3__16vectorINS_10unique_ptrIN6spdlog7details14flag_formatterENS_14default_deleteIS4_EEEENS_9allocatorIS7_EEE9__end_capB7v160006Ev, symObjAddr: 0x3FC0, symBinAddr: 0x1000064B0, symSize: 0x20 }
  - { offsetInCU: 0x6E046, offset: 0x6E046, size: 0x8, addend: 0x0, symName: __ZNKSt3__117__compressed_pairIPNS_10unique_ptrIN6spdlog7details14flag_formatterENS_14default_deleteIS4_EEEENS_9allocatorIS7_EEE5firstB7v160006Ev, symObjAddr: 0x3FE0, symBinAddr: 0x1000064D0, symSize: 0x20 }
  - { offsetInCU: 0x6E06C, offset: 0x6E06C, size: 0x8, addend: 0x0, symName: __ZNKSt3__122__compressed_pair_elemIPNS_10unique_ptrIN6spdlog7details14flag_formatterENS_14default_deleteIS4_EEEELi0ELb0EE5__getB7v160006Ev, symObjAddr: 0x4000, symBinAddr: 0x1000064F0, symSize: 0x10 }
  - { offsetInCU: 0x6E092, offset: 0x6E092, size: 0x8, addend: 0x0, symName: __ZNSt3__114__split_bufferINS_10unique_ptrIN6spdlog7details14flag_formatterENS_14default_deleteIS4_EEEERNS_9allocatorIS7_EEEC2EmmSA_, symObjAddr: 0x4060, symBinAddr: 0x100006550, symSize: 0xD0 }
  - { offsetInCU: 0x6E105, offset: 0x6E105, size: 0x8, addend: 0x0, symName: __ZNSt3__117__compressed_pairIPNS_10unique_ptrIN6spdlog7details14flag_formatterENS_14default_deleteIS4_EEEERNS_9allocatorIS7_EEEC1B7v160006IDnSB_EEOT_OT0_, symObjAddr: 0x4130, symBinAddr: 0x100006620, symSize: 0x30 }
  - { offsetInCU: 0x6E15D, offset: 0x6E15D, size: 0x8, addend: 0x0, symName: __ZNSt3__114__split_bufferINS_10unique_ptrIN6spdlog7details14flag_formatterENS_14default_deleteIS4_EEEERNS_9allocatorIS7_EEE7__allocB7v160006Ev, symObjAddr: 0x41A0, symBinAddr: 0x100006690, symSize: 0x20 }
  - { offsetInCU: 0x6E183, offset: 0x6E183, size: 0x8, addend: 0x0, symName: __ZNSt3__114__split_bufferINS_10unique_ptrIN6spdlog7details14flag_formatterENS_14default_deleteIS4_EEEERNS_9allocatorIS7_EEE9__end_capB7v160006Ev, symObjAddr: 0x41C0, symBinAddr: 0x1000066B0, symSize: 0x20 }
  - { offsetInCU: 0x6E1A9, offset: 0x6E1A9, size: 0x8, addend: 0x0, symName: __ZNSt3__117__compressed_pairIPNS_10unique_ptrIN6spdlog7details14flag_formatterENS_14default_deleteIS4_EEEERNS_9allocatorIS7_EEEC2B7v160006IDnSB_EEOT_OT0_, symObjAddr: 0x41E0, symBinAddr: 0x1000066D0, symSize: 0x40 }
  - { offsetInCU: 0x6E201, offset: 0x6E201, size: 0x8, addend: 0x0, symName: __ZNSt3__122__compressed_pair_elemIRNS_9allocatorINS_10unique_ptrIN6spdlog7details14flag_formatterENS_14default_deleteIS5_EEEEEELi1ELb0EEC2B7v160006ISA_vEEOT_, symObjAddr: 0x4220, symBinAddr: 0x100006710, symSize: 0x20 }
  - { offsetInCU: 0x6E243, offset: 0x6E243, size: 0x8, addend: 0x0, symName: __ZNSt3__19allocatorINS_10unique_ptrIN6spdlog7details14flag_formatterENS_14default_deleteIS4_EEEEE8allocateB7v160006Em, symObjAddr: 0x4240, symBinAddr: 0x100006730, symSize: 0x50 }
  - { offsetInCU: 0x6E277, offset: 0x6E277, size: 0x8, addend: 0x0, symName: __ZNSt3__117__compressed_pairIPNS_10unique_ptrIN6spdlog7details14flag_formatterENS_14default_deleteIS4_EEEERNS_9allocatorIS7_EEE6secondB7v160006Ev, symObjAddr: 0x4310, symBinAddr: 0x100006800, symSize: 0x20 }
  - { offsetInCU: 0x6E29D, offset: 0x6E29D, size: 0x8, addend: 0x0, symName: __ZNSt3__122__compressed_pair_elemIRNS_9allocatorINS_10unique_ptrIN6spdlog7details14flag_formatterENS_14default_deleteIS5_EEEEEELi1ELb0EE5__getB7v160006Ev, symObjAddr: 0x4330, symBinAddr: 0x100006820, symSize: 0x20 }
  - { offsetInCU: 0x6E2C3, offset: 0x6E2C3, size: 0x8, addend: 0x0, symName: __ZNSt3__117__compressed_pairIPNS_10unique_ptrIN6spdlog7details14flag_formatterENS_14default_deleteIS4_EEEERNS_9allocatorIS7_EEE5firstB7v160006Ev, symObjAddr: 0x4350, symBinAddr: 0x100006840, symSize: 0x20 }
  - { offsetInCU: 0x6E2E9, offset: 0x6E2E9, size: 0x8, addend: 0x0, symName: __ZNKSt3__16vectorINS_10unique_ptrIN6spdlog7details14flag_formatterENS_14default_deleteIS4_EEEENS_9allocatorIS7_EEE17__annotate_deleteB7v160006Ev, symObjAddr: 0x4370, symBinAddr: 0x100006860, symSize: 0xB0 }
  - { offsetInCU: 0x6E30F, offset: 0x6E30F, size: 0x8, addend: 0x0, symName: __ZNSt3__116reverse_iteratorIPNS_10unique_ptrIN6spdlog7details14flag_formatterENS_14default_deleteIS4_EEEEEC1B7v160006ES8_, symObjAddr: 0x45A0, symBinAddr: 0x100006A90, symSize: 0x30 }
  - { offsetInCU: 0x6E347, offset: 0x6E347, size: 0x8, addend: 0x0, symName: __ZNKSt3__116reverse_iteratorIPNS_10unique_ptrIN6spdlog7details14flag_formatterENS_14default_deleteIS4_EEEEE4baseB7v160006Ev, symObjAddr: 0x45D0, symBinAddr: 0x100006AC0, symSize: 0x20 }
  - { offsetInCU: 0x6E36D, offset: 0x6E36D, size: 0x8, addend: 0x0, symName: __ZNKSt3__16vectorINS_10unique_ptrIN6spdlog7details14flag_formatterENS_14default_deleteIS4_EEEENS_9allocatorIS7_EEE14__annotate_newB7v160006Em, symObjAddr: 0x4630, symBinAddr: 0x100006B20, symSize: 0xB0 }
  - { offsetInCU: 0x6E3A2, offset: 0x6E3A2, size: 0x8, addend: 0x0, symName: __ZNKSt3__16vectorINS_10unique_ptrIN6spdlog7details14flag_formatterENS_14default_deleteIS4_EEEENS_9allocatorIS7_EEE31__annotate_contiguous_containerB7v160006EPKvSC_SC_SC_, symObjAddr: 0x46F0, symBinAddr: 0x100006BE0, symSize: 0x20 }
  - { offsetInCU: 0x6E3F8, offset: 0x6E3F8, size: 0x8, addend: 0x0, symName: __ZNKSt3__16vectorINS_10unique_ptrIN6spdlog7details14flag_formatterENS_14default_deleteIS4_EEEENS_9allocatorIS7_EEE4dataB7v160006Ev, symObjAddr: 0x4710, symBinAddr: 0x100006C00, symSize: 0x20 }
  - { offsetInCU: 0x6E41E, offset: 0x6E41E, size: 0x8, addend: 0x0, symName: __ZNSt3__129_AllocatorDestroyRangeReverseINS_9allocatorINS_10unique_ptrIN6spdlog7details14flag_formatterENS_14default_deleteIS5_EEEEEENS_16reverse_iteratorIPS8_EEEC1B7v160006ERS9_RSC_SF_, symObjAddr: 0x4790, symBinAddr: 0x100006C80, symSize: 0x40 }
  - { offsetInCU: 0x6E475, offset: 0x6E475, size: 0x8, addend: 0x0, symName: __ZNKSt3__116reverse_iteratorIPNS_10unique_ptrIN6spdlog7details14flag_formatterENS_14default_deleteIS4_EEEEEdeB7v160006Ev, symObjAddr: 0x4830, symBinAddr: 0x100006D20, symSize: 0x30 }
  - { offsetInCU: 0x6E4A9, offset: 0x6E4A9, size: 0x8, addend: 0x0, symName: __ZNSt3__116reverse_iteratorIPNS_10unique_ptrIN6spdlog7details14flag_formatterENS_14default_deleteIS4_EEEEEppB7v160006Ev, symObjAddr: 0x4860, symBinAddr: 0x100006D50, symSize: 0x20 }
  - { offsetInCU: 0x6E4CF, offset: 0x6E4CF, size: 0x8, addend: 0x0, symName: __ZNSt3__128__exception_guard_exceptionsINS_29_AllocatorDestroyRangeReverseINS_9allocatorINS_10unique_ptrIN6spdlog7details14flag_formatterENS_14default_deleteIS6_EEEEEENS_16reverse_iteratorIPS9_EEEEE10__completeB7v160006Ev, symObjAddr: 0x4880, symBinAddr: 0x100006D70, symSize: 0x20 }
  - { offsetInCU: 0x6E4F5, offset: 0x6E4F5, size: 0x8, addend: 0x0, symName: __ZNSt3__128__exception_guard_exceptionsINS_29_AllocatorDestroyRangeReverseINS_9allocatorINS_10unique_ptrIN6spdlog7details14flag_formatterENS_14default_deleteIS6_EEEEEENS_16reverse_iteratorIPS9_EEEEED1B7v160006Ev, symObjAddr: 0x48A0, symBinAddr: 0x100006D90, symSize: 0x20 }
  - { offsetInCU: 0x6E51F, offset: 0x6E51F, size: 0x8, addend: 0x0, symName: __ZNSt3__128__exception_guard_exceptionsINS_29_AllocatorDestroyRangeReverseINS_9allocatorINS_10unique_ptrIN6spdlog7details14flag_formatterENS_14default_deleteIS6_EEEEEENS_16reverse_iteratorIPS9_EEEEEC1B7v160006ESE_, symObjAddr: 0x48C0, symBinAddr: 0x100006DB0, symSize: 0x40 }
  - { offsetInCU: 0x6E557, offset: 0x6E557, size: 0x8, addend: 0x0, symName: __ZNSt3__128__exception_guard_exceptionsINS_29_AllocatorDestroyRangeReverseINS_9allocatorINS_10unique_ptrIN6spdlog7details14flag_formatterENS_14default_deleteIS6_EEEEEENS_16reverse_iteratorIPS9_EEEEEC2B7v160006ESE_, symObjAddr: 0x4900, symBinAddr: 0x100006DF0, symSize: 0x30 }
  - { offsetInCU: 0x6E58F, offset: 0x6E58F, size: 0x8, addend: 0x0, symName: __ZNSt3__129_AllocatorDestroyRangeReverseINS_9allocatorINS_10unique_ptrIN6spdlog7details14flag_formatterENS_14default_deleteIS5_EEEEEENS_16reverse_iteratorIPS8_EEEC2B7v160006ERS9_RSC_SF_, symObjAddr: 0x4930, symBinAddr: 0x100006E20, symSize: 0x40 }
  - { offsetInCU: 0x6E5EC, offset: 0x6E5EC, size: 0x8, addend: 0x0, symName: __ZNSt3__119__to_address_helperINS_16reverse_iteratorIPNS_10unique_ptrIN6spdlog7details14flag_formatterENS_14default_deleteIS5_EEEEEEvE6__callB7v160006ERKSA_, symObjAddr: 0x4970, symBinAddr: 0x100006E60, symSize: 0x40 }
  - { offsetInCU: 0x6E60F, offset: 0x6E60F, size: 0x8, addend: 0x0, symName: __ZNKSt3__116reverse_iteratorIPNS_10unique_ptrIN6spdlog7details14flag_formatterENS_14default_deleteIS4_EEEEEptB7v160006Ev, symObjAddr: 0x49B0, symBinAddr: 0x100006EA0, symSize: 0x20 }
  - { offsetInCU: 0x6E635, offset: 0x6E635, size: 0x8, addend: 0x0, symName: __ZNSt3__128__exception_guard_exceptionsINS_29_AllocatorDestroyRangeReverseINS_9allocatorINS_10unique_ptrIN6spdlog7details14flag_formatterENS_14default_deleteIS6_EEEEEENS_16reverse_iteratorIPS9_EEEEED2B7v160006Ev, symObjAddr: 0x49D0, symBinAddr: 0x100006EC0, symSize: 0x40 }
  - { offsetInCU: 0x6E65F, offset: 0x6E65F, size: 0x8, addend: 0x0, symName: __ZNKSt3__129_AllocatorDestroyRangeReverseINS_9allocatorINS_10unique_ptrIN6spdlog7details14flag_formatterENS_14default_deleteIS5_EEEEEENS_16reverse_iteratorIPS8_EEEclB7v160006Ev, symObjAddr: 0x4A10, symBinAddr: 0x100006F00, symSize: 0xF0 }
  - { offsetInCU: 0x6E686, offset: 0x6E686, size: 0x8, addend: 0x0, symName: __ZNSt3__116reverse_iteratorINS0_IPNS_10unique_ptrIN6spdlog7details14flag_formatterENS_14default_deleteIS4_EEEEEEEC1B7v160006ES9_, symObjAddr: 0x4B70, symBinAddr: 0x100007060, symSize: 0x30 }
  - { offsetInCU: 0x6E6BE, offset: 0x6E6BE, size: 0x8, addend: 0x0, symName: __ZNSt3__116allocator_traitsINS_9allocatorINS_10unique_ptrIN6spdlog7details14flag_formatterENS_14default_deleteIS5_EEEEEEE7destroyB7v160006IS8_vEEvRS9_PT_, symObjAddr: 0x4BF0, symBinAddr: 0x1000070E0, symSize: 0x30 }
  - { offsetInCU: 0x6E6FB, offset: 0x6E6FB, size: 0x8, addend: 0x0, symName: __ZNSt3__116reverse_iteratorINS0_IPNS_10unique_ptrIN6spdlog7details14flag_formatterENS_14default_deleteIS4_EEEEEEEppB7v160006Ev, symObjAddr: 0x4C40, symBinAddr: 0x100007130, symSize: 0x30 }
  - { offsetInCU: 0x6E721, offset: 0x6E721, size: 0x8, addend: 0x0, symName: __ZNKSt3__116reverse_iteratorINS0_IPNS_10unique_ptrIN6spdlog7details14flag_formatterENS_14default_deleteIS4_EEEEEEE4baseB7v160006Ev, symObjAddr: 0x4C70, symBinAddr: 0x100007160, symSize: 0x20 }
  - { offsetInCU: 0x6E747, offset: 0x6E747, size: 0x8, addend: 0x0, symName: __ZNSt3__19allocatorINS_10unique_ptrIN6spdlog7details14flag_formatterENS_14default_deleteIS4_EEEEE7destroyB7v160006EPS7_, symObjAddr: 0x4C90, symBinAddr: 0x100007180, symSize: 0x20 }
  - { offsetInCU: 0x6E781, offset: 0x6E781, size: 0x8, addend: 0x0, symName: __ZNSt3__119__to_address_helperINS_16reverse_iteratorINS1_IPNS_10unique_ptrIN6spdlog7details14flag_formatterENS_14default_deleteIS5_EEEEEEEEvE6__callB7v160006ERKSB_, symObjAddr: 0x4CB0, symBinAddr: 0x1000071A0, symSize: 0x40 }
  - { offsetInCU: 0x6E7A4, offset: 0x6E7A4, size: 0x8, addend: 0x0, symName: __ZNKSt3__116reverse_iteratorINS0_IPNS_10unique_ptrIN6spdlog7details14flag_formatterENS_14default_deleteIS4_EEEEEEEptB7v160006Ev, symObjAddr: 0x4CF0, symBinAddr: 0x1000071E0, symSize: 0x20 }
  - { offsetInCU: 0x6E7CA, offset: 0x6E7CA, size: 0x8, addend: 0x0, symName: __ZNKSt3__116reverse_iteratorINS0_IPNS_10unique_ptrIN6spdlog7details14flag_formatterENS_14default_deleteIS4_EEEEEEEdeB7v160006Ev, symObjAddr: 0x4D10, symBinAddr: 0x100007200, symSize: 0x40 }
  - { offsetInCU: 0x6E7FE, offset: 0x6E7FE, size: 0x8, addend: 0x0, symName: __ZNSt3__116reverse_iteratorIPNS_10unique_ptrIN6spdlog7details14flag_formatterENS_14default_deleteIS4_EEEEEmmB7v160006Ev, symObjAddr: 0x4D50, symBinAddr: 0x100007240, symSize: 0x20 }
  - { offsetInCU: 0x6E824, offset: 0x6E824, size: 0x8, addend: 0x0, symName: __ZNSt3__116reverse_iteratorINS0_IPNS_10unique_ptrIN6spdlog7details14flag_formatterENS_14default_deleteIS4_EEEEEEEC2B7v160006ES9_, symObjAddr: 0x4D70, symBinAddr: 0x100007260, symSize: 0x40 }
  - { offsetInCU: 0x6E85C, offset: 0x6E85C, size: 0x8, addend: 0x0, symName: __ZNSt3__116reverse_iteratorIPNS_10unique_ptrIN6spdlog7details14flag_formatterENS_14default_deleteIS4_EEEEEC2B7v160006ES8_, symObjAddr: 0x4DB0, symBinAddr: 0x1000072A0, symSize: 0x30 }
  - { offsetInCU: 0x6E894, offset: 0x6E894, size: 0x8, addend: 0x0, symName: __ZNSt3__114__split_bufferINS_10unique_ptrIN6spdlog7details14flag_formatterENS_14default_deleteIS4_EEEERNS_9allocatorIS7_EEED2Ev, symObjAddr: 0x4DE0, symBinAddr: 0x1000072D0, symSize: 0x70 }
  - { offsetInCU: 0x6E8C0, offset: 0x6E8C0, size: 0x8, addend: 0x0, symName: __ZNSt3__114__split_bufferINS_10unique_ptrIN6spdlog7details14flag_formatterENS_14default_deleteIS4_EEEERNS_9allocatorIS7_EEE5clearB7v160006Ev, symObjAddr: 0x4E50, symBinAddr: 0x100007340, symSize: 0x20 }
  - { offsetInCU: 0x6E8E6, offset: 0x6E8E6, size: 0x8, addend: 0x0, symName: __ZNSt3__116allocator_traitsINS_9allocatorINS_10unique_ptrIN6spdlog7details14flag_formatterENS_14default_deleteIS5_EEEEEEE10deallocateB7v160006ERS9_PS8_m, symObjAddr: 0x4E70, symBinAddr: 0x100007360, symSize: 0x30 }
  - { offsetInCU: 0x6E928, offset: 0x6E928, size: 0x8, addend: 0x0, symName: __ZNKSt3__114__split_bufferINS_10unique_ptrIN6spdlog7details14flag_formatterENS_14default_deleteIS4_EEEERNS_9allocatorIS7_EEE8capacityB7v160006Ev, symObjAddr: 0x4EA0, symBinAddr: 0x100007390, symSize: 0x30 }
  - { offsetInCU: 0x6E94E, offset: 0x6E94E, size: 0x8, addend: 0x0, symName: __ZNSt3__114__split_bufferINS_10unique_ptrIN6spdlog7details14flag_formatterENS_14default_deleteIS4_EEEERNS_9allocatorIS7_EEE17__destruct_at_endB7v160006EPS7_, symObjAddr: 0x4ED0, symBinAddr: 0x1000073C0, symSize: 0x30 }
  - { offsetInCU: 0x6E982, offset: 0x6E982, size: 0x8, addend: 0x0, symName: __ZNSt3__114__split_bufferINS_10unique_ptrIN6spdlog7details14flag_formatterENS_14default_deleteIS4_EEEERNS_9allocatorIS7_EEE17__destruct_at_endB7v160006EPS7_NS_17integral_constantIbLb0EEE, symObjAddr: 0x4F00, symBinAddr: 0x1000073F0, symSize: 0x80 }
  - { offsetInCU: 0x6E9C3, offset: 0x6E9C3, size: 0x8, addend: 0x0, symName: __ZNSt3__19allocatorINS_10unique_ptrIN6spdlog7details14flag_formatterENS_14default_deleteIS4_EEEEE10deallocateB7v160006EPS7_m, symObjAddr: 0x4F80, symBinAddr: 0x100007470, symSize: 0x40 }
  - { offsetInCU: 0x6EA05, offset: 0x6EA05, size: 0x8, addend: 0x0, symName: __ZNKSt3__114__split_bufferINS_10unique_ptrIN6spdlog7details14flag_formatterENS_14default_deleteIS4_EEEERNS_9allocatorIS7_EEE9__end_capB7v160006Ev, symObjAddr: 0x5030, symBinAddr: 0x100007520, symSize: 0x20 }
  - { offsetInCU: 0x6EA2B, offset: 0x6EA2B, size: 0x8, addend: 0x0, symName: __ZNKSt3__117__compressed_pairIPNS_10unique_ptrIN6spdlog7details14flag_formatterENS_14default_deleteIS4_EEEERNS_9allocatorIS7_EEE5firstB7v160006Ev, symObjAddr: 0x5050, symBinAddr: 0x100007540, symSize: 0x20 }
  - { offsetInCU: 0x6EA51, offset: 0x6EA51, size: 0x8, addend: 0x0, symName: __ZN6spdlog7details14full_formatterC1ENS0_12padding_infoE, symObjAddr: 0x5070, symBinAddr: 0x100007560, symSize: 0x30 }
  - { offsetInCU: 0x6EA8A, offset: 0x6EA8A, size: 0x8, addend: 0x0, symName: __ZNSt3__110unique_ptrIN6spdlog7details14full_formatterENS_14default_deleteIS3_EEEC1B7v160006ILb1EvEEPS3_, symObjAddr: 0x50A0, symBinAddr: 0x100007590, symSize: 0x30 }
  - { offsetInCU: 0x6EACD, offset: 0x6EACD, size: 0x8, addend: 0x0, symName: __ZN6spdlog7details14full_formatterC2ENS0_12padding_infoE, symObjAddr: 0x50D0, symBinAddr: 0x1000075C0, symSize: 0x110 }
  - { offsetInCU: 0x6EB06, offset: 0x6EB06, size: 0x8, addend: 0x0, symName: __ZN6spdlog7details14flag_formatterC2ENS0_12padding_infoE, symObjAddr: 0x51E0, symBinAddr: 0x1000076D0, symSize: 0x40 }
  - { offsetInCU: 0x6EB3E, offset: 0x6EB3E, size: 0x8, addend: 0x0, symName: __ZNSt3__19allocatorIcEC1B7v160006Ev, symObjAddr: 0x5220, symBinAddr: 0x100007710, symSize: 0x20 }
  - { offsetInCU: 0x6EB68, offset: 0x6EB68, size: 0x8, addend: 0x0, symName: __ZN3fmt3v1119basic_memory_bufferIcLm250ENSt3__19allocatorIcEEEC1ERKS4_, symObjAddr: 0x5240, symBinAddr: 0x100007730, symSize: 0x30 }
  - { offsetInCU: 0x6EBA1, offset: 0x6EBA1, size: 0x8, addend: 0x0, symName: __ZN6spdlog7details13mdc_formatterINS0_18null_scoped_padderEEC1ENS0_12padding_infoE, symObjAddr: 0x5270, symBinAddr: 0x100007760, symSize: 0x30 }
  - { offsetInCU: 0x6EBDA, offset: 0x6EBDA, size: 0x8, addend: 0x0, symName: __ZN3fmt3v1119basic_memory_bufferIcLm250ENSt3__19allocatorIcEEED1Ev, symObjAddr: 0x52A0, symBinAddr: 0x100007790, symSize: 0x20 }
  - { offsetInCU: 0x6EC04, offset: 0x6EC04, size: 0x8, addend: 0x0, symName: __ZN6spdlog7details14flag_formatterD2Ev, symObjAddr: 0x52C0, symBinAddr: 0x1000077B0, symSize: 0x10 }
  - { offsetInCU: 0x6EC2E, offset: 0x6EC2E, size: 0x8, addend: 0x0, symName: __ZN6spdlog7details14full_formatterD1Ev, symObjAddr: 0x52D0, symBinAddr: 0x1000077C0, symSize: 0x20 }
  - { offsetInCU: 0x6EC5B, offset: 0x6EC5B, size: 0x8, addend: 0x0, symName: __ZN6spdlog7details14full_formatterD0Ev, symObjAddr: 0x52F0, symBinAddr: 0x1000077E0, symSize: 0x30 }
  - { offsetInCU: 0x6EC88, offset: 0x6EC88, size: 0x8, addend: 0x0, symName: __ZN6spdlog7details14full_formatter6formatERKNS0_7log_msgERK2tmRN3fmt3v1119basic_memory_bufferIcLm250ENSt3__19allocatorIcEEEE, symObjAddr: 0x5320, symBinAddr: 0x100007810, symSize: 0x4E0 }
  - { offsetInCU: 0x6ED48, offset: 0x6ED48, size: 0x8, addend: 0x0, symName: __ZN6spdlog7details14flag_formatterD1Ev, symObjAddr: 0x5800, symBinAddr: 0x100007CF0, symSize: 0x10 }
  - { offsetInCU: 0x6ED72, offset: 0x6ED72, size: 0x8, addend: 0x0, symName: __ZN6spdlog7details14flag_formatterD0Ev, symObjAddr: 0x5810, symBinAddr: 0x100007D00, symSize: 0x10 }
  - { offsetInCU: 0x6ED9C, offset: 0x6ED9C, size: 0x8, addend: 0x0, symName: __ZN3fmt3v1119basic_memory_bufferIcLm250ENSt3__19allocatorIcEEEC2ERKS4_, symObjAddr: 0x5820, symBinAddr: 0x100007D10, symSize: 0x50 }
  - { offsetInCU: 0x6EDD5, offset: 0x6EDD5, size: 0x8, addend: 0x0, symName: __ZN3fmt3v1119basic_memory_bufferIcLm250ENSt3__19allocatorIcEEE4growERNS0_6detail6bufferIcEEm, symObjAddr: 0x5870, symBinAddr: 0x100007D60, symSize: 0x170 }
  - { offsetInCU: 0x6EE62, offset: 0x6EE62, size: 0x8, addend: 0x0, symName: __ZN3fmt3v116detail6bufferIcEC2EPFvRS3_mEPcmm, symObjAddr: 0x59E0, symBinAddr: 0x100007ED0, symSize: 0x40 }
  - { offsetInCU: 0x6EEC8, offset: 0x6EEC8, size: 0x8, addend: 0x0, symName: __ZN3fmt3v116detail6bufferIcE3setEPcm, symObjAddr: 0x5A20, symBinAddr: 0x100007F10, symSize: 0x30 }
  - { offsetInCU: 0x6EF17, offset: 0x6EF17, size: 0x8, addend: 0x0, symName: __ZNSt3__116allocator_traitsINS_9allocatorIcEEE8max_sizeB7v160006IS2_vEEmRKS2_, symObjAddr: 0x5A70, symBinAddr: 0x100007F60, symSize: 0x20 }
  - { offsetInCU: 0x6EF45, offset: 0x6EF45, size: 0x8, addend: 0x0, symName: __ZNK3fmt3v116detail6bufferIcE8capacityEv, symObjAddr: 0x5A90, symBinAddr: 0x100007F80, symSize: 0x20 }
  - { offsetInCU: 0x6EF6B, offset: 0x6EF6B, size: 0x8, addend: 0x0, symName: __ZN3fmt3v116detail6bufferIcE4dataEv, symObjAddr: 0x5AB0, symBinAddr: 0x100007FA0, symSize: 0x20 }
  - { offsetInCU: 0x6EF91, offset: 0x6EF91, size: 0x8, addend: 0x0, symName: __ZNSt3__19allocatorIcE8allocateB7v160006Em, symObjAddr: 0x5AD0, symBinAddr: 0x100007FC0, symSize: 0x50 }
  - { offsetInCU: 0x6EFC5, offset: 0x6EFC5, size: 0x8, addend: 0x0, symName: __ZNK3fmt3v116detail6bufferIcE4sizeEv, symObjAddr: 0x5B30, symBinAddr: 0x100008020, symSize: 0x20 }
  - { offsetInCU: 0x6EFEB, offset: 0x6EFEB, size: 0x8, addend: 0x0, symName: __ZNSt3__19allocatorIcE10deallocateB7v160006EPcm, symObjAddr: 0x5B50, symBinAddr: 0x100008040, symSize: 0x40 }
  - { offsetInCU: 0x6F02D, offset: 0x6F02D, size: 0x8, addend: 0x0, symName: __ZNKSt3__19allocatorIcE8max_sizeB7v160006Ev, symObjAddr: 0x5BA0, symBinAddr: 0x100008090, symSize: 0x20 }
  - { offsetInCU: 0x6F053, offset: 0x6F053, size: 0x8, addend: 0x0, symName: __ZN6spdlog7details13mdc_formatterINS0_18null_scoped_padderEEC2ENS0_12padding_infoE, symObjAddr: 0x5BC0, symBinAddr: 0x1000080B0, symSize: 0x60 }
  - { offsetInCU: 0x6F08C, offset: 0x6F08C, size: 0x8, addend: 0x0, symName: __ZN6spdlog7details13mdc_formatterINS0_18null_scoped_padderEED1Ev, symObjAddr: 0x5C20, symBinAddr: 0x100008110, symSize: 0x20 }
  - { offsetInCU: 0x6F0B9, offset: 0x6F0B9, size: 0x8, addend: 0x0, symName: __ZN6spdlog7details13mdc_formatterINS0_18null_scoped_padderEED0Ev, symObjAddr: 0x5C40, symBinAddr: 0x100008130, symSize: 0x30 }
  - { offsetInCU: 0x6F0E6, offset: 0x6F0E6, size: 0x8, addend: 0x0, symName: __ZN6spdlog7details13mdc_formatterINS0_18null_scoped_padderEE6formatERKNS0_7log_msgERK2tmRN3fmt3v1119basic_memory_bufferIcLm250ENSt3__19allocatorIcEEEE, symObjAddr: 0x5C70, symBinAddr: 0x100008160, symSize: 0x80 }
  - { offsetInCU: 0x6F15F, offset: 0x6F15F, size: 0x8, addend: 0x0, symName: __ZN6spdlog7details13mdc_formatterINS0_18null_scoped_padderEED2Ev, symObjAddr: 0x5CF0, symBinAddr: 0x1000081E0, symSize: 0x20 }
  - { offsetInCU: 0x6F18C, offset: 0x6F18C, size: 0x8, addend: 0x0, symName: __ZNKSt3__13mapINS_12basic_stringIcNS_11char_traitsIcEENS_9allocatorIcEEEES6_NS_4lessIS6_EENS4_INS_4pairIKS6_S6_EEEEE5emptyB7v160006Ev, symObjAddr: 0x5D80, symBinAddr: 0x100008270, symSize: 0x30 }
  - { offsetInCU: 0x6F1B2, offset: 0x6F1B2, size: 0x8, addend: 0x0, symName: __ZN6spdlog7details18null_scoped_padderC1EmRKNS0_12padding_infoERN3fmt3v1119basic_memory_bufferIcLm250ENSt3__19allocatorIcEEEE, symObjAddr: 0x5DB0, symBinAddr: 0x1000082A0, symSize: 0x40 }
  - { offsetInCU: 0x6F1FD, offset: 0x6F1FD, size: 0x8, addend: 0x0, symName: __ZN6spdlog7details13mdc_formatterINS0_18null_scoped_padderEE10format_mdcERKNSt3__13mapINS4_12basic_stringIcNS4_11char_traitsIcEENS4_9allocatorIcEEEESB_NS4_4lessISB_EENS9_INS4_4pairIKSB_SB_EEEEEERN3fmt3v1119basic_memory_bufferIcLm250ESA_EE, symObjAddr: 0x5DF0, symBinAddr: 0x1000082E0, symSize: 0x1D0 }
  - { offsetInCU: 0x6F2CA, offset: 0x6F2CA, size: 0x8, addend: 0x0, symName: __ZNSt3__13mapINS_12basic_stringIcNS_11char_traitsIcEENS_9allocatorIcEEEES6_NS_4lessIS6_EENS4_INS_4pairIKS6_S6_EEEEEC1B7v160006Ev, symObjAddr: 0x5FC0, symBinAddr: 0x1000084B0, symSize: 0x20 }
  - { offsetInCU: 0x6F2F4, offset: 0x6F2F4, size: 0x8, addend: 0x0, symName: __ZNSt3__13mapINS_12basic_stringIcNS_11char_traitsIcEENS_9allocatorIcEEEES6_NS_4lessIS6_EENS4_INS_4pairIKS6_S6_EEEEED1B7v160006Ev, symObjAddr: 0x5FE0, symBinAddr: 0x1000084D0, symSize: 0x20 }
  - { offsetInCU: 0x6F31E, offset: 0x6F31E, size: 0x8, addend: 0x0, symName: __ZNSt3__13mapINS_12basic_stringIcNS_11char_traitsIcEENS_9allocatorIcEEEES6_NS_4lessIS6_EENS4_INS_4pairIKS6_S6_EEEEEC2B7v160006Ev, symObjAddr: 0x6000, symBinAddr: 0x1000084F0, symSize: 0x30 }
  - { offsetInCU: 0x6F348, offset: 0x6F348, size: 0x8, addend: 0x0, symName: __ZNSt3__119__map_value_compareINS_12basic_stringIcNS_11char_traitsIcEENS_9allocatorIcEEEENS_12__value_typeIS6_S6_EENS_4lessIS6_EELb1EEC1B7v160006ESA_, symObjAddr: 0x6030, symBinAddr: 0x100008520, symSize: 0x20 }
  - { offsetInCU: 0x6F381, offset: 0x6F381, size: 0x8, addend: 0x0, symName: __ZNSt3__16__treeINS_12__value_typeINS_12basic_stringIcNS_11char_traitsIcEENS_9allocatorIcEEEES7_EENS_19__map_value_compareIS7_S8_NS_4lessIS7_EELb1EEENS5_IS8_EEEC1ERKSC_, symObjAddr: 0x6050, symBinAddr: 0x100008540, symSize: 0x30 }
  - { offsetInCU: 0x6F3BC, offset: 0x6F3BC, size: 0x8, addend: 0x0, symName: __ZNSt3__119__map_value_compareINS_12basic_stringIcNS_11char_traitsIcEENS_9allocatorIcEEEENS_12__value_typeIS6_S6_EENS_4lessIS6_EELb1EEC2B7v160006ESA_, symObjAddr: 0x6080, symBinAddr: 0x100008570, symSize: 0x10 }
  - { offsetInCU: 0x6F3F5, offset: 0x6F3F5, size: 0x8, addend: 0x0, symName: __ZNSt3__16__treeINS_12__value_typeINS_12basic_stringIcNS_11char_traitsIcEENS_9allocatorIcEEEES7_EENS_19__map_value_compareIS7_S8_NS_4lessIS7_EELb1EEENS5_IS8_EEEC2ERKSC_, symObjAddr: 0x6090, symBinAddr: 0x100008580, symSize: 0x80 }
  - { offsetInCU: 0x6F430, offset: 0x6F430, size: 0x8, addend: 0x0, symName: __ZNSt3__117__compressed_pairINS_15__tree_end_nodeIPNS_16__tree_node_baseIPvEEEENS_9allocatorINS_11__tree_nodeINS_12__value_typeINS_12basic_stringIcNS_11char_traitsIcEENS7_IcEEEESE_EES3_EEEEEC1B7v160006ILb1EvEEv, symObjAddr: 0x6110, symBinAddr: 0x100008600, symSize: 0x20 }
  - { offsetInCU: 0x6F465, offset: 0x6F465, size: 0x8, addend: 0x0, symName: __ZNSt3__117__compressed_pairImNS_19__map_value_compareINS_12basic_stringIcNS_11char_traitsIcEENS_9allocatorIcEEEENS_12__value_typeIS7_S7_EENS_4lessIS7_EELb1EEEEC1B7v160006IiRKSC_EEOT_OT0_, symObjAddr: 0x6130, symBinAddr: 0x100008620, symSize: 0x30 }
  - { offsetInCU: 0x6F4BD, offset: 0x6F4BD, size: 0x8, addend: 0x0, symName: __ZNSt3__16__treeINS_12__value_typeINS_12basic_stringIcNS_11char_traitsIcEENS_9allocatorIcEEEES7_EENS_19__map_value_compareIS7_S8_NS_4lessIS7_EELb1EEENS5_IS8_EEE10__end_nodeB7v160006Ev, symObjAddr: 0x6160, symBinAddr: 0x100008650, symSize: 0x30 }
  - { offsetInCU: 0x6F4E3, offset: 0x6F4E3, size: 0x8, addend: 0x0, symName: __ZNSt3__16__treeINS_12__value_typeINS_12basic_stringIcNS_11char_traitsIcEENS_9allocatorIcEEEES7_EENS_19__map_value_compareIS7_S8_NS_4lessIS7_EELb1EEENS5_IS8_EEE12__begin_nodeB7v160006Ev, symObjAddr: 0x6190, symBinAddr: 0x100008680, symSize: 0x10 }
  - { offsetInCU: 0x6F509, offset: 0x6F509, size: 0x8, addend: 0x0, symName: __ZNSt3__117__compressed_pairINS_15__tree_end_nodeIPNS_16__tree_node_baseIPvEEEENS_9allocatorINS_11__tree_nodeINS_12__value_typeINS_12basic_stringIcNS_11char_traitsIcEENS7_IcEEEESE_EES3_EEEEEC2B7v160006ILb1EvEEv, symObjAddr: 0x61A0, symBinAddr: 0x100008690, symSize: 0x30 }
  - { offsetInCU: 0x6F53E, offset: 0x6F53E, size: 0x8, addend: 0x0, symName: __ZNSt3__122__compressed_pair_elemINS_15__tree_end_nodeIPNS_16__tree_node_baseIPvEEEELi0ELb0EEC2B7v160006ENS_16__value_init_tagE, symObjAddr: 0x61D0, symBinAddr: 0x1000086C0, symSize: 0x20 }
  - { offsetInCU: 0x6F573, offset: 0x6F573, size: 0x8, addend: 0x0, symName: __ZNSt3__122__compressed_pair_elemINS_9allocatorINS_11__tree_nodeINS_12__value_typeINS_12basic_stringIcNS_11char_traitsIcEENS1_IcEEEES8_EEPvEEEELi1ELb1EEC2B7v160006ENS_16__value_init_tagE, symObjAddr: 0x61F0, symBinAddr: 0x1000086E0, symSize: 0x20 }
  - { offsetInCU: 0x6F5A8, offset: 0x6F5A8, size: 0x8, addend: 0x0, symName: __ZNSt3__115__tree_end_nodeIPNS_16__tree_node_baseIPvEEEC1B7v160006Ev, symObjAddr: 0x6210, symBinAddr: 0x100008700, symSize: 0x20 }
  - { offsetInCU: 0x6F5D2, offset: 0x6F5D2, size: 0x8, addend: 0x0, symName: __ZNSt3__115__tree_end_nodeIPNS_16__tree_node_baseIPvEEEC2B7v160006Ev, symObjAddr: 0x6230, symBinAddr: 0x100008720, symSize: 0x20 }
  - { offsetInCU: 0x6F5FC, offset: 0x6F5FC, size: 0x8, addend: 0x0, symName: __ZNSt3__19allocatorINS_11__tree_nodeINS_12__value_typeINS_12basic_stringIcNS_11char_traitsIcEENS0_IcEEEES7_EEPvEEEC2B7v160006Ev, symObjAddr: 0x6250, symBinAddr: 0x100008740, symSize: 0x20 }
  - { offsetInCU: 0x6F626, offset: 0x6F626, size: 0x8, addend: 0x0, symName: __ZNSt3__116__non_trivial_ifILb1ENS_9allocatorINS_11__tree_nodeINS_12__value_typeINS_12basic_stringIcNS_11char_traitsIcEENS1_IcEEEES8_EEPvEEEEEC2B7v160006Ev, symObjAddr: 0x6270, symBinAddr: 0x100008760, symSize: 0x10 }
  - { offsetInCU: 0x6F650, offset: 0x6F650, size: 0x8, addend: 0x0, symName: __ZNSt3__117__compressed_pairImNS_19__map_value_compareINS_12basic_stringIcNS_11char_traitsIcEENS_9allocatorIcEEEENS_12__value_typeIS7_S7_EENS_4lessIS7_EELb1EEEEC2B7v160006IiRKSC_EEOT_OT0_, symObjAddr: 0x6280, symBinAddr: 0x100008770, symSize: 0x40 }
  - { offsetInCU: 0x6F6A8, offset: 0x6F6A8, size: 0x8, addend: 0x0, symName: __ZNSt3__122__compressed_pair_elemINS_19__map_value_compareINS_12basic_stringIcNS_11char_traitsIcEENS_9allocatorIcEEEENS_12__value_typeIS7_S7_EENS_4lessIS7_EELb1EEELi1ELb1EEC2B7v160006IRKSC_vEEOT_, symObjAddr: 0x62C0, symBinAddr: 0x1000087B0, symSize: 0x10 }
  - { offsetInCU: 0x6F6EA, offset: 0x6F6EA, size: 0x8, addend: 0x0, symName: __ZNSt3__114pointer_traitsIPNS_15__tree_end_nodeIPNS_16__tree_node_baseIPvEEEEE10pointer_toB7v160006ERS6_, symObjAddr: 0x62D0, symBinAddr: 0x1000087C0, symSize: 0x10 }
  - { offsetInCU: 0x6F70D, offset: 0x6F70D, size: 0x8, addend: 0x0, symName: __ZNSt3__117__compressed_pairINS_15__tree_end_nodeIPNS_16__tree_node_baseIPvEEEENS_9allocatorINS_11__tree_nodeINS_12__value_typeINS_12basic_stringIcNS_11char_traitsIcEENS7_IcEEEESE_EES3_EEEEE5firstB7v160006Ev, symObjAddr: 0x62E0, symBinAddr: 0x1000087D0, symSize: 0x20 }
  - { offsetInCU: 0x6F733, offset: 0x6F733, size: 0x8, addend: 0x0, symName: __ZNSt3__122__compressed_pair_elemINS_15__tree_end_nodeIPNS_16__tree_node_baseIPvEEEELi0ELb0EE5__getB7v160006Ev, symObjAddr: 0x6300, symBinAddr: 0x1000087F0, symSize: 0x10 }
  - { offsetInCU: 0x6F759, offset: 0x6F759, size: 0x8, addend: 0x0, symName: __ZNSt3__13mapINS_12basic_stringIcNS_11char_traitsIcEENS_9allocatorIcEEEES6_NS_4lessIS6_EENS4_INS_4pairIKS6_S6_EEEEED2B7v160006Ev, symObjAddr: 0x6310, symBinAddr: 0x100008800, symSize: 0x20 }
  - { offsetInCU: 0x6F783, offset: 0x6F783, size: 0x8, addend: 0x0, symName: __ZNSt3__16__treeINS_12__value_typeINS_12basic_stringIcNS_11char_traitsIcEENS_9allocatorIcEEEES7_EENS_19__map_value_compareIS7_S8_NS_4lessIS7_EELb1EEENS5_IS8_EEED1Ev, symObjAddr: 0x6330, symBinAddr: 0x100008820, symSize: 0x20 }
  - { offsetInCU: 0x6F7AF, offset: 0x6F7AF, size: 0x8, addend: 0x0, symName: __ZNSt3__16__treeINS_12__value_typeINS_12basic_stringIcNS_11char_traitsIcEENS_9allocatorIcEEEES7_EENS_19__map_value_compareIS7_S8_NS_4lessIS7_EELb1EEENS5_IS8_EEED2Ev, symObjAddr: 0x6350, symBinAddr: 0x100008840, symSize: 0x30 }
  - { offsetInCU: 0x6F7DB, offset: 0x6F7DB, size: 0x8, addend: 0x0, symName: __ZNSt3__16__treeINS_12__value_typeINS_12basic_stringIcNS_11char_traitsIcEENS_9allocatorIcEEEES7_EENS_19__map_value_compareIS7_S8_NS_4lessIS7_EELb1EEENS5_IS8_EEE7destroyEPNS_11__tree_nodeIS8_PvEE, symObjAddr: 0x6380, symBinAddr: 0x100008870, symSize: 0xB0 }
  - { offsetInCU: 0x6F828, offset: 0x6F828, size: 0x8, addend: 0x0, symName: __ZNKSt3__16__treeINS_12__value_typeINS_12basic_stringIcNS_11char_traitsIcEENS_9allocatorIcEEEES7_EENS_19__map_value_compareIS7_S8_NS_4lessIS7_EELb1EEENS5_IS8_EEE6__rootB7v160006Ev, symObjAddr: 0x6430, symBinAddr: 0x100008920, symSize: 0x20 }
  - { offsetInCU: 0x6F84E, offset: 0x6F84E, size: 0x8, addend: 0x0, symName: __ZNSt3__16__treeINS_12__value_typeINS_12basic_stringIcNS_11char_traitsIcEENS_9allocatorIcEEEES7_EENS_19__map_value_compareIS7_S8_NS_4lessIS7_EELb1EEENS5_IS8_EEE12__node_allocB7v160006Ev, symObjAddr: 0x6450, symBinAddr: 0x100008940, symSize: 0x20 }
  - { offsetInCU: 0x6F874, offset: 0x6F874, size: 0x8, addend: 0x0, symName: __ZNSt3__116allocator_traitsINS_9allocatorINS_11__tree_nodeINS_12__value_typeINS_12basic_stringIcNS_11char_traitsIcEENS1_IcEEEES8_EEPvEEEEE7destroyB7v160006INS_4pairIKS8_S8_EEvvEEvRSC_PT_, symObjAddr: 0x6470, symBinAddr: 0x100008960, symSize: 0x20 }
  - { offsetInCU: 0x6F8AF, offset: 0x6F8AF, size: 0x8, addend: 0x0, symName: __ZNSt3__122__tree_key_value_typesINS_12__value_typeINS_12basic_stringIcNS_11char_traitsIcEENS_9allocatorIcEEEES7_EEE9__get_ptrB7v160006ERS8_, symObjAddr: 0x6490, symBinAddr: 0x100008980, symSize: 0x20 }
  - { offsetInCU: 0x6F8D3, offset: 0x6F8D3, size: 0x8, addend: 0x0, symName: __ZNSt3__116allocator_traitsINS_9allocatorINS_11__tree_nodeINS_12__value_typeINS_12basic_stringIcNS_11char_traitsIcEENS1_IcEEEES8_EEPvEEEEE10deallocateB7v160006ERSC_PSB_m, symObjAddr: 0x64B0, symBinAddr: 0x1000089A0, symSize: 0x30 }
  - { offsetInCU: 0x6F915, offset: 0x6F915, size: 0x8, addend: 0x0, symName: __ZNSt3__117__compressed_pairINS_15__tree_end_nodeIPNS_16__tree_node_baseIPvEEEENS_9allocatorINS_11__tree_nodeINS_12__value_typeINS_12basic_stringIcNS_11char_traitsIcEENS7_IcEEEESE_EES3_EEEEE6secondB7v160006Ev, symObjAddr: 0x64E0, symBinAddr: 0x1000089D0, symSize: 0x20 }
  - { offsetInCU: 0x6F93B, offset: 0x6F93B, size: 0x8, addend: 0x0, symName: __ZNSt3__122__compressed_pair_elemINS_9allocatorINS_11__tree_nodeINS_12__value_typeINS_12basic_stringIcNS_11char_traitsIcEENS1_IcEEEES8_EEPvEEEELi1ELb1EE5__getB7v160006Ev, symObjAddr: 0x6500, symBinAddr: 0x1000089F0, symSize: 0x10 }
  - { offsetInCU: 0x6F961, offset: 0x6F961, size: 0x8, addend: 0x0, symName: __ZNSt3__14pairIKNS_12basic_stringIcNS_11char_traitsIcEENS_9allocatorIcEEEES6_ED1Ev, symObjAddr: 0x6510, symBinAddr: 0x100008A00, symSize: 0x20 }
  - { offsetInCU: 0x6F98D, offset: 0x6F98D, size: 0x8, addend: 0x0, symName: __ZNSt3__14pairIKNS_12basic_stringIcNS_11char_traitsIcEENS_9allocatorIcEEEES6_ED2Ev, symObjAddr: 0x6530, symBinAddr: 0x100008A20, symSize: 0x30 }
  - { offsetInCU: 0x6F9B9, offset: 0x6F9B9, size: 0x8, addend: 0x0, symName: __ZNSt3__112__value_typeINS_12basic_stringIcNS_11char_traitsIcEENS_9allocatorIcEEEES6_E11__get_valueB7v160006Ev, symObjAddr: 0x6560, symBinAddr: 0x100008A50, symSize: 0x10 }
  - { offsetInCU: 0x6F9DF, offset: 0x6F9DF, size: 0x8, addend: 0x0, symName: __ZNSt3__19allocatorINS_11__tree_nodeINS_12__value_typeINS_12basic_stringIcNS_11char_traitsIcEENS0_IcEEEES7_EEPvEEE10deallocateB7v160006EPSA_m, symObjAddr: 0x6570, symBinAddr: 0x100008A60, symSize: 0x50 }
  - { offsetInCU: 0x6FA21, offset: 0x6FA21, size: 0x8, addend: 0x0, symName: __ZNKSt3__16__treeINS_12__value_typeINS_12basic_stringIcNS_11char_traitsIcEENS_9allocatorIcEEEES7_EENS_19__map_value_compareIS7_S8_NS_4lessIS7_EELb1EEENS5_IS8_EEE10__end_nodeB7v160006Ev, symObjAddr: 0x65C0, symBinAddr: 0x100008AB0, symSize: 0x30 }
  - { offsetInCU: 0x6FA47, offset: 0x6FA47, size: 0x8, addend: 0x0, symName: __ZNKSt3__117__compressed_pairINS_15__tree_end_nodeIPNS_16__tree_node_baseIPvEEEENS_9allocatorINS_11__tree_nodeINS_12__value_typeINS_12basic_stringIcNS_11char_traitsIcEENS7_IcEEEESE_EES3_EEEEE5firstB7v160006Ev, symObjAddr: 0x65F0, symBinAddr: 0x100008AE0, symSize: 0x20 }
  - { offsetInCU: 0x6FA6D, offset: 0x6FA6D, size: 0x8, addend: 0x0, symName: __ZNKSt3__122__compressed_pair_elemINS_15__tree_end_nodeIPNS_16__tree_node_baseIPvEEEELi0ELb0EE5__getB7v160006Ev, symObjAddr: 0x6610, symBinAddr: 0x100008B00, symSize: 0x10 }
  - { offsetInCU: 0x6FA93, offset: 0x6FA93, size: 0x8, addend: 0x0, symName: __ZNKSt3__16__treeINS_12__value_typeINS_12basic_stringIcNS_11char_traitsIcEENS_9allocatorIcEEEES7_EENS_19__map_value_compareIS7_S8_NS_4lessIS7_EELb1EEENS5_IS8_EEE4sizeB7v160006Ev, symObjAddr: 0x6620, symBinAddr: 0x100008B10, symSize: 0x20 }
  - { offsetInCU: 0x6FAB9, offset: 0x6FAB9, size: 0x8, addend: 0x0, symName: __ZNKSt3__117__compressed_pairImNS_19__map_value_compareINS_12basic_stringIcNS_11char_traitsIcEENS_9allocatorIcEEEENS_12__value_typeIS7_S7_EENS_4lessIS7_EELb1EEEE5firstB7v160006Ev, symObjAddr: 0x6640, symBinAddr: 0x100008B30, symSize: 0x20 }
  - { offsetInCU: 0x6FADF, offset: 0x6FADF, size: 0x8, addend: 0x0, symName: __ZNKSt3__122__compressed_pair_elemImLi0ELb0EE5__getB7v160006Ev, symObjAddr: 0x6660, symBinAddr: 0x100008B50, symSize: 0x10 }
  - { offsetInCU: 0x6FB05, offset: 0x6FB05, size: 0x8, addend: 0x0, symName: __ZN6spdlog7details18null_scoped_padderC2EmRKNS0_12padding_infoERN3fmt3v1119basic_memory_bufferIcLm250ENSt3__19allocatorIcEEEE, symObjAddr: 0x6670, symBinAddr: 0x100008B60, symSize: 0x20 }
  - { offsetInCU: 0x6FB50, offset: 0x6FB50, size: 0x8, addend: 0x0, symName: __ZNKSt3__13mapINS_12basic_stringIcNS_11char_traitsIcEENS_9allocatorIcEEEES6_NS_4lessIS6_EENS4_INS_4pairIKS6_S6_EEEEE3endB7v160006Ev, symObjAddr: 0x6690, symBinAddr: 0x100008B80, symSize: 0x30 }
  - { offsetInCU: 0x6FB76, offset: 0x6FB76, size: 0x8, addend: 0x0, symName: __ZNSt3__120__map_const_iteratorINS_21__tree_const_iteratorINS_12__value_typeINS_12basic_stringIcNS_11char_traitsIcEENS_9allocatorIcEEEES8_EEPNS_11__tree_nodeIS9_PvEElEEEmmB7v160006Ev, symObjAddr: 0x66C0, symBinAddr: 0x100008BB0, symSize: 0x30 }
  - { offsetInCU: 0x6FB9C, offset: 0x6FB9C, size: 0x8, addend: 0x0, symName: __ZNKSt3__13mapINS_12basic_stringIcNS_11char_traitsIcEENS_9allocatorIcEEEES6_NS_4lessIS6_EENS4_INS_4pairIKS6_S6_EEEEE5beginB7v160006Ev, symObjAddr: 0x66F0, symBinAddr: 0x100008BE0, symSize: 0x30 }
  - { offsetInCU: 0x6FBC2, offset: 0x6FBC2, size: 0x8, addend: 0x0, symName: __ZNKSt3__120__map_const_iteratorINS_21__tree_const_iteratorINS_12__value_typeINS_12basic_stringIcNS_11char_traitsIcEENS_9allocatorIcEEEES8_EEPNS_11__tree_nodeIS9_PvEElEEEdeB7v160006Ev, symObjAddr: 0x6750, symBinAddr: 0x100008C40, symSize: 0x30 }
  - { offsetInCU: 0x6FBE8, offset: 0x6FBE8, size: 0x8, addend: 0x0, symName: __ZNKSt3__112basic_stringIcNS_11char_traitsIcEENS_9allocatorIcEEE4sizeB7v160006Ev, symObjAddr: 0x6780, symBinAddr: 0x100008C70, symSize: 0x50 }
  - { offsetInCU: 0x6FC0E, offset: 0x6FC0E, size: 0x8, addend: 0x0, symName: __ZN3fmt3v1117basic_string_viewIcEC1INSt3__112basic_stringIcNS4_11char_traitsIcEENS4_9allocatorIcEEEELi0EEERKT_, symObjAddr: 0x6830, symBinAddr: 0x100008D20, symSize: 0x30 }
  - { offsetInCU: 0x6FC56, offset: 0x6FC56, size: 0x8, addend: 0x0, symName: __ZN3fmt3v1117basic_string_viewIcEC1EPKc, symObjAddr: 0x6860, symBinAddr: 0x100008D50, symSize: 0x30 }
  - { offsetInCU: 0x6FC8F, offset: 0x6FC8F, size: 0x8, addend: 0x0, symName: __ZNSt3__120__map_const_iteratorINS_21__tree_const_iteratorINS_12__value_typeINS_12basic_stringIcNS_11char_traitsIcEENS_9allocatorIcEEEES8_EEPNS_11__tree_nodeIS9_PvEElEEEppB7v160006Ev, symObjAddr: 0x6890, symBinAddr: 0x100008D80, symSize: 0x30 }
  - { offsetInCU: 0x6FCB5, offset: 0x6FCB5, size: 0x8, addend: 0x0, symName: __ZNKSt3__16__treeINS_12__value_typeINS_12basic_stringIcNS_11char_traitsIcEENS_9allocatorIcEEEES7_EENS_19__map_value_compareIS7_S8_NS_4lessIS7_EELb1EEENS5_IS8_EEE3endB7v160006Ev, symObjAddr: 0x68C0, symBinAddr: 0x100008DB0, symSize: 0x30 }
  - { offsetInCU: 0x6FCDB, offset: 0x6FCDB, size: 0x8, addend: 0x0, symName: __ZNSt3__120__map_const_iteratorINS_21__tree_const_iteratorINS_12__value_typeINS_12basic_stringIcNS_11char_traitsIcEENS_9allocatorIcEEEES8_EEPNS_11__tree_nodeIS9_PvEElEEEC1B7v160006ESE_, symObjAddr: 0x68F0, symBinAddr: 0x100008DE0, symSize: 0x30 }
  - { offsetInCU: 0x6FD14, offset: 0x6FD14, size: 0x8, addend: 0x0, symName: __ZNSt3__121__tree_const_iteratorINS_12__value_typeINS_12basic_stringIcNS_11char_traitsIcEENS_9allocatorIcEEEES7_EEPNS_11__tree_nodeIS8_PvEElEC1B7v160006EPNS_15__tree_end_nodeIPNS_16__tree_node_baseISA_EEEE, symObjAddr: 0x6920, symBinAddr: 0x100008E10, symSize: 0x30 }
  - { offsetInCU: 0x6FD4D, offset: 0x6FD4D, size: 0x8, addend: 0x0, symName: __ZNSt3__121__tree_const_iteratorINS_12__value_typeINS_12basic_stringIcNS_11char_traitsIcEENS_9allocatorIcEEEES7_EEPNS_11__tree_nodeIS8_PvEElEC2B7v160006EPNS_15__tree_end_nodeIPNS_16__tree_node_baseISA_EEEE, symObjAddr: 0x6950, symBinAddr: 0x100008E40, symSize: 0x20 }
  - { offsetInCU: 0x6FD86, offset: 0x6FD86, size: 0x8, addend: 0x0, symName: __ZNSt3__120__map_const_iteratorINS_21__tree_const_iteratorINS_12__value_typeINS_12basic_stringIcNS_11char_traitsIcEENS_9allocatorIcEEEES8_EEPNS_11__tree_nodeIS9_PvEElEEEC2B7v160006ESE_, symObjAddr: 0x6970, symBinAddr: 0x100008E60, symSize: 0x20 }
  - { offsetInCU: 0x6FDBF, offset: 0x6FDBF, size: 0x8, addend: 0x0, symName: __ZNSt3__121__tree_const_iteratorINS_12__value_typeINS_12basic_stringIcNS_11char_traitsIcEENS_9allocatorIcEEEES7_EEPNS_11__tree_nodeIS8_PvEElEmmB7v160006Ev, symObjAddr: 0x6990, symBinAddr: 0x100008E80, symSize: 0x30 }
  - { offsetInCU: 0x6FDE5, offset: 0x6FDE5, size: 0x8, addend: 0x0, symName: __ZNKSt3__116__tree_node_baseIPvE15__parent_unsafeB7v160006Ev, symObjAddr: 0x6AC0, symBinAddr: 0x100008FB0, symSize: 0x20 }
  - { offsetInCU: 0x6FE0B, offset: 0x6FE0B, size: 0x8, addend: 0x0, symName: __ZNKSt3__16__treeINS_12__value_typeINS_12basic_stringIcNS_11char_traitsIcEENS_9allocatorIcEEEES7_EENS_19__map_value_compareIS7_S8_NS_4lessIS7_EELb1EEENS5_IS8_EEE5beginB7v160006Ev, symObjAddr: 0x6AE0, symBinAddr: 0x100008FD0, symSize: 0x30 }
  - { offsetInCU: 0x6FE31, offset: 0x6FE31, size: 0x8, addend: 0x0, symName: __ZNKSt3__16__treeINS_12__value_typeINS_12basic_stringIcNS_11char_traitsIcEENS_9allocatorIcEEEES7_EENS_19__map_value_compareIS7_S8_NS_4lessIS7_EELb1EEENS5_IS8_EEE12__begin_nodeB7v160006Ev, symObjAddr: 0x6B10, symBinAddr: 0x100009000, symSize: 0x10 }
  - { offsetInCU: 0x6FE57, offset: 0x6FE57, size: 0x8, addend: 0x0, symName: __ZNKSt3__121__tree_const_iteratorINS_12__value_typeINS_12basic_stringIcNS_11char_traitsIcEENS_9allocatorIcEEEES7_EEPNS_11__tree_nodeIS8_PvEElEptB7v160006Ev, symObjAddr: 0x6B80, symBinAddr: 0x100009070, symSize: 0x30 }
  - { offsetInCU: 0x6FE7D, offset: 0x6FE7D, size: 0x8, addend: 0x0, symName: __ZNKSt3__112__value_typeINS_12basic_stringIcNS_11char_traitsIcEENS_9allocatorIcEEEES6_E11__get_valueB7v160006Ev, symObjAddr: 0x6BB0, symBinAddr: 0x1000090A0, symSize: 0x10 }
  - { offsetInCU: 0x6FEA3, offset: 0x6FEA3, size: 0x8, addend: 0x0, symName: __ZNSt3__114pointer_traitsIPKNS_12__value_typeINS_12basic_stringIcNS_11char_traitsIcEENS_9allocatorIcEEEES7_EEE10pointer_toB7v160006ERS9_, symObjAddr: 0x6BC0, symBinAddr: 0x1000090B0, symSize: 0x10 }
  - { offsetInCU: 0x6FEC6, offset: 0x6FEC6, size: 0x8, addend: 0x0, symName: __ZNKSt3__121__tree_const_iteratorINS_12__value_typeINS_12basic_stringIcNS_11char_traitsIcEENS_9allocatorIcEEEES7_EEPNS_11__tree_nodeIS8_PvEElE8__get_npB7v160006Ev, symObjAddr: 0x6BD0, symBinAddr: 0x1000090C0, symSize: 0x20 }
  - { offsetInCU: 0x6FEEC, offset: 0x6FEEC, size: 0x8, addend: 0x0, symName: __ZNKSt3__112basic_stringIcNS_11char_traitsIcEENS_9allocatorIcEEE15__get_long_sizeB7v160006Ev, symObjAddr: 0x6BF0, symBinAddr: 0x1000090E0, symSize: 0x20 }
  - { offsetInCU: 0x6FF12, offset: 0x6FF12, size: 0x8, addend: 0x0, symName: __ZNKSt3__112basic_stringIcNS_11char_traitsIcEENS_9allocatorIcEEE16__get_short_sizeB7v160006Ev, symObjAddr: 0x6C10, symBinAddr: 0x100009100, symSize: 0x30 }
  - { offsetInCU: 0x6FF38, offset: 0x6FF38, size: 0x8, addend: 0x0, symName: __ZNK3fmt3v1117basic_string_viewIcE4dataEv, symObjAddr: 0x6C40, symBinAddr: 0x100009130, symSize: 0x20 }
  - { offsetInCU: 0x6FF5E, offset: 0x6FF5E, size: 0x8, addend: 0x0, symName: __ZN3fmt3v116detail6bufferIcE6appendIcEEvPKT_S7_, symObjAddr: 0x6C60, symBinAddr: 0x100009150, symSize: 0xF0 }
  - { offsetInCU: 0x70003, offset: 0x70003, size: 0x8, addend: 0x0, symName: __ZNK3fmt3v1117basic_string_viewIcE4sizeEv, symObjAddr: 0x6D50, symBinAddr: 0x100009240, symSize: 0x20 }
  - { offsetInCU: 0x70029, offset: 0x70029, size: 0x8, addend: 0x0, symName: __ZN3fmt3v116detail6bufferIcE11try_reserveEm, symObjAddr: 0x6DB0, symBinAddr: 0x1000092A0, symSize: 0x40 }
  - { offsetInCU: 0x7005E, offset: 0x7005E, size: 0x8, addend: 0x0, symName: __ZN3fmt3v1117basic_string_viewIcEC2INSt3__112basic_stringIcNS4_11char_traitsIcEENS4_9allocatorIcEEEELi0EEERKT_, symObjAddr: 0x6DF0, symBinAddr: 0x1000092E0, symSize: 0x50 }
  - { offsetInCU: 0x700A6, offset: 0x700A6, size: 0x8, addend: 0x0, symName: __ZNKSt3__112basic_stringIcNS_11char_traitsIcEENS_9allocatorIcEEE4dataB7v160006Ev, symObjAddr: 0x6E40, symBinAddr: 0x100009330, symSize: 0x30 }
  - { offsetInCU: 0x700CC, offset: 0x700CC, size: 0x8, addend: 0x0, symName: __ZNKSt3__112basic_stringIcNS_11char_traitsIcEENS_9allocatorIcEEE13__get_pointerB7v160006Ev, symObjAddr: 0x6E80, symBinAddr: 0x100009370, symSize: 0x50 }
  - { offsetInCU: 0x700F2, offset: 0x700F2, size: 0x8, addend: 0x0, symName: __ZNKSt3__112basic_stringIcNS_11char_traitsIcEENS_9allocatorIcEEE18__get_long_pointerB7v160006Ev, symObjAddr: 0x6ED0, symBinAddr: 0x1000093C0, symSize: 0x20 }
  - { offsetInCU: 0x70118, offset: 0x70118, size: 0x8, addend: 0x0, symName: __ZNKSt3__112basic_stringIcNS_11char_traitsIcEENS_9allocatorIcEEE19__get_short_pointerB7v160006Ev, symObjAddr: 0x6EF0, symBinAddr: 0x1000093E0, symSize: 0x30 }
  - { offsetInCU: 0x7013E, offset: 0x7013E, size: 0x8, addend: 0x0, symName: __ZNSt3__114pointer_traitsIPKcE10pointer_toB7v160006ERS1_, symObjAddr: 0x6F20, symBinAddr: 0x100009410, symSize: 0x10 }
  - { offsetInCU: 0x70161, offset: 0x70161, size: 0x8, addend: 0x0, symName: __ZN3fmt3v1117basic_string_viewIcEC2EPKc, symObjAddr: 0x6F30, symBinAddr: 0x100009420, symSize: 0x40 }
  - { offsetInCU: 0x7019A, offset: 0x7019A, size: 0x8, addend: 0x0, symName: __ZNSt3__121__tree_const_iteratorINS_12__value_typeINS_12basic_stringIcNS_11char_traitsIcEENS_9allocatorIcEEEES7_EEPNS_11__tree_nodeIS8_PvEElEppB7v160006Ev, symObjAddr: 0x6F70, symBinAddr: 0x100009460, symSize: 0x30 }
  - { offsetInCU: 0x701C0, offset: 0x701C0, size: 0x8, addend: 0x0, symName: __ZN3fmt3v1119basic_memory_bufferIcLm250ENSt3__19allocatorIcEEED2Ev, symObjAddr: 0x7050, symBinAddr: 0x100009540, symSize: 0x30 }
  - { offsetInCU: 0x701EA, offset: 0x701EA, size: 0x8, addend: 0x0, symName: __ZN3fmt3v1119basic_memory_bufferIcLm250ENSt3__19allocatorIcEEE10deallocateEv, symObjAddr: 0x7080, symBinAddr: 0x100009570, symSize: 0x70 }
  - { offsetInCU: 0x7021F, offset: 0x7021F, size: 0x8, addend: 0x0, symName: __ZN6spdlog7details14full_formatterD2Ev, symObjAddr: 0x70F0, symBinAddr: 0x1000095E0, symSize: 0x40 }
  - { offsetInCU: 0x7024C, offset: 0x7024C, size: 0x8, addend: 0x0, symName: __ZNKSt3__16chrono10time_pointINS0_12system_clockENS0_8durationIxNS_5ratioILl1ELl1000000EEEEEE16time_since_epochB7v160006Ev, symObjAddr: 0x7130, symBinAddr: 0x100009620, symSize: 0x20 }
  - { offsetInCU: 0x70272, offset: 0x70272, size: 0x8, addend: 0x0, symName: __ZN3fmt3v116detail6bufferIcE5clearEv, symObjAddr: 0x71B0, symBinAddr: 0x1000096A0, symSize: 0x20 }
  - { offsetInCU: 0x70298, offset: 0x70298, size: 0x8, addend: 0x0, symName: __ZN3fmt3v116detail6bufferIcE9push_backERKc, symObjAddr: 0x71D0, symBinAddr: 0x1000096C0, symSize: 0x50 }
  - { offsetInCU: 0x70383, offset: 0x70383, size: 0x8, addend: 0x0, symName: __ZN3fmt3v116detail6bufferIcE5beginEv, symObjAddr: 0x73A0, symBinAddr: 0x100009890, symSize: 0x20 }
  - { offsetInCU: 0x703A9, offset: 0x703A9, size: 0x8, addend: 0x0, symName: __ZN3fmt3v116detail6bufferIcE3endEv, symObjAddr: 0x73C0, symBinAddr: 0x1000098B0, symSize: 0x20 }
  - { offsetInCU: 0x703CF, offset: 0x703CF, size: 0x8, addend: 0x0, symName: __ZNKSt3__16chrono8durationIxNS_5ratioILl1ELl1000EEEE5countB7v160006Ev, symObjAddr: 0x74F0, symBinAddr: 0x1000099E0, symSize: 0x20 }
  - { offsetInCU: 0x703F5, offset: 0x703F5, size: 0x8, addend: 0x0, symName: __ZNK6spdlog10source_loc5emptyEv, symObjAddr: 0x7530, symBinAddr: 0x100009A20, symSize: 0x20 }
  - { offsetInCU: 0x7041B, offset: 0x7041B, size: 0x8, addend: 0x0, symName: __ZN6spdlog7details24short_filename_formatterINS0_18null_scoped_padderEE8basenameEPKc, symObjAddr: 0x7550, symBinAddr: 0x100009A40, symSize: 0x50 }
  - { offsetInCU: 0x7045C, offset: 0x7045C, size: 0x8, addend: 0x0, symName: __ZNKSt3__16chrono8durationIxNS_5ratioILl1ELl1000000EEEE5countB7v160006Ev, symObjAddr: 0x75F0, symBinAddr: 0x100009AE0, symSize: 0x20 }
  - { offsetInCU: 0x7048D, offset: 0x7048D, size: 0x8, addend: 0x0, symName: __ZNSt3__16chrono8durationIxNS_5ratioILl1ELl1EEEEC1B7v160006IxEERKT_PNS_9enable_ifIXaasr14is_convertibleIS8_xEE5valueooL_ZNS_17integral_constantIbLb0EE5valueEEntsr23treat_as_floating_pointIS6_EE5valueEvE4typeE, symObjAddr: 0x7610, symBinAddr: 0x100009B00, symSize: 0x30 }
  - { offsetInCU: 0x704DA, offset: 0x704DA, size: 0x8, addend: 0x0, symName: __ZNSt3__16chrono8durationIxNS_5ratioILl1ELl1EEEEC2B7v160006IxEERKT_PNS_9enable_ifIXaasr14is_convertibleIS8_xEE5valueooL_ZNS_17integral_constantIbLb0EE5valueEEntsr23treat_as_floating_pointIS6_EE5valueEvE4typeE, symObjAddr: 0x7640, symBinAddr: 0x100009B30, symSize: 0x20 }
  - { offsetInCU: 0x70532, offset: 0x70532, size: 0x8, addend: 0x0, symName: __ZNKSt3__16chrono13__duration_eqINS0_8durationIxNS_5ratioILl1ELl1EEEEES5_EclB7v160006ERKS5_S8_, symObjAddr: 0x7690, symBinAddr: 0x100009B80, symSize: 0x50 }
  - { offsetInCU: 0x70576, offset: 0x70576, size: 0x8, addend: 0x0, symName: __ZNKSt3__16chrono8durationIxNS_5ratioILl1ELl1EEEE5countB7v160006Ev, symObjAddr: 0x76E0, symBinAddr: 0x100009BD0, symSize: 0x20 }
  - { offsetInCU: 0x7059C, offset: 0x7059C, size: 0x8, addend: 0x0, symName: __ZN3fmt3v1110format_intC1Ei, symObjAddr: 0x7700, symBinAddr: 0x100009BF0, symSize: 0x30 }
  - { offsetInCU: 0x705D5, offset: 0x705D5, size: 0x8, addend: 0x0, symName: __ZNK3fmt3v1110format_int4dataEv, symObjAddr: 0x7730, symBinAddr: 0x100009C20, symSize: 0x20 }
  - { offsetInCU: 0x705FB, offset: 0x705FB, size: 0x8, addend: 0x0, symName: __ZNK3fmt3v1110format_int4sizeEv, symObjAddr: 0x7750, symBinAddr: 0x100009C40, symSize: 0x30 }
  - { offsetInCU: 0x70621, offset: 0x70621, size: 0x8, addend: 0x0, symName: __ZN3fmt3v1110format_intC2Ei, symObjAddr: 0x7780, symBinAddr: 0x100009C70, symSize: 0x30 }
  - { offsetInCU: 0x7065A, offset: 0x7065A, size: 0x8, addend: 0x0, symName: __ZN3fmt3v1110format_int13format_signedIiEEPcT_, symObjAddr: 0x77B0, symBinAddr: 0x100009CA0, symSize: 0x80 }
  - { offsetInCU: 0x706C5, offset: 0x706C5, size: 0x8, addend: 0x0, symName: __ZN3fmt3v1110format_int15format_unsignedIjEEPcT_, symObjAddr: 0x7830, symBinAddr: 0x100009D20, symSize: 0x40 }
  - { offsetInCU: 0x708DF, offset: 0x708DF, size: 0x8, addend: 0x0, symName: __ZZN6spdlog7details10fmt_helper4pad2EiRN3fmt3v1119basic_memory_bufferIcLm250ENSt3__19allocatorIcEEEEENKUlvE_clEv, symObjAddr: 0x7B70, symBinAddr: 0x10000A060, symSize: 0x10 }
  - { offsetInCU: 0x70909, offset: 0x70909, size: 0x8, addend: 0x0, symName: __ZN3fmt3v116detail10locale_refC1Ev, symObjAddr: 0x7C60, symBinAddr: 0x10000A150, symSize: 0x20 }
  - { offsetInCU: 0x70933, offset: 0x70933, size: 0x8, addend: 0x0, symName: __ZZN3fmt3v116detail13get_containerINSt3__120back_insert_iteratorINS0_19basic_memory_bufferIcLm250ENS3_9allocatorIcEEEEEEEERNT_14container_typeESA_EN8accessorC1ES9_, symObjAddr: 0x7CD0, symBinAddr: 0x10000A1C0, symSize: 0x30 }
  - { offsetInCU: 0x7096C, offset: 0x7096C, size: 0x8, addend: 0x0, symName: __ZZN3fmt3v116detail13get_containerINSt3__120back_insert_iteratorINS0_19basic_memory_bufferIcLm250ENS3_9allocatorIcEEEEEEEERNT_14container_typeESA_EN8accessorC2ES9_, symObjAddr: 0x7D00, symBinAddr: 0x10000A1F0, symSize: 0x20 }
  - { offsetInCU: 0x709A5, offset: 0x709A5, size: 0x8, addend: 0x0, symName: __ZN3fmt3v116detail10locale_refC2Ev, symObjAddr: 0x7D20, symBinAddr: 0x10000A210, symSize: 0x20 }
  - { offsetInCU: 0x70A76, offset: 0x70A76, size: 0x8, addend: 0x0, symName: __ZNSt3__120back_insert_iteratorIN3fmt3v1119basic_memory_bufferIcLm250ENS_9allocatorIcEEEEEC1B7v160006ERS6_, symObjAddr: 0x7D90, symBinAddr: 0x10000A280, symSize: 0x30 }
  - { offsetInCU: 0x70AAE, offset: 0x70AAE, size: 0x8, addend: 0x0, symName: __ZNSt3__120back_insert_iteratorIN3fmt3v1119basic_memory_bufferIcLm250ENS_9allocatorIcEEEEEC2B7v160006ERS6_, symObjAddr: 0x7DC0, symBinAddr: 0x10000A2B0, symSize: 0x20 }
  - { offsetInCU: 0x70AE6, offset: 0x70AE6, size: 0x8, addend: 0x0, symName: __ZZZN6spdlog7details10fmt_helper4pad2EiRN3fmt3v1119basic_memory_bufferIcLm250ENSt3__19allocatorIcEEEEENKUlvE_clEvENK18FMT_COMPILE_STRINGcvNS3_17basic_string_viewIcEEEv, symObjAddr: 0x7DE0, symBinAddr: 0x10000A2D0, symSize: 0x30 }
  - { offsetInCU: 0x70B10, offset: 0x70B10, size: 0x8, addend: 0x0, symName: __ZNSt3__111char_traitsIcE11to_int_typeEc, symObjAddr: 0x7EA0, symBinAddr: 0x10000A390, symSize: 0x10 }
  - { offsetInCU: 0x70B33, offset: 0x70B33, size: 0x8, addend: 0x0, symName: __ZN3fmt3v1117basic_string_viewIcEC1EPKcm, symObjAddr: 0x7EB0, symBinAddr: 0x10000A3A0, symSize: 0x30 }
  - { offsetInCU: 0x70B7B, offset: 0x70B7B, size: 0x8, addend: 0x0, symName: __ZN3fmt3v1117basic_string_viewIcEC2EPKcm, symObjAddr: 0x7EE0, symBinAddr: 0x10000A3D0, symSize: 0x30 }
  - { offsetInCU: 0x70BC3, offset: 0x70BC3, size: 0x8, addend: 0x0, symName: __ZNSt3__16chrono8durationIxNS_5ratioILl1ELl1000EEEEC1B7v160006IxEERKT_PNS_9enable_ifIXaasr14is_convertibleIS8_xEE5valueooL_ZNS_17integral_constantIbLb0EE5valueEEntsr23treat_as_floating_pointIS6_EE5valueEvE4typeE, symObjAddr: 0x7FE0, symBinAddr: 0x10000A4D0, symSize: 0x30 }
  - { offsetInCU: 0x70C10, offset: 0x70C10, size: 0x8, addend: 0x0, symName: __ZNSt3__16chrono8durationIxNS_5ratioILl1ELl1000EEEEC2B7v160006IxEERKT_PNS_9enable_ifIXaasr14is_convertibleIS8_xEE5valueooL_ZNS_17integral_constantIbLb0EE5valueEEntsr23treat_as_floating_pointIS6_EE5valueEvE4typeE, symObjAddr: 0x8010, symBinAddr: 0x10000A500, symSize: 0x20 }
  - { offsetInCU: 0x70C5D, offset: 0x70C5D, size: 0x8, addend: 0x0, symName: __ZN3fmt3v1110format_intC1Ej, symObjAddr: 0x8150, symBinAddr: 0x10000A640, symSize: 0x30 }
  - { offsetInCU: 0x70C96, offset: 0x70C96, size: 0x8, addend: 0x0, symName: __ZN3fmt3v1110format_intC2Ej, symObjAddr: 0x8180, symBinAddr: 0x10000A670, symSize: 0x30 }
  - { offsetInCU: 0x70CCE, offset: 0x70CCE, size: 0x8, addend: 0x0, symName: __Z7strrchrB7v160006Ua9enable_ifIXLb1EEEPKci, symObjAddr: 0x81B0, symBinAddr: 0x10000A6A0, symSize: 0x30 }
  - { offsetInCU: 0x70D09, offset: 0x70D09, size: 0x8, addend: 0x0, symName: __ZNSt3__110unique_ptrIN6spdlog7details14full_formatterENS_14default_deleteIS3_EEEC2B7v160006ILb1EvEEPS3_, symObjAddr: 0x81E0, symBinAddr: 0x10000A6D0, symSize: 0x40 }
  - { offsetInCU: 0x70D4C, offset: 0x70D4C, size: 0x8, addend: 0x0, symName: __ZNSt3__117__compressed_pairIPN6spdlog7details14full_formatterENS_14default_deleteIS3_EEEC1B7v160006IRS4_NS_16__value_init_tagEEEOT_OT0_, symObjAddr: 0x8220, symBinAddr: 0x10000A710, symSize: 0x30 }
  - { offsetInCU: 0x70DA4, offset: 0x70DA4, size: 0x8, addend: 0x0, symName: __ZNSt3__117__compressed_pairIPN6spdlog7details14full_formatterENS_14default_deleteIS3_EEEC2B7v160006IRS4_NS_16__value_init_tagEEEOT_OT0_, symObjAddr: 0x8250, symBinAddr: 0x10000A740, symSize: 0x40 }
  - { offsetInCU: 0x70DFC, offset: 0x70DFC, size: 0x8, addend: 0x0, symName: __ZNSt3__122__compressed_pair_elemIPN6spdlog7details14full_formatterELi0ELb0EEC2B7v160006IRS4_vEEOT_, symObjAddr: 0x8290, symBinAddr: 0x10000A780, symSize: 0x20 }
  - { offsetInCU: 0x70E3E, offset: 0x70E3E, size: 0x8, addend: 0x0, symName: __ZNSt3__122__compressed_pair_elemINS_14default_deleteIN6spdlog7details14full_formatterEEELi1ELb1EEC2B7v160006ENS_16__value_init_tagE, symObjAddr: 0x82B0, symBinAddr: 0x10000A7A0, symSize: 0x10 }
  - { offsetInCU: 0x70E73, offset: 0x70E73, size: 0x8, addend: 0x0, symName: __ZN6spdlog7details12padding_infoC2Ev, symObjAddr: 0x82C0, symBinAddr: 0x10000A7B0, symSize: 0x30 }
  - { offsetInCU: 0x70E9D, offset: 0x70E9D, size: 0x8, addend: 0x0, symName: __ZNSt3__110unique_ptrIN6spdlog7details14flag_formatterENS_14default_deleteIS3_EEEC2B7v160006INS2_14full_formatterENS4_IS8_EEvvEEONS0_IT_T0_EE, symObjAddr: 0x82F0, symBinAddr: 0x10000A7E0, symSize: 0x60 }
  - { offsetInCU: 0x70EE9, offset: 0x70EE9, size: 0x8, addend: 0x0, symName: __ZNSt3__110unique_ptrIN6spdlog7details14full_formatterENS_14default_deleteIS3_EEE7releaseB7v160006Ev, symObjAddr: 0x8350, symBinAddr: 0x10000A840, symSize: 0x40 }
  - { offsetInCU: 0x70F1E, offset: 0x70F1E, size: 0x8, addend: 0x0, symName: __ZNSt3__110unique_ptrIN6spdlog7details14full_formatterENS_14default_deleteIS3_EEE11get_deleterB7v160006Ev, symObjAddr: 0x8390, symBinAddr: 0x10000A880, symSize: 0x20 }
  - { offsetInCU: 0x70F50, offset: 0x70F50, size: 0x8, addend: 0x0, symName: __ZNSt3__117__compressed_pairIPN6spdlog7details14flag_formatterENS_14default_deleteIS3_EEEC1B7v160006IPNS2_14full_formatterENS5_IS9_EEEEOT_OT0_, symObjAddr: 0x83B0, symBinAddr: 0x10000A8A0, symSize: 0x30 }
  - { offsetInCU: 0x70FA8, offset: 0x70FA8, size: 0x8, addend: 0x0, symName: __ZNSt3__117__compressed_pairIPN6spdlog7details14full_formatterENS_14default_deleteIS3_EEE5firstB7v160006Ev, symObjAddr: 0x83E0, symBinAddr: 0x10000A8D0, symSize: 0x20 }
  - { offsetInCU: 0x70FCE, offset: 0x70FCE, size: 0x8, addend: 0x0, symName: __ZNSt3__122__compressed_pair_elemIPN6spdlog7details14full_formatterELi0ELb0EE5__getB7v160006Ev, symObjAddr: 0x8400, symBinAddr: 0x10000A8F0, symSize: 0x10 }
  - { offsetInCU: 0x70FF4, offset: 0x70FF4, size: 0x8, addend: 0x0, symName: __ZNSt3__117__compressed_pairIPN6spdlog7details14full_formatterENS_14default_deleteIS3_EEE6secondB7v160006Ev, symObjAddr: 0x8410, symBinAddr: 0x10000A900, symSize: 0x20 }
  - { offsetInCU: 0x7101A, offset: 0x7101A, size: 0x8, addend: 0x0, symName: __ZNSt3__122__compressed_pair_elemINS_14default_deleteIN6spdlog7details14full_formatterEEELi1ELb1EE5__getB7v160006Ev, symObjAddr: 0x8430, symBinAddr: 0x10000A920, symSize: 0x10 }
  - { offsetInCU: 0x71040, offset: 0x71040, size: 0x8, addend: 0x0, symName: __ZNSt3__117__compressed_pairIPN6spdlog7details14flag_formatterENS_14default_deleteIS3_EEEC2B7v160006IPNS2_14full_formatterENS5_IS9_EEEEOT_OT0_, symObjAddr: 0x8440, symBinAddr: 0x10000A930, symSize: 0x40 }
  - { offsetInCU: 0x71098, offset: 0x71098, size: 0x8, addend: 0x0, symName: __ZNSt3__122__compressed_pair_elemIPN6spdlog7details14flag_formatterELi0ELb0EEC2B7v160006IPNS2_14full_formatterEvEEOT_, symObjAddr: 0x8480, symBinAddr: 0x10000A970, symSize: 0x20 }
  - { offsetInCU: 0x710DA, offset: 0x710DA, size: 0x8, addend: 0x0, symName: __ZNSt3__122__compressed_pair_elemINS_14default_deleteIN6spdlog7details14flag_formatterEEELi1ELb1EEC2B7v160006INS1_INS3_14full_formatterEEEvEEOT_, symObjAddr: 0x84A0, symBinAddr: 0x10000A990, symSize: 0x30 }
  - { offsetInCU: 0x7111C, offset: 0x7111C, size: 0x8, addend: 0x0, symName: __ZNSt3__114default_deleteIN6spdlog7details14flag_formatterEEC2B7v160006INS2_14full_formatterEEERKNS0_IT_EEPNS_9enable_ifIXsr14is_convertibleIPS7_PS3_EE5valueEvE4typeE, symObjAddr: 0x84D0, symBinAddr: 0x10000A9C0, symSize: 0x20 }
  - { offsetInCU: 0x71165, offset: 0x71165, size: 0x8, addend: 0x0, symName: __ZNSt3__110unique_ptrIN6spdlog7details14flag_formatterENS_14default_deleteIS3_EEED2B7v160006Ev, symObjAddr: 0x84F0, symBinAddr: 0x10000A9E0, symSize: 0x20 }
  - { offsetInCU: 0x7118F, offset: 0x7118F, size: 0x8, addend: 0x0, symName: __ZNSt3__110unique_ptrIN6spdlog7details14flag_formatterENS_14default_deleteIS3_EEE5resetB7v160006EPS3_, symObjAddr: 0x8510, symBinAddr: 0x10000AA00, symSize: 0x70 }
  - { offsetInCU: 0x711D3, offset: 0x711D3, size: 0x8, addend: 0x0, symName: __ZNKSt3__114default_deleteIN6spdlog7details14flag_formatterEEclB7v160006EPS3_, symObjAddr: 0x8580, symBinAddr: 0x10000AA70, symSize: 0x40 }
  - { offsetInCU: 0x71207, offset: 0x71207, size: 0x8, addend: 0x0, symName: __ZNSt3__110unique_ptrIN6spdlog7details14full_formatterENS_14default_deleteIS3_EEED2B7v160006Ev, symObjAddr: 0x85C0, symBinAddr: 0x10000AAB0, symSize: 0x20 }
  - { offsetInCU: 0x71231, offset: 0x71231, size: 0x8, addend: 0x0, symName: __ZNSt3__110unique_ptrIN6spdlog7details14full_formatterENS_14default_deleteIS3_EEE5resetB7v160006EPS3_, symObjAddr: 0x85E0, symBinAddr: 0x10000AAD0, symSize: 0x70 }
  - { offsetInCU: 0x71275, offset: 0x71275, size: 0x8, addend: 0x0, symName: __ZNKSt3__114default_deleteIN6spdlog7details14full_formatterEEclB7v160006EPS3_, symObjAddr: 0x8650, symBinAddr: 0x10000AB40, symSize: 0x40 }
  - { offsetInCU: 0x712A9, offset: 0x712A9, size: 0x8, addend: 0x0, symName: __ZNSt3__16vectorINS_10unique_ptrIN6spdlog7details14flag_formatterENS_14default_deleteIS4_EEEENS_9allocatorIS7_EEED2B7v160006Ev, symObjAddr: 0x8690, symBinAddr: 0x10000AB80, symSize: 0x40 }
  - { offsetInCU: 0x712D3, offset: 0x712D3, size: 0x8, addend: 0x0, symName: __ZNSt3__16vectorINS_10unique_ptrIN6spdlog7details14flag_formatterENS_14default_deleteIS4_EEEENS_9allocatorIS7_EEE16__destroy_vectorC1ERSA_, symObjAddr: 0x86D0, symBinAddr: 0x10000ABC0, symSize: 0x30 }
  - { offsetInCU: 0x7130C, offset: 0x7130C, size: 0x8, addend: 0x0, symName: __ZNSt3__16vectorINS_10unique_ptrIN6spdlog7details14flag_formatterENS_14default_deleteIS4_EEEENS_9allocatorIS7_EEE16__destroy_vectorclB7v160006Ev, symObjAddr: 0x8700, symBinAddr: 0x10000ABF0, symSize: 0x90 }
  - { offsetInCU: 0x71332, offset: 0x71332, size: 0x8, addend: 0x0, symName: __ZNSt3__16vectorINS_10unique_ptrIN6spdlog7details14flag_formatterENS_14default_deleteIS4_EEEENS_9allocatorIS7_EEE16__destroy_vectorC2ERSA_, symObjAddr: 0x8790, symBinAddr: 0x10000AC80, symSize: 0x20 }
  - { offsetInCU: 0x7136B, offset: 0x7136B, size: 0x8, addend: 0x0, symName: __ZNSt3__16vectorINS_10unique_ptrIN6spdlog7details14flag_formatterENS_14default_deleteIS4_EEEENS_9allocatorIS7_EEE7__clearB7v160006Ev, symObjAddr: 0x87C0, symBinAddr: 0x10000ACB0, symSize: 0x20 }
  - { offsetInCU: 0x71391, offset: 0x71391, size: 0x8, addend: 0x0, symName: __ZNSt3__16vectorINS_10unique_ptrIN6spdlog7details14flag_formatterENS_14default_deleteIS4_EEEENS_9allocatorIS7_EEE22__base_destruct_at_endB7v160006EPS7_, symObjAddr: 0x87E0, symBinAddr: 0x10000ACD0, symSize: 0x80 }
  - { offsetInCU: 0x713D5, offset: 0x713D5, size: 0x8, addend: 0x0, symName: __ZNSt3__110unique_ptrIN6spdlog9formatterENS_14default_deleteIS2_EEEC2B7v160006ILb1EvEEPS2_, symObjAddr: 0x8860, symBinAddr: 0x10000AD50, symSize: 0x40 }
  - { offsetInCU: 0x71418, offset: 0x71418, size: 0x8, addend: 0x0, symName: __ZNSt3__117__compressed_pairIPN6spdlog9formatterENS_14default_deleteIS2_EEEC1B7v160006IRS3_NS_16__value_init_tagEEEOT_OT0_, symObjAddr: 0x88A0, symBinAddr: 0x10000AD90, symSize: 0x30 }
  - { offsetInCU: 0x71470, offset: 0x71470, size: 0x8, addend: 0x0, symName: __ZNSt3__117__compressed_pairIPN6spdlog9formatterENS_14default_deleteIS2_EEEC2B7v160006IRS3_NS_16__value_init_tagEEEOT_OT0_, symObjAddr: 0x88D0, symBinAddr: 0x10000ADC0, symSize: 0x40 }
  - { offsetInCU: 0x714C8, offset: 0x714C8, size: 0x8, addend: 0x0, symName: __ZNSt3__122__compressed_pair_elemIPN6spdlog9formatterELi0ELb0EEC2B7v160006IRS3_vEEOT_, symObjAddr: 0x8910, symBinAddr: 0x10000AE00, symSize: 0x20 }
  - { offsetInCU: 0x7150A, offset: 0x7150A, size: 0x8, addend: 0x0, symName: __ZNSt3__122__compressed_pair_elemINS_14default_deleteIN6spdlog9formatterEEELi1ELb1EEC2B7v160006ENS_16__value_init_tagE, symObjAddr: 0x8930, symBinAddr: 0x10000AE20, symSize: 0x10 }
  - { offsetInCU: 0x7153F, offset: 0x7153F, size: 0x8, addend: 0x0, symName: __ZNSt3__18functionIFvRKNS_12basic_stringIcNS_11char_traitsIcEENS_9allocatorIcEEEEEEC2B7v160006Ev, symObjAddr: 0x8940, symBinAddr: 0x10000AE30, symSize: 0x20 }
  - { offsetInCU: 0x71569, offset: 0x71569, size: 0x8, addend: 0x0, symName: __ZNSt3__110__function12__value_funcIFvRKNS_12basic_stringIcNS_11char_traitsIcEENS_9allocatorIcEEEEEEC1B7v160006Ev, symObjAddr: 0x8960, symBinAddr: 0x10000AE50, symSize: 0x20 }
  - { offsetInCU: 0x71593, offset: 0x71593, size: 0x8, addend: 0x0, symName: __ZNSt3__110__function12__value_funcIFvRKNS_12basic_stringIcNS_11char_traitsIcEENS_9allocatorIcEEEEEEC2B7v160006Ev, symObjAddr: 0x8980, symBinAddr: 0x10000AE70, symSize: 0x20 }
  - { offsetInCU: 0x715BD, offset: 0x715BD, size: 0x8, addend: 0x0, symName: __ZNSt3__110shared_ptrIN6spdlog7details11thread_poolEEC2B7v160006Ev, symObjAddr: 0x89A0, symBinAddr: 0x10000AE90, symSize: 0x20 }
  - { offsetInCU: 0x715E7, offset: 0x715E7, size: 0x8, addend: 0x0, symName: __ZNSt3__110unique_ptrIN6spdlog7details15periodic_workerENS_14default_deleteIS3_EEEC2B7v160006ILb1EvEEv, symObjAddr: 0x89C0, symBinAddr: 0x10000AEB0, symSize: 0x30 }
  - { offsetInCU: 0x7161C, offset: 0x7161C, size: 0x8, addend: 0x0, symName: __ZNSt3__117__compressed_pairIPN6spdlog7details15periodic_workerENS_14default_deleteIS3_EEEC1B7v160006INS_16__value_init_tagES9_EEOT_OT0_, symObjAddr: 0x89F0, symBinAddr: 0x10000AEE0, symSize: 0x30 }
  - { offsetInCU: 0x71674, offset: 0x71674, size: 0x8, addend: 0x0, symName: __ZNSt3__117__compressed_pairIPN6spdlog7details15periodic_workerENS_14default_deleteIS3_EEEC2B7v160006INS_16__value_init_tagES9_EEOT_OT0_, symObjAddr: 0x8A20, symBinAddr: 0x10000AF10, symSize: 0x30 }
  - { offsetInCU: 0x716CC, offset: 0x716CC, size: 0x8, addend: 0x0, symName: __ZNSt3__122__compressed_pair_elemIPN6spdlog7details15periodic_workerELi0ELb0EEC2B7v160006ENS_16__value_init_tagE, symObjAddr: 0x8A50, symBinAddr: 0x10000AF40, symSize: 0x20 }
  - { offsetInCU: 0x71701, offset: 0x71701, size: 0x8, addend: 0x0, symName: __ZNSt3__122__compressed_pair_elemINS_14default_deleteIN6spdlog7details15periodic_workerEEELi1ELb1EEC2B7v160006ENS_16__value_init_tagE, symObjAddr: 0x8A70, symBinAddr: 0x10000AF60, symSize: 0x10 }
  - { offsetInCU: 0x71736, offset: 0x71736, size: 0x8, addend: 0x0, symName: __ZNSt3__110shared_ptrIN6spdlog6loggerEEC2B7v160006Ev, symObjAddr: 0x8A80, symBinAddr: 0x10000AF70, symSize: 0x20 }
  - { offsetInCU: 0x71760, offset: 0x71760, size: 0x8, addend: 0x0, symName: __ZNSt3__19allocatorIN6spdlog5sinks21ansicolor_stdout_sinkINS1_7details13console_mutexEEEEC1B7v160006Ev, symObjAddr: 0x8B40, symBinAddr: 0x10000B030, symSize: 0x20 }
  - { offsetInCU: 0x717CF, offset: 0x717CF, size: 0x8, addend: 0x0, symName: __ZNSt3__118__allocation_guardINS_9allocatorINS_20__shared_ptr_emplaceIN6spdlog5sinks21ansicolor_stdout_sinkINS3_7details13console_mutexEEENS1_IS8_EEEEEEEC1B7v160006IS9_EET_m, symObjAddr: 0x8B60, symBinAddr: 0x10000B050, symSize: 0x30 }
  - { offsetInCU: 0x7181E, offset: 0x7181E, size: 0x8, addend: 0x0, symName: __ZNKSt3__118__allocation_guardINS_9allocatorINS_20__shared_ptr_emplaceIN6spdlog5sinks21ansicolor_stdout_sinkINS3_7details13console_mutexEEENS1_IS8_EEEEEEE5__getB7v160006Ev, symObjAddr: 0x8B90, symBinAddr: 0x10000B080, symSize: 0x20 }
  - { offsetInCU: 0x71844, offset: 0x71844, size: 0x8, addend: 0x0, symName: __ZNSt3__120__shared_ptr_emplaceIN6spdlog5sinks21ansicolor_stdout_sinkINS1_7details13console_mutexEEENS_9allocatorIS6_EEEC1B7v160006IJEEES8_DpOT_, symObjAddr: 0x8BB0, symBinAddr: 0x10000B0A0, symSize: 0x20 }
  - { offsetInCU: 0x71882, offset: 0x71882, size: 0x8, addend: 0x0, symName: __ZNSt3__118__allocation_guardINS_9allocatorINS_20__shared_ptr_emplaceIN6spdlog5sinks21ansicolor_stdout_sinkINS3_7details13console_mutexEEENS1_IS8_EEEEEEE13__release_ptrB7v160006Ev, symObjAddr: 0x8BD0, symBinAddr: 0x10000B0C0, symSize: 0x30 }
  - { offsetInCU: 0x718B6, offset: 0x718B6, size: 0x8, addend: 0x0, symName: __ZNSt3__110shared_ptrIN6spdlog5sinks21ansicolor_stdout_sinkINS1_7details13console_mutexEEEE27__create_with_control_blockB7v160006IS6_NS_20__shared_ptr_emplaceIS6_NS_9allocatorIS6_EEEEEES7_PT_PT0_, symObjAddr: 0x8C00, symBinAddr: 0x10000B0F0, symSize: 0x70 }
  - { offsetInCU: 0x7190B, offset: 0x7190B, size: 0x8, addend: 0x0, symName: __ZNSt3__120__shared_ptr_emplaceIN6spdlog5sinks21ansicolor_stdout_sinkINS1_7details13console_mutexEEENS_9allocatorIS6_EEE10__get_elemB7v160006Ev, symObjAddr: 0x8C70, symBinAddr: 0x10000B160, symSize: 0x20 }
  - { offsetInCU: 0x71931, offset: 0x71931, size: 0x8, addend: 0x0, symName: __ZNSt3__118__allocation_guardINS_9allocatorINS_20__shared_ptr_emplaceIN6spdlog5sinks21ansicolor_stdout_sinkINS3_7details13console_mutexEEENS1_IS8_EEEEEEED1B7v160006Ev, symObjAddr: 0x8C90, symBinAddr: 0x10000B180, symSize: 0x20 }
  - { offsetInCU: 0x7195B, offset: 0x7195B, size: 0x8, addend: 0x0, symName: __ZNSt3__118__allocation_guardINS_9allocatorINS_20__shared_ptr_emplaceIN6spdlog5sinks21ansicolor_stdout_sinkINS3_7details13console_mutexEEENS1_IS8_EEEEEEEC2B7v160006IS9_EET_m, symObjAddr: 0x8CB0, symBinAddr: 0x10000B1A0, symSize: 0x50 }
  - { offsetInCU: 0x719AA, offset: 0x719AA, size: 0x8, addend: 0x0, symName: __ZNSt3__19allocatorINS_20__shared_ptr_emplaceIN6spdlog5sinks21ansicolor_stdout_sinkINS2_7details13console_mutexEEENS0_IS7_EEEEEC1B7v160006IS7_EERKNS0_IT_EE, symObjAddr: 0x8D00, symBinAddr: 0x10000B1F0, symSize: 0x30 }
  - { offsetInCU: 0x719E8, offset: 0x719E8, size: 0x8, addend: 0x0, symName: __ZNSt3__116allocator_traitsINS_9allocatorINS_20__shared_ptr_emplaceIN6spdlog5sinks21ansicolor_stdout_sinkINS3_7details13console_mutexEEENS1_IS8_EEEEEEE8allocateB7v160006ERSB_m, symObjAddr: 0x8D30, symBinAddr: 0x10000B220, symSize: 0x30 }
  - { offsetInCU: 0x71A1B, offset: 0x71A1B, size: 0x8, addend: 0x0, symName: __ZNSt3__19allocatorINS_20__shared_ptr_emplaceIN6spdlog5sinks21ansicolor_stdout_sinkINS2_7details13console_mutexEEENS0_IS7_EEEEEC2B7v160006IS7_EERKNS0_IT_EE, symObjAddr: 0x8D60, symBinAddr: 0x10000B250, symSize: 0x20 }
  - { offsetInCU: 0x71A59, offset: 0x71A59, size: 0x8, addend: 0x0, symName: __ZNSt3__116__non_trivial_ifILb1ENS_9allocatorINS_20__shared_ptr_emplaceIN6spdlog5sinks21ansicolor_stdout_sinkINS3_7details13console_mutexEEENS1_IS8_EEEEEEEC2B7v160006Ev, symObjAddr: 0x8D80, symBinAddr: 0x10000B270, symSize: 0x10 }
  - { offsetInCU: 0x71A83, offset: 0x71A83, size: 0x8, addend: 0x0, symName: __ZNSt3__19allocatorINS_20__shared_ptr_emplaceIN6spdlog5sinks21ansicolor_stdout_sinkINS2_7details13console_mutexEEENS0_IS7_EEEEE8allocateB7v160006Em, symObjAddr: 0x8D90, symBinAddr: 0x10000B280, symSize: 0x50 }
  - { offsetInCU: 0x71AC2, offset: 0x71AC2, size: 0x8, addend: 0x0, symName: __ZNSt3__116allocator_traitsINS_9allocatorINS_20__shared_ptr_emplaceIN6spdlog5sinks21ansicolor_stdout_sinkINS3_7details13console_mutexEEENS1_IS8_EEEEEEE8max_sizeB7v160006ISB_vEEmRKSB_, symObjAddr: 0x8DE0, symBinAddr: 0x10000B2D0, symSize: 0x20 }
  - { offsetInCU: 0x71AF0, offset: 0x71AF0, size: 0x8, addend: 0x0, symName: __ZNKSt3__19allocatorINS_20__shared_ptr_emplaceIN6spdlog5sinks21ansicolor_stdout_sinkINS2_7details13console_mutexEEENS0_IS7_EEEEE8max_sizeB7v160006Ev, symObjAddr: 0x8E00, symBinAddr: 0x10000B2F0, symSize: 0x20 }
  - { offsetInCU: 0x71B16, offset: 0x71B16, size: 0x8, addend: 0x0, symName: __ZNSt3__120__shared_ptr_emplaceIN6spdlog5sinks21ansicolor_stdout_sinkINS1_7details13console_mutexEEENS_9allocatorIS6_EEEC2B7v160006IJEEES8_DpOT_, symObjAddr: 0x8E20, symBinAddr: 0x10000B310, symSize: 0xA0 }
  - { offsetInCU: 0x71B54, offset: 0x71B54, size: 0x8, addend: 0x0, symName: __ZNSt3__119__shared_weak_countC2B7v160006El, symObjAddr: 0x8EC0, symBinAddr: 0x10000B3B0, symSize: 0x50 }
  - { offsetInCU: 0x71B8C, offset: 0x71B8C, size: 0x8, addend: 0x0, symName: __ZNSt3__120__shared_ptr_emplaceIN6spdlog5sinks21ansicolor_stdout_sinkINS1_7details13console_mutexEEENS_9allocatorIS6_EEE8_StorageC1B7v160006EOS8_, symObjAddr: 0x8F10, symBinAddr: 0x10000B400, symSize: 0x30 }
  - { offsetInCU: 0x71BC5, offset: 0x71BC5, size: 0x8, addend: 0x0, symName: __ZN6spdlog5sinks21ansicolor_stdout_sinkINS_7details13console_mutexEEC1ENS_10color_modeE, symObjAddr: 0x8F40, symBinAddr: 0x10000B430, symSize: 0x30 }
  - { offsetInCU: 0x71BFF, offset: 0x71BFF, size: 0x8, addend: 0x0, symName: __ZNSt3__120__shared_ptr_emplaceIN6spdlog5sinks21ansicolor_stdout_sinkINS1_7details13console_mutexEEENS_9allocatorIS6_EEE8_StorageD1B7v160006Ev, symObjAddr: 0x8F70, symBinAddr: 0x10000B460, symSize: 0x20 }
  - { offsetInCU: 0x71C29, offset: 0x71C29, size: 0x8, addend: 0x0, symName: __ZNSt3__120__shared_ptr_emplaceIN6spdlog5sinks21ansicolor_stdout_sinkINS1_7details13console_mutexEEENS_9allocatorIS6_EEED1Ev, symObjAddr: 0x8F90, symBinAddr: 0x10000B480, symSize: 0x20 }
  - { offsetInCU: 0x71C56, offset: 0x71C56, size: 0x8, addend: 0x0, symName: __ZNSt3__120__shared_ptr_emplaceIN6spdlog5sinks21ansicolor_stdout_sinkINS1_7details13console_mutexEEENS_9allocatorIS6_EEED0Ev, symObjAddr: 0x8FB0, symBinAddr: 0x10000B4A0, symSize: 0x30 }
  - { offsetInCU: 0x71C83, offset: 0x71C83, size: 0x8, addend: 0x0, symName: __ZNSt3__120__shared_ptr_emplaceIN6spdlog5sinks21ansicolor_stdout_sinkINS1_7details13console_mutexEEENS_9allocatorIS6_EEE16__on_zero_sharedEv, symObjAddr: 0x8FE0, symBinAddr: 0x10000B4D0, symSize: 0x30 }
  - { offsetInCU: 0x71CA9, offset: 0x71CA9, size: 0x8, addend: 0x0, symName: __ZNSt3__120__shared_ptr_emplaceIN6spdlog5sinks21ansicolor_stdout_sinkINS1_7details13console_mutexEEENS_9allocatorIS6_EEE21__on_zero_shared_weakEv, symObjAddr: 0x9010, symBinAddr: 0x10000B500, symSize: 0x60 }
  - { offsetInCU: 0x71CEA, offset: 0x71CEA, size: 0x8, addend: 0x0, symName: __ZNSt3__114__shared_countC2B7v160006El, symObjAddr: 0x9070, symBinAddr: 0x10000B560, symSize: 0x30 }
  - { offsetInCU: 0x71D22, offset: 0x71D22, size: 0x8, addend: 0x0, symName: __ZNSt3__120__shared_ptr_emplaceIN6spdlog5sinks21ansicolor_stdout_sinkINS1_7details13console_mutexEEENS_9allocatorIS6_EEE8_StorageC2B7v160006EOS8_, symObjAddr: 0x90A0, symBinAddr: 0x10000B590, symSize: 0x20 }
  - { offsetInCU: 0x71D5B, offset: 0x71D5B, size: 0x8, addend: 0x0, symName: __ZNSt3__120__shared_ptr_emplaceIN6spdlog5sinks21ansicolor_stdout_sinkINS1_7details13console_mutexEEENS_9allocatorIS6_EEE8_Storage11__get_allocEv, symObjAddr: 0x90C0, symBinAddr: 0x10000B5B0, symSize: 0x40 }
  - { offsetInCU: 0x71DAE, offset: 0x71DAE, size: 0x8, addend: 0x0, symName: __ZNSt3__117__compressed_pairINS_9allocatorIN6spdlog5sinks21ansicolor_stdout_sinkINS2_7details13console_mutexEEEEES7_E16__get_first_baseB7v160006EPS9_, symObjAddr: 0x9100, symBinAddr: 0x10000B5F0, symSize: 0x10 }
  - { offsetInCU: 0x71DD1, offset: 0x71DD1, size: 0x8, addend: 0x0, symName: __ZN6spdlog5sinks21ansicolor_stdout_sinkINS_7details13console_mutexEEC2ENS_10color_modeE, symObjAddr: 0x9110, symBinAddr: 0x10000B600, symSize: 0x50 }
  - { offsetInCU: 0x71E0B, offset: 0x71E0B, size: 0x8, addend: 0x0, symName: __ZN6spdlog5sinks14ansicolor_sinkINS_7details13console_mutexEEC2EP7__sFILENS_10color_modeE, symObjAddr: 0x9160, symBinAddr: 0x10000B650, symSize: 0x7F0 }
  - { offsetInCU: 0x71E53, offset: 0x71E53, size: 0x8, addend: 0x0, symName: __ZN6spdlog5sinks21ansicolor_stdout_sinkINS_7details13console_mutexEED1Ev, symObjAddr: 0x9950, symBinAddr: 0x10000BE40, symSize: 0x20 }
  - { offsetInCU: 0x71E7F, offset: 0x71E7F, size: 0x8, addend: 0x0, symName: __ZN6spdlog5sinks21ansicolor_stdout_sinkINS_7details13console_mutexEED0Ev, symObjAddr: 0x9970, symBinAddr: 0x10000BE60, symSize: 0x30 }
  - { offsetInCU: 0x71EAB, offset: 0x71EAB, size: 0x8, addend: 0x0, symName: __ZN6spdlog5sinks14ansicolor_sinkINS_7details13console_mutexEE3logERKNS2_7log_msgE, symObjAddr: 0x99A0, symBinAddr: 0x10000BE90, symSize: 0x2F0 }
  - { offsetInCU: 0x71F00, offset: 0x71F00, size: 0x8, addend: 0x0, symName: __ZN6spdlog5sinks14ansicolor_sinkINS_7details13console_mutexEE5flushEv, symObjAddr: 0x9C90, symBinAddr: 0x10000C180, symSize: 0x70 }
  - { offsetInCU: 0x71F36, offset: 0x71F36, size: 0x8, addend: 0x0, symName: __ZN6spdlog5sinks14ansicolor_sinkINS_7details13console_mutexEE11set_patternERKNSt3__112basic_stringIcNS5_11char_traitsIcEENS5_9allocatorIcEEEE, symObjAddr: 0x9D00, symBinAddr: 0x10000C1F0, symSize: 0x1A0 }
  - { offsetInCU: 0x71F7A, offset: 0x71F7A, size: 0x8, addend: 0x0, symName: __ZN6spdlog5sinks14ansicolor_sinkINS_7details13console_mutexEE13set_formatterENSt3__110unique_ptrINS_9formatterENS5_14default_deleteIS7_EEEE, symObjAddr: 0x9EA0, symBinAddr: 0x10000C390, symSize: 0x50 }
  - { offsetInCU: 0x71FBF, offset: 0x71FBF, size: 0x8, addend: 0x0, symName: __ZN6spdlog5sinks4sinkC2Ev, symObjAddr: 0x9EF0, symBinAddr: 0x10000C3E0, symSize: 0x30 }
  - { offsetInCU: 0x71FEB, offset: 0x71FEB, size: 0x8, addend: 0x0, symName: __ZNSt3__15arrayINS_12basic_stringIcNS_11char_traitsIcEENS_9allocatorIcEEEELm7EEC1Ev, symObjAddr: 0xA050, symBinAddr: 0x10000C540, symSize: 0x20 }
  - { offsetInCU: 0x72017, offset: 0x72017, size: 0x8, addend: 0x0, symName: __ZN6spdlog5sinks14ansicolor_sinkINS_7details13console_mutexEE14set_color_modeENS_10color_modeE, symObjAddr: 0xA070, symBinAddr: 0x10000C560, symSize: 0xC0 }
  - { offsetInCU: 0x7204D, offset: 0x7204D, size: 0x8, addend: 0x0, symName: __ZN6spdlog5sinks14ansicolor_sinkINS_7details13console_mutexEE10to_string_ERKN3fmt3v1117basic_string_viewIcEE, symObjAddr: 0xA130, symBinAddr: 0x10000C620, symSize: 0x50 }
  - { offsetInCU: 0x72072, offset: 0x72072, size: 0x8, addend: 0x0, symName: __ZNSt3__15arrayINS_12basic_stringIcNS_11char_traitsIcEENS_9allocatorIcEEEELm7EE2atEm, symObjAddr: 0xA180, symBinAddr: 0x10000C670, symSize: 0x50 }
  - { offsetInCU: 0x720A6, offset: 0x720A6, size: 0x8, addend: 0x0, symName: __ZNSt3__15arrayINS_12basic_stringIcNS_11char_traitsIcEENS_9allocatorIcEEEELm7EED1Ev, symObjAddr: 0xA1D0, symBinAddr: 0x10000C6C0, symSize: 0x20 }
  - { offsetInCU: 0x720D2, offset: 0x720D2, size: 0x8, addend: 0x0, symName: __ZN6spdlog5sinks4sinkD2Ev, symObjAddr: 0xA1F0, symBinAddr: 0x10000C6E0, symSize: 0x10 }
  - { offsetInCU: 0x720FC, offset: 0x720FC, size: 0x8, addend: 0x0, symName: __ZN6spdlog5sinks14ansicolor_sinkINS_7details13console_mutexEED1Ev, symObjAddr: 0xA200, symBinAddr: 0x10000C6F0, symSize: 0x20 }
  - { offsetInCU: 0x72126, offset: 0x72126, size: 0x8, addend: 0x0, symName: __ZN6spdlog5sinks14ansicolor_sinkINS_7details13console_mutexEED0Ev, symObjAddr: 0xA220, symBinAddr: 0x10000C710, symSize: 0x30 }
  - { offsetInCU: 0x72150, offset: 0x72150, size: 0x8, addend: 0x0, symName: __ZNSt3__16atomicIiEC1B7v160006Ei, symObjAddr: 0xA250, symBinAddr: 0x10000C740, symSize: 0x30 }
  - { offsetInCU: 0x72189, offset: 0x72189, size: 0x8, addend: 0x0, symName: __ZN6spdlog5sinks4sinkD1Ev, symObjAddr: 0xA280, symBinAddr: 0x10000C770, symSize: 0x10 }
  - { offsetInCU: 0x721B3, offset: 0x721B3, size: 0x8, addend: 0x0, symName: __ZN6spdlog5sinks4sinkD0Ev, symObjAddr: 0xA290, symBinAddr: 0x10000C780, symSize: 0x10 }
  - { offsetInCU: 0x721DD, offset: 0x721DD, size: 0x8, addend: 0x0, symName: __ZNSt3__16atomicIiEC2B7v160006Ei, symObjAddr: 0xA2A0, symBinAddr: 0x10000C790, symSize: 0x30 }
  - { offsetInCU: 0x72216, offset: 0x72216, size: 0x8, addend: 0x0, symName: __ZNSt3__113__atomic_baseIiLb1EEC2B7v160006Ei, symObjAddr: 0xA2D0, symBinAddr: 0x10000C7C0, symSize: 0x30 }
  - { offsetInCU: 0x7224F, offset: 0x7224F, size: 0x8, addend: 0x0, symName: __ZNSt3__113__atomic_baseIiLb0EEC2B7v160006Ei, symObjAddr: 0xA300, symBinAddr: 0x10000C7F0, symSize: 0x30 }
  - { offsetInCU: 0x72288, offset: 0x72288, size: 0x8, addend: 0x0, symName: __ZNSt3__117__cxx_atomic_implIiNS_22__cxx_atomic_base_implIiEEEC1B7v160006Ei, symObjAddr: 0xA330, symBinAddr: 0x10000C820, symSize: 0x30 }
  - { offsetInCU: 0x722C1, offset: 0x722C1, size: 0x8, addend: 0x0, symName: __ZNSt3__117__cxx_atomic_implIiNS_22__cxx_atomic_base_implIiEEEC2B7v160006Ei, symObjAddr: 0xA360, symBinAddr: 0x10000C850, symSize: 0x30 }
  - { offsetInCU: 0x722FA, offset: 0x722FA, size: 0x8, addend: 0x0, symName: __ZNSt3__122__cxx_atomic_base_implIiEC2Ei, symObjAddr: 0xA390, symBinAddr: 0x10000C880, symSize: 0x20 }
  - { offsetInCU: 0x72333, offset: 0x72333, size: 0x8, addend: 0x0, symName: __ZNSt3__110unique_ptrIN6spdlog17pattern_formatterENS_14default_deleteIS2_EEEC1B7v160006ILb1EvEEPS2_, symObjAddr: 0xA3B0, symBinAddr: 0x10000C8A0, symSize: 0x30 }
  - { offsetInCU: 0x72376, offset: 0x72376, size: 0x8, addend: 0x0, symName: __ZNSt3__110unique_ptrIN6spdlog17pattern_formatterENS_14default_deleteIS2_EEEC2B7v160006ILb1EvEEPS2_, symObjAddr: 0xA3E0, symBinAddr: 0x10000C8D0, symSize: 0x40 }
  - { offsetInCU: 0x723B9, offset: 0x723B9, size: 0x8, addend: 0x0, symName: __ZNSt3__117__compressed_pairIPN6spdlog17pattern_formatterENS_14default_deleteIS2_EEEC1B7v160006IRS3_NS_16__value_init_tagEEEOT_OT0_, symObjAddr: 0xA420, symBinAddr: 0x10000C910, symSize: 0x30 }
  - { offsetInCU: 0x72411, offset: 0x72411, size: 0x8, addend: 0x0, symName: __ZNSt3__117__compressed_pairIPN6spdlog17pattern_formatterENS_14default_deleteIS2_EEEC2B7v160006IRS3_NS_16__value_init_tagEEEOT_OT0_, symObjAddr: 0xA450, symBinAddr: 0x10000C940, symSize: 0x40 }
  - { offsetInCU: 0x72469, offset: 0x72469, size: 0x8, addend: 0x0, symName: __ZNSt3__122__compressed_pair_elemIPN6spdlog17pattern_formatterELi0ELb0EEC2B7v160006IRS3_vEEOT_, symObjAddr: 0xA490, symBinAddr: 0x10000C980, symSize: 0x20 }
  - { offsetInCU: 0x724AB, offset: 0x724AB, size: 0x8, addend: 0x0, symName: __ZNSt3__122__compressed_pair_elemINS_14default_deleteIN6spdlog17pattern_formatterEEELi1ELb1EEC2B7v160006ENS_16__value_init_tagE, symObjAddr: 0xA4B0, symBinAddr: 0x10000C9A0, symSize: 0x10 }
  - { offsetInCU: 0x724E0, offset: 0x724E0, size: 0x8, addend: 0x0, symName: __ZNSt3__15arrayINS_12basic_stringIcNS_11char_traitsIcEENS_9allocatorIcEEEELm7EEC2Ev, symObjAddr: 0xA4C0, symBinAddr: 0x10000C9B0, symSize: 0x50 }
  - { offsetInCU: 0x7250C, offset: 0x7250C, size: 0x8, addend: 0x0, symName: __ZNSt3__112basic_stringIcNS_11char_traitsIcEENS_9allocatorIcEEEC1B7v160006Ev, symObjAddr: 0xA510, symBinAddr: 0x10000CA00, symSize: 0x20 }
  - { offsetInCU: 0x72536, offset: 0x72536, size: 0x8, addend: 0x0, symName: __ZNSt3__112basic_stringIcNS_11char_traitsIcEENS_9allocatorIcEEEC2B7v160006Ev, symObjAddr: 0xA530, symBinAddr: 0x10000CA20, symSize: 0x50 }
  - { offsetInCU: 0x72560, offset: 0x72560, size: 0x8, addend: 0x0, symName: __ZNKSt3__15arrayIPKcLm16EE5beginB7v160006Ev, symObjAddr: 0xA760, symBinAddr: 0x10000CC50, symSize: 0x20 }
  - { offsetInCU: 0x72586, offset: 0x72586, size: 0x8, addend: 0x0, symName: __ZNKSt3__15arrayIPKcLm16EE3endB7v160006Ev, symObjAddr: 0xA780, symBinAddr: 0x10000CC70, symSize: 0x30 }
  - { offsetInCU: 0x725BD, offset: 0x725BD, size: 0x8, addend: 0x0, symName: __ZZZN6spdlog7details2os17is_color_terminalEvENKUlvE_clEvENKUlPKcE_clES4_, symObjAddr: 0xA7B0, symBinAddr: 0x10000CCA0, symSize: 0x40 }
  - { offsetInCU: 0x725F5, offset: 0x725F5, size: 0x8, addend: 0x0, symName: __Z6strstrB7v160006Ua9enable_ifIXLb1EEEPKcS0_, symObjAddr: 0xA7F0, symBinAddr: 0x10000CCE0, symSize: 0x30 }
  - { offsetInCU: 0x72630, offset: 0x72630, size: 0x8, addend: 0x0, symName: __ZNKSt3__15arrayIPKcLm16EE4dataB7v160006Ev, symObjAddr: 0xA820, symBinAddr: 0x10000CD10, symSize: 0x10 }
  - { offsetInCU: 0x72656, offset: 0x72656, size: 0x8, addend: 0x0, symName: __ZNSt3__112basic_stringIcNS_11char_traitsIcEENS_9allocatorIcEEEC1B7v160006EPKcm, symObjAddr: 0xA830, symBinAddr: 0x10000CD20, symSize: 0x30 }
  - { offsetInCU: 0x7269E, offset: 0x7269E, size: 0x8, addend: 0x0, symName: __ZNSt3__112basic_stringIcNS_11char_traitsIcEENS_9allocatorIcEEEC2B7v160006EPKcm, symObjAddr: 0xA860, symBinAddr: 0x10000CD50, symSize: 0x70 }
  - { offsetInCU: 0x726E6, offset: 0x726E6, size: 0x8, addend: 0x0, symName: __ZNSt12out_of_rangeC1B7v160006EPKc, symObjAddr: 0xA940, symBinAddr: 0x10000CE30, symSize: 0x30 }
  - { offsetInCU: 0x7271E, offset: 0x7271E, size: 0x8, addend: 0x0, symName: __ZNSt12out_of_rangeC2B7v160006EPKc, symObjAddr: 0xA970, symBinAddr: 0x10000CE60, symSize: 0x40 }
  - { offsetInCU: 0x72756, offset: 0x72756, size: 0x8, addend: 0x0, symName: __ZNSt3__15arrayINS_12basic_stringIcNS_11char_traitsIcEENS_9allocatorIcEEEELm7EED2Ev, symObjAddr: 0xA9B0, symBinAddr: 0x10000CEA0, symSize: 0x50 }
  - { offsetInCU: 0x72782, offset: 0x72782, size: 0x8, addend: 0x0, symName: __ZN6spdlog5sinks14ansicolor_sinkINS_7details13console_mutexEED2Ev, symObjAddr: 0xAA00, symBinAddr: 0x10000CEF0, symSize: 0x50 }
  - { offsetInCU: 0x727AC, offset: 0x727AC, size: 0x8, addend: 0x0, symName: __ZN6spdlog5sinks21ansicolor_stdout_sinkINS_7details13console_mutexEED2Ev, symObjAddr: 0xAA50, symBinAddr: 0x10000CF40, symSize: 0x20 }
  - { offsetInCU: 0x727F5, offset: 0x727F5, size: 0x8, addend: 0x0, symName: __ZNSt3__110lock_guardINS_5mutexEEC1B7v160006ERS1_, symObjAddr: 0xAA70, symBinAddr: 0x10000CF60, symSize: 0x30 }
  - { offsetInCU: 0x7282D, offset: 0x7282D, size: 0x8, addend: 0x0, symName: __ZNKSt3__110unique_ptrIN6spdlog9formatterENS_14default_deleteIS2_EEEptB7v160006Ev, symObjAddr: 0xAAA0, symBinAddr: 0x10000CF90, symSize: 0x20 }
  - { offsetInCU: 0x72853, offset: 0x72853, size: 0x8, addend: 0x0, symName: __ZN6spdlog5sinks14ansicolor_sinkINS_7details13console_mutexEE12print_range_ERKN3fmt3v1119basic_memory_bufferIcLm250ENSt3__19allocatorIcEEEEmm, symObjAddr: 0xAAC0, symBinAddr: 0x10000CFB0, symSize: 0x60 }
  - { offsetInCU: 0x728A5, offset: 0x728A5, size: 0x8, addend: 0x0, symName: __ZN6spdlog5sinks14ansicolor_sinkINS_7details13console_mutexEE12print_ccode_ERKN3fmt3v1117basic_string_viewIcEE, symObjAddr: 0xAB20, symBinAddr: 0x10000D010, symSize: 0x50 }
  - { offsetInCU: 0x728DB, offset: 0x728DB, size: 0x8, addend: 0x0, symName: __ZNSt3__110lock_guardINS_5mutexEED1B7v160006Ev, symObjAddr: 0xAB70, symBinAddr: 0x10000D060, symSize: 0x20 }
  - { offsetInCU: 0x72905, offset: 0x72905, size: 0x8, addend: 0x0, symName: __ZNSt3__110lock_guardINS_5mutexEEC2B7v160006ERS1_, symObjAddr: 0xAB90, symBinAddr: 0x10000D080, symSize: 0x30 }
  - { offsetInCU: 0x7293D, offset: 0x7293D, size: 0x8, addend: 0x0, symName: __ZNKSt3__117__compressed_pairIPN6spdlog9formatterENS_14default_deleteIS2_EEE5firstB7v160006Ev, symObjAddr: 0xABC0, symBinAddr: 0x10000D0B0, symSize: 0x20 }
  - { offsetInCU: 0x72963, offset: 0x72963, size: 0x8, addend: 0x0, symName: __ZNKSt3__122__compressed_pair_elemIPN6spdlog9formatterELi0ELb0EE5__getB7v160006Ev, symObjAddr: 0xABE0, symBinAddr: 0x10000D0D0, symSize: 0x10 }
  - { offsetInCU: 0x72989, offset: 0x72989, size: 0x8, addend: 0x0, symName: __ZNK3fmt3v116detail6bufferIcE4dataEv, symObjAddr: 0xABF0, symBinAddr: 0x10000D0E0, symSize: 0x20 }
  - { offsetInCU: 0x729AF, offset: 0x729AF, size: 0x8, addend: 0x0, symName: __ZNSt3__110lock_guardINS_5mutexEED2B7v160006Ev, symObjAddr: 0xAC10, symBinAddr: 0x10000D100, symSize: 0x20 }
  - { offsetInCU: 0x729D9, offset: 0x729D9, size: 0x8, addend: 0x0, symName: __ZN6spdlog17pattern_formatterC1ENSt3__112basic_stringIcNS1_11char_traitsIcEENS1_9allocatorIcEEEENS_17pattern_time_typeES7_NS1_13unordered_mapIcNS1_10unique_ptrINS_21custom_flag_formatterENS1_14default_deleteISB_EEEENS1_4hashIcEENS1_8equal_toIcEENS5_INS1_4pairIKcSE_EEEEEE, symObjAddr: 0xAC30, symBinAddr: 0x10000D120, symSize: 0x30 }
  - { offsetInCU: 0x72A45, offset: 0x72A45, size: 0x8, addend: 0x0, symName: __ZNSt3__110unique_ptrIN6spdlog9formatterENS_14default_deleteIS2_EEEaSB7v160006EOS5_, symObjAddr: 0xAC60, symBinAddr: 0x10000D150, symSize: 0x50 }
  - { offsetInCU: 0x72A79, offset: 0x72A79, size: 0x8, addend: 0x0, symName: __ZN6spdlog17pattern_formatterC2ENSt3__112basic_stringIcNS1_11char_traitsIcEENS1_9allocatorIcEEEENS_17pattern_time_typeES7_NS1_13unordered_mapIcNS1_10unique_ptrINS_21custom_flag_formatterENS1_14default_deleteISB_EEEENS1_4hashIcEENS1_8equal_toIcEENS5_INS1_4pairIKcSE_EEEEEE, symObjAddr: 0xACB0, symBinAddr: 0x10000D1A0, symSize: 0x150 }
  - { offsetInCU: 0x72AE5, offset: 0x72AE5, size: 0x8, addend: 0x0, symName: __ZNSt3__113unordered_mapIcNS_10unique_ptrIN6spdlog21custom_flag_formatterENS_14default_deleteIS3_EEEENS_4hashIcEENS_8equal_toIcEENS_9allocatorINS_4pairIKcS6_EEEEEC1EOSG_, symObjAddr: 0xAE00, symBinAddr: 0x10000D2F0, symSize: 0x30 }
  - { offsetInCU: 0x72B20, offset: 0x72B20, size: 0x8, addend: 0x0, symName: __ZN6spdlog17pattern_formatter16compile_pattern_ERKNSt3__112basic_stringIcNS1_11char_traitsIcEENS1_9allocatorIcEEEE, symObjAddr: 0xAE30, symBinAddr: 0x10000D320, symSize: 0x340 }
  - { offsetInCU: 0x72BB1, offset: 0x72BB1, size: 0x8, addend: 0x0, symName: __ZNSt3__113unordered_mapIcNS_10unique_ptrIN6spdlog21custom_flag_formatterENS_14default_deleteIS3_EEEENS_4hashIcEENS_8equal_toIcEENS_9allocatorINS_4pairIKcS6_EEEEEC2EOSG_, symObjAddr: 0xB170, symBinAddr: 0x10000D660, symSize: 0x50 }
  - { offsetInCU: 0x72BEC, offset: 0x72BEC, size: 0x8, addend: 0x0, symName: __ZNSt3__112__hash_tableINS_17__hash_value_typeIcNS_10unique_ptrIN6spdlog21custom_flag_formatterENS_14default_deleteIS4_EEEEEENS_22__unordered_map_hasherIcS8_NS_4hashIcEENS_8equal_toIcEELb1EEENS_21__unordered_map_equalIcS8_SD_SB_Lb1EEENS_9allocatorIS8_EEEC1EOSJ_, symObjAddr: 0xB1C0, symBinAddr: 0x10000D6B0, symSize: 0x30 }
  - { offsetInCU: 0x72C27, offset: 0x72C27, size: 0x8, addend: 0x0, symName: __ZNSt3__112__hash_tableINS_17__hash_value_typeIcNS_10unique_ptrIN6spdlog21custom_flag_formatterENS_14default_deleteIS4_EEEEEENS_22__unordered_map_hasherIcS8_NS_4hashIcEENS_8equal_toIcEELb1EEENS_21__unordered_map_equalIcS8_SD_SB_Lb1EEENS_9allocatorIS8_EEEC2EOSJ_, symObjAddr: 0xB210, symBinAddr: 0x10000D700, symSize: 0x110 }
  - { offsetInCU: 0x72C62, offset: 0x72C62, size: 0x8, addend: 0x0, symName: __ZNSt3__110unique_ptrIA_PNS_16__hash_node_baseIPNS_11__hash_nodeINS_17__hash_value_typeIcNS0_IN6spdlog21custom_flag_formatterENS_14default_deleteIS5_EEEEEEPvEEEENS_25__bucket_list_deallocatorINS_9allocatorISE_EEEEEC1B7v160006EOSK_, symObjAddr: 0xB320, symBinAddr: 0x10000D810, symSize: 0x30 }
  - { offsetInCU: 0x72C9B, offset: 0x72C9B, size: 0x8, addend: 0x0, symName: __ZNSt3__112__hash_tableINS_17__hash_value_typeIcNS_10unique_ptrIN6spdlog21custom_flag_formatterENS_14default_deleteIS4_EEEEEENS_22__unordered_map_hasherIcS8_NS_4hashIcEENS_8equal_toIcEELb1EEENS_21__unordered_map_equalIcS8_SD_SB_Lb1EEENS_9allocatorIS8_EEE4sizeB7v160006Ev, symObjAddr: 0xB350, symBinAddr: 0x10000D840, symSize: 0x20 }
  - { offsetInCU: 0x72CC1, offset: 0x72CC1, size: 0x8, addend: 0x0, symName: __ZNSt3__117__compressed_pairINS_16__hash_node_baseIPNS_11__hash_nodeINS_17__hash_value_typeIcNS_10unique_ptrIN6spdlog21custom_flag_formatterENS_14default_deleteIS6_EEEEEEPvEEEENS_9allocatorISC_EEE5firstB7v160006Ev, symObjAddr: 0xB370, symBinAddr: 0x10000D860, symSize: 0x20 }
  - { offsetInCU: 0x72CE7, offset: 0x72CE7, size: 0x8, addend: 0x0, symName: __ZNSt3__116__hash_node_baseIPNS_11__hash_nodeINS_17__hash_value_typeIcNS_10unique_ptrIN6spdlog21custom_flag_formatterENS_14default_deleteIS5_EEEEEEPvEEE5__ptrB7v160006Ev, symObjAddr: 0xB390, symBinAddr: 0x10000D880, symSize: 0x20 }
  - { offsetInCU: 0x72D0D, offset: 0x72D0D, size: 0x8, addend: 0x0, symName: __ZNKSt3__110unique_ptrIA_PNS_16__hash_node_baseIPNS_11__hash_nodeINS_17__hash_value_typeIcNS0_IN6spdlog21custom_flag_formatterENS_14default_deleteIS5_EEEEEEPvEEEENS_25__bucket_list_deallocatorINS_9allocatorISE_EEEEEixB7v160006Em, symObjAddr: 0xB3B0, symBinAddr: 0x10000D8A0, symSize: 0x30 }
  - { offsetInCU: 0x72D42, offset: 0x72D42, size: 0x8, addend: 0x0, symName: __ZNKSt3__116__hash_node_baseIPNS_11__hash_nodeINS_17__hash_value_typeIcNS_10unique_ptrIN6spdlog21custom_flag_formatterENS_14default_deleteIS5_EEEEEEPvEEE6__hashB7v160006Ev, symObjAddr: 0xB460, symBinAddr: 0x10000D950, symSize: 0x20 }
  - { offsetInCU: 0x72D68, offset: 0x72D68, size: 0x8, addend: 0x0, symName: __ZNKSt3__112__hash_tableINS_17__hash_value_typeIcNS_10unique_ptrIN6spdlog21custom_flag_formatterENS_14default_deleteIS4_EEEEEENS_22__unordered_map_hasherIcS8_NS_4hashIcEENS_8equal_toIcEELb1EEENS_21__unordered_map_equalIcS8_SD_SB_Lb1EEENS_9allocatorIS8_EEE12bucket_countB7v160006Ev, symObjAddr: 0xB480, symBinAddr: 0x10000D970, symSize: 0x30 }
  - { offsetInCU: 0x72D8E, offset: 0x72D8E, size: 0x8, addend: 0x0, symName: __ZNSt3__110unique_ptrIA_PNS_16__hash_node_baseIPNS_11__hash_nodeINS_17__hash_value_typeIcNS0_IN6spdlog21custom_flag_formatterENS_14default_deleteIS5_EEEEEEPvEEEENS_25__bucket_list_deallocatorINS_9allocatorISE_EEEEEC2B7v160006EOSK_, symObjAddr: 0xB4B0, symBinAddr: 0x10000D9A0, symSize: 0x60 }
  - { offsetInCU: 0x72DC7, offset: 0x72DC7, size: 0x8, addend: 0x0, symName: __ZNSt3__110unique_ptrIA_PNS_16__hash_node_baseIPNS_11__hash_nodeINS_17__hash_value_typeIcNS0_IN6spdlog21custom_flag_formatterENS_14default_deleteIS5_EEEEEEPvEEEENS_25__bucket_list_deallocatorINS_9allocatorISE_EEEEE7releaseB7v160006Ev, symObjAddr: 0xB510, symBinAddr: 0x10000DA00, symSize: 0x40 }
  - { offsetInCU: 0x72DFC, offset: 0x72DFC, size: 0x8, addend: 0x0, symName: __ZNSt3__110unique_ptrIA_PNS_16__hash_node_baseIPNS_11__hash_nodeINS_17__hash_value_typeIcNS0_IN6spdlog21custom_flag_formatterENS_14default_deleteIS5_EEEEEEPvEEEENS_25__bucket_list_deallocatorINS_9allocatorISE_EEEEE11get_deleterB7v160006Ev, symObjAddr: 0xB550, symBinAddr: 0x10000DA40, symSize: 0x20 }
  - { offsetInCU: 0x72E28, offset: 0x72E28, size: 0x8, addend: 0x0, symName: __ZNSt3__117__compressed_pairIPPNS_16__hash_node_baseIPNS_11__hash_nodeINS_17__hash_value_typeIcNS_10unique_ptrIN6spdlog21custom_flag_formatterENS_14default_deleteIS6_EEEEEEPvEEEENS_25__bucket_list_deallocatorINS_9allocatorISF_EEEEEC1B7v160006ISG_SK_EEOT_OT0_, symObjAddr: 0xB570, symBinAddr: 0x10000DA60, symSize: 0x30 }
  - { offsetInCU: 0x72E80, offset: 0x72E80, size: 0x8, addend: 0x0, symName: __ZNSt3__117__compressed_pairIPPNS_16__hash_node_baseIPNS_11__hash_nodeINS_17__hash_value_typeIcNS_10unique_ptrIN6spdlog21custom_flag_formatterENS_14default_deleteIS6_EEEEEEPvEEEENS_25__bucket_list_deallocatorINS_9allocatorISF_EEEEE5firstB7v160006Ev, symObjAddr: 0xB5A0, symBinAddr: 0x10000DA90, symSize: 0x20 }
  - { offsetInCU: 0x72EA6, offset: 0x72EA6, size: 0x8, addend: 0x0, symName: __ZNSt3__122__compressed_pair_elemIPPNS_16__hash_node_baseIPNS_11__hash_nodeINS_17__hash_value_typeIcNS_10unique_ptrIN6spdlog21custom_flag_formatterENS_14default_deleteIS6_EEEEEEPvEEEELi0ELb0EE5__getB7v160006Ev, symObjAddr: 0xB5C0, symBinAddr: 0x10000DAB0, symSize: 0x10 }
  - { offsetInCU: 0x72ECC, offset: 0x72ECC, size: 0x8, addend: 0x0, symName: __ZNSt3__117__compressed_pairIPPNS_16__hash_node_baseIPNS_11__hash_nodeINS_17__hash_value_typeIcNS_10unique_ptrIN6spdlog21custom_flag_formatterENS_14default_deleteIS6_EEEEEEPvEEEENS_25__bucket_list_deallocatorINS_9allocatorISF_EEEEE6secondB7v160006Ev, symObjAddr: 0xB5D0, symBinAddr: 0x10000DAC0, symSize: 0x20 }
  - { offsetInCU: 0x72EF2, offset: 0x72EF2, size: 0x8, addend: 0x0, symName: __ZNSt3__122__compressed_pair_elemINS_25__bucket_list_deallocatorINS_9allocatorIPNS_16__hash_node_baseIPNS_11__hash_nodeINS_17__hash_value_typeIcNS_10unique_ptrIN6spdlog21custom_flag_formatterENS_14default_deleteIS8_EEEEEEPvEEEEEEEELi1ELb0EE5__getB7v160006Ev, symObjAddr: 0xB5F0, symBinAddr: 0x10000DAE0, symSize: 0x10 }
  - { offsetInCU: 0x72F18, offset: 0x72F18, size: 0x8, addend: 0x0, symName: __ZNSt3__117__compressed_pairIPPNS_16__hash_node_baseIPNS_11__hash_nodeINS_17__hash_value_typeIcNS_10unique_ptrIN6spdlog21custom_flag_formatterENS_14default_deleteIS6_EEEEEEPvEEEENS_25__bucket_list_deallocatorINS_9allocatorISF_EEEEEC2B7v160006ISG_SK_EEOT_OT0_, symObjAddr: 0xB600, symBinAddr: 0x10000DAF0, symSize: 0x40 }
  - { offsetInCU: 0x72F70, offset: 0x72F70, size: 0x8, addend: 0x0, symName: __ZNSt3__122__compressed_pair_elemIPPNS_16__hash_node_baseIPNS_11__hash_nodeINS_17__hash_value_typeIcNS_10unique_ptrIN6spdlog21custom_flag_formatterENS_14default_deleteIS6_EEEEEEPvEEEELi0ELb0EEC2B7v160006ISG_vEEOT_, symObjAddr: 0xB640, symBinAddr: 0x10000DB30, symSize: 0x20 }
  - { offsetInCU: 0x72FB2, offset: 0x72FB2, size: 0x8, addend: 0x0, symName: __ZNSt3__122__compressed_pair_elemINS_25__bucket_list_deallocatorINS_9allocatorIPNS_16__hash_node_baseIPNS_11__hash_nodeINS_17__hash_value_typeIcNS_10unique_ptrIN6spdlog21custom_flag_formatterENS_14default_deleteIS8_EEEEEEPvEEEEEEEELi1ELb0EEC2B7v160006ISJ_vEEOT_, symObjAddr: 0xB660, symBinAddr: 0x10000DB50, symSize: 0x30 }
  - { offsetInCU: 0x72FF4, offset: 0x72FF4, size: 0x8, addend: 0x0, symName: __ZNSt3__125__bucket_list_deallocatorINS_9allocatorIPNS_16__hash_node_baseIPNS_11__hash_nodeINS_17__hash_value_typeIcNS_10unique_ptrIN6spdlog21custom_flag_formatterENS_14default_deleteIS7_EEEEEEPvEEEEEEEC1B7v160006EOSI_, symObjAddr: 0xB690, symBinAddr: 0x10000DB80, symSize: 0x30 }
  - { offsetInCU: 0x7302D, offset: 0x7302D, size: 0x8, addend: 0x0, symName: __ZNSt3__125__bucket_list_deallocatorINS_9allocatorIPNS_16__hash_node_baseIPNS_11__hash_nodeINS_17__hash_value_typeIcNS_10unique_ptrIN6spdlog21custom_flag_formatterENS_14default_deleteIS7_EEEEEEPvEEEEEEEC2B7v160006EOSI_, symObjAddr: 0xB6C0, symBinAddr: 0x10000DBB0, symSize: 0x40 }
  - { offsetInCU: 0x73066, offset: 0x73066, size: 0x8, addend: 0x0, symName: __ZNSt3__125__bucket_list_deallocatorINS_9allocatorIPNS_16__hash_node_baseIPNS_11__hash_nodeINS_17__hash_value_typeIcNS_10unique_ptrIN6spdlog21custom_flag_formatterENS_14default_deleteIS7_EEEEEEPvEEEEEEE4sizeB7v160006Ev, symObjAddr: 0xB700, symBinAddr: 0x10000DBF0, symSize: 0x20 }
  - { offsetInCU: 0x7308C, offset: 0x7308C, size: 0x8, addend: 0x0, symName: __ZNSt3__117__compressed_pairImNS_9allocatorIPNS_16__hash_node_baseIPNS_11__hash_nodeINS_17__hash_value_typeIcNS_10unique_ptrIN6spdlog21custom_flag_formatterENS_14default_deleteIS7_EEEEEEPvEEEEEEE5firstB7v160006Ev, symObjAddr: 0xB720, symBinAddr: 0x10000DC10, symSize: 0x20 }
  - { offsetInCU: 0x730B2, offset: 0x730B2, size: 0x8, addend: 0x0, symName: __ZNSt3__122__compressed_pair_elemImLi0ELb0EE5__getB7v160006Ev, symObjAddr: 0xB740, symBinAddr: 0x10000DC30, symSize: 0x10 }
  - { offsetInCU: 0x730D8, offset: 0x730D8, size: 0x8, addend: 0x0, symName: __ZNSt3__117__compressed_pairImNS_22__unordered_map_hasherIcNS_17__hash_value_typeIcNS_10unique_ptrIN6spdlog21custom_flag_formatterENS_14default_deleteIS5_EEEEEENS_4hashIcEENS_8equal_toIcEELb1EEEE5firstB7v160006Ev, symObjAddr: 0xB750, symBinAddr: 0x10000DC40, symSize: 0x20 }
  - { offsetInCU: 0x730FE, offset: 0x730FE, size: 0x8, addend: 0x0, symName: __ZNSt3__122__compressed_pair_elemINS_16__hash_node_baseIPNS_11__hash_nodeINS_17__hash_value_typeIcNS_10unique_ptrIN6spdlog21custom_flag_formatterENS_14default_deleteIS6_EEEEEEPvEEEELi0ELb0EE5__getB7v160006Ev, symObjAddr: 0xB770, symBinAddr: 0x10000DC60, symSize: 0x10 }
  - { offsetInCU: 0x73124, offset: 0x73124, size: 0x8, addend: 0x0, symName: __ZNSt3__114pointer_traitsIPNS_16__hash_node_baseIPNS_11__hash_nodeINS_17__hash_value_typeIcNS_10unique_ptrIN6spdlog21custom_flag_formatterENS_14default_deleteIS6_EEEEEEPvEEEEE10pointer_toB7v160006ERSE_, symObjAddr: 0xB780, symBinAddr: 0x10000DC70, symSize: 0x10 }
  - { offsetInCU: 0x73147, offset: 0x73147, size: 0x8, addend: 0x0, symName: __ZNKSt3__117__compressed_pairIPPNS_16__hash_node_baseIPNS_11__hash_nodeINS_17__hash_value_typeIcNS_10unique_ptrIN6spdlog21custom_flag_formatterENS_14default_deleteIS6_EEEEEEPvEEEENS_25__bucket_list_deallocatorINS_9allocatorISF_EEEEE5firstB7v160006Ev, symObjAddr: 0xB790, symBinAddr: 0x10000DC80, symSize: 0x20 }
  - { offsetInCU: 0x7316D, offset: 0x7316D, size: 0x8, addend: 0x0, symName: __ZNKSt3__122__compressed_pair_elemIPPNS_16__hash_node_baseIPNS_11__hash_nodeINS_17__hash_value_typeIcNS_10unique_ptrIN6spdlog21custom_flag_formatterENS_14default_deleteIS6_EEEEEEPvEEEELi0ELb0EE5__getB7v160006Ev, symObjAddr: 0xB7B0, symBinAddr: 0x10000DCA0, symSize: 0x10 }
  - { offsetInCU: 0x73193, offset: 0x73193, size: 0x8, addend: 0x0, symName: __ZNKSt3__110unique_ptrIA_PNS_16__hash_node_baseIPNS_11__hash_nodeINS_17__hash_value_typeIcNS0_IN6spdlog21custom_flag_formatterENS_14default_deleteIS5_EEEEEEPvEEEENS_25__bucket_list_deallocatorINS_9allocatorISE_EEEEE11get_deleterB7v160006Ev, symObjAddr: 0xB7C0, symBinAddr: 0x10000DCB0, symSize: 0x20 }
  - { offsetInCU: 0x731B9, offset: 0x731B9, size: 0x8, addend: 0x0, symName: __ZNKSt3__125__bucket_list_deallocatorINS_9allocatorIPNS_16__hash_node_baseIPNS_11__hash_nodeINS_17__hash_value_typeIcNS_10unique_ptrIN6spdlog21custom_flag_formatterENS_14default_deleteIS7_EEEEEEPvEEEEEEE4sizeB7v160006Ev, symObjAddr: 0xB7E0, symBinAddr: 0x10000DCD0, symSize: 0x20 }
  - { offsetInCU: 0x731DF, offset: 0x731DF, size: 0x8, addend: 0x0, symName: __ZNKSt3__117__compressed_pairIPPNS_16__hash_node_baseIPNS_11__hash_nodeINS_17__hash_value_typeIcNS_10unique_ptrIN6spdlog21custom_flag_formatterENS_14default_deleteIS6_EEEEEEPvEEEENS_25__bucket_list_deallocatorINS_9allocatorISF_EEEEE6secondB7v160006Ev, symObjAddr: 0xB800, symBinAddr: 0x10000DCF0, symSize: 0x20 }
  - { offsetInCU: 0x73205, offset: 0x73205, size: 0x8, addend: 0x0, symName: __ZNKSt3__122__compressed_pair_elemINS_25__bucket_list_deallocatorINS_9allocatorIPNS_16__hash_node_baseIPNS_11__hash_nodeINS_17__hash_value_typeIcNS_10unique_ptrIN6spdlog21custom_flag_formatterENS_14default_deleteIS8_EEEEEEPvEEEEEEEELi1ELb0EE5__getB7v160006Ev, symObjAddr: 0xB820, symBinAddr: 0x10000DD10, symSize: 0x10 }
  - { offsetInCU: 0x7322B, offset: 0x7322B, size: 0x8, addend: 0x0, symName: __ZNKSt3__117__compressed_pairImNS_9allocatorIPNS_16__hash_node_baseIPNS_11__hash_nodeINS_17__hash_value_typeIcNS_10unique_ptrIN6spdlog21custom_flag_formatterENS_14default_deleteIS7_EEEEEEPvEEEEEEE5firstB7v160006Ev, symObjAddr: 0xB830, symBinAddr: 0x10000DD20, symSize: 0x20 }
  - { offsetInCU: 0x73251, offset: 0x73251, size: 0x8, addend: 0x0, symName: __ZNKSt3__112basic_stringIcNS_11char_traitsIcEENS_9allocatorIcEEE3endB7v160006Ev, symObjAddr: 0xB850, symBinAddr: 0x10000DD40, symSize: 0x60 }
  - { offsetInCU: 0x73277, offset: 0x73277, size: 0x8, addend: 0x0, symName: __ZNSt3__110unique_ptrIN6spdlog7details19aggregate_formatterENS_14default_deleteIS3_EEEC1B7v160006ILb1EvEEv, symObjAddr: 0xB8B0, symBinAddr: 0x10000DDA0, symSize: 0x20 }
  - { offsetInCU: 0x732AC, offset: 0x732AC, size: 0x8, addend: 0x0, symName: __ZNSt3__16vectorINS_10unique_ptrIN6spdlog7details14flag_formatterENS_14default_deleteIS4_EEEENS_9allocatorIS7_EEE5clearB7v160006Ev, symObjAddr: 0xB8D0, symBinAddr: 0x10000DDC0, symSize: 0x50 }
  - { offsetInCU: 0x732E1, offset: 0x732E1, size: 0x8, addend: 0x0, symName: __ZNKSt3__112basic_stringIcNS_11char_traitsIcEENS_9allocatorIcEEE5beginB7v160006Ev, symObjAddr: 0xB920, symBinAddr: 0x10000DE10, symSize: 0x40 }
  - { offsetInCU: 0x73307, offset: 0x73307, size: 0x8, addend: 0x0, symName: __ZNKSt3__111__wrap_iterIPKcEdeB7v160006Ev, symObjAddr: 0xB990, symBinAddr: 0x10000DE80, symSize: 0x20 }
  - { offsetInCU: 0x7332D, offset: 0x7332D, size: 0x8, addend: 0x0, symName: __ZNKSt3__110unique_ptrIN6spdlog7details19aggregate_formatterENS_14default_deleteIS3_EEEcvbB7v160006Ev, symObjAddr: 0xB9B0, symBinAddr: 0x10000DEA0, symSize: 0x30 }
  - { offsetInCU: 0x73353, offset: 0x73353, size: 0x8, addend: 0x0, symName: __ZNSt3__110unique_ptrIN6spdlog7details14flag_formatterENS_14default_deleteIS3_EEEC1B7v160006INS2_19aggregate_formatterENS4_IS8_EEvvEEONS0_IT_T0_EE, symObjAddr: 0xB9E0, symBinAddr: 0x10000DED0, symSize: 0x30 }
  - { offsetInCU: 0x7339F, offset: 0x7339F, size: 0x8, addend: 0x0, symName: __ZN6spdlog17pattern_formatter15handle_padspec_ERNSt3__111__wrap_iterIPKcEES5_, symObjAddr: 0xBA10, symBinAddr: 0x10000DF00, symSize: 0x210 }
  - { offsetInCU: 0x73441, offset: 0x73441, size: 0x8, addend: 0x0, symName: __ZNSt3__111__wrap_iterIPKcEppB7v160006Ev, symObjAddr: 0xBC20, symBinAddr: 0x10000E110, symSize: 0x20 }
  - { offsetInCU: 0x73467, offset: 0x73467, size: 0x8, addend: 0x0, symName: __ZNK6spdlog7details12padding_info7enabledEv, symObjAddr: 0xBC40, symBinAddr: 0x10000E130, symSize: 0x20 }
  - { offsetInCU: 0x7348D, offset: 0x7348D, size: 0x8, addend: 0x0, symName: __ZN6spdlog17pattern_formatter12handle_flag_INS_7details13scoped_padderEEEvcNS2_12padding_infoE, symObjAddr: 0xBC60, symBinAddr: 0x10000E150, symSize: 0x20D0 }
  - { offsetInCU: 0x7351D, offset: 0x7351D, size: 0x8, addend: 0x0, symName: __ZN6spdlog17pattern_formatter12handle_flag_INS_7details18null_scoped_padderEEEvcNS2_12padding_infoE, symObjAddr: 0xDD30, symBinAddr: 0x100010220, symSize: 0x20C0 }
  - { offsetInCU: 0x735AD, offset: 0x735AD, size: 0x8, addend: 0x0, symName: __ZNSt3__110unique_ptrIN6spdlog7details19aggregate_formatterENS_14default_deleteIS3_EEEaSB7v160006EOS6_, symObjAddr: 0xFE50, symBinAddr: 0x100012340, symSize: 0x50 }
  - { offsetInCU: 0x735E1, offset: 0x735E1, size: 0x8, addend: 0x0, symName: __ZNSt3__110unique_ptrIN6spdlog7details19aggregate_formatterENS_14default_deleteIS3_EEED1B7v160006Ev, symObjAddr: 0xFEA0, symBinAddr: 0x100012390, symSize: 0x20 }
  - { offsetInCU: 0x7360B, offset: 0x7360B, size: 0x8, addend: 0x0, symName: __ZNKSt3__110unique_ptrIN6spdlog7details19aggregate_formatterENS_14default_deleteIS3_EEEptB7v160006Ev, symObjAddr: 0xFEC0, symBinAddr: 0x1000123B0, symSize: 0x20 }
  - { offsetInCU: 0x73631, offset: 0x73631, size: 0x8, addend: 0x0, symName: __ZN6spdlog7details19aggregate_formatter6add_chEc, symObjAddr: 0xFEE0, symBinAddr: 0x1000123D0, symSize: 0x30 }
  - { offsetInCU: 0x73666, offset: 0x73666, size: 0x8, addend: 0x0, symName: __ZNKSt3__112basic_stringIcNS_11char_traitsIcEENS_9allocatorIcEEE21__make_const_iteratorB7v160006EPKc, symObjAddr: 0xFF10, symBinAddr: 0x100012400, symSize: 0x30 }
  - { offsetInCU: 0x7369B, offset: 0x7369B, size: 0x8, addend: 0x0, symName: __ZNSt3__111__wrap_iterIPKcEC1B7v160006EPKvS2_, symObjAddr: 0xFF40, symBinAddr: 0x100012430, symSize: 0x30 }
  - { offsetInCU: 0x736E1, offset: 0x736E1, size: 0x8, addend: 0x0, symName: __ZNSt3__111__wrap_iterIPKcEC2B7v160006EPKvS2_, symObjAddr: 0xFF70, symBinAddr: 0x100012460, symSize: 0x20 }
  - { offsetInCU: 0x73727, offset: 0x73727, size: 0x8, addend: 0x0, symName: __ZNSt3__110unique_ptrIN6spdlog7details19aggregate_formatterENS_14default_deleteIS3_EEEC2B7v160006ILb1EvEEv, symObjAddr: 0xFF90, symBinAddr: 0x100012480, symSize: 0x30 }
  - { offsetInCU: 0x7375C, offset: 0x7375C, size: 0x8, addend: 0x0, symName: __ZNSt3__117__compressed_pairIPN6spdlog7details19aggregate_formatterENS_14default_deleteIS3_EEEC1B7v160006INS_16__value_init_tagES9_EEOT_OT0_, symObjAddr: 0xFFC0, symBinAddr: 0x1000124B0, symSize: 0x30 }
  - { offsetInCU: 0x737B4, offset: 0x737B4, size: 0x8, addend: 0x0, symName: __ZNSt3__117__compressed_pairIPN6spdlog7details19aggregate_formatterENS_14default_deleteIS3_EEEC2B7v160006INS_16__value_init_tagES9_EEOT_OT0_, symObjAddr: 0xFFF0, symBinAddr: 0x1000124E0, symSize: 0x30 }
  - { offsetInCU: 0x7380C, offset: 0x7380C, size: 0x8, addend: 0x0, symName: __ZNSt3__122__compressed_pair_elemIPN6spdlog7details19aggregate_formatterELi0ELb0EEC2B7v160006ENS_16__value_init_tagE, symObjAddr: 0x10020, symBinAddr: 0x100012510, symSize: 0x20 }
  - { offsetInCU: 0x73841, offset: 0x73841, size: 0x8, addend: 0x0, symName: __ZNSt3__122__compressed_pair_elemINS_14default_deleteIN6spdlog7details19aggregate_formatterEEELi1ELb1EEC2B7v160006ENS_16__value_init_tagE, symObjAddr: 0x10040, symBinAddr: 0x100012530, symSize: 0x10 }
  - { offsetInCU: 0x73876, offset: 0x73876, size: 0x8, addend: 0x0, symName: __ZNKSt3__16vectorINS_10unique_ptrIN6spdlog7details14flag_formatterENS_14default_deleteIS4_EEEENS_9allocatorIS7_EEE17__annotate_shrinkB7v160006Em, symObjAddr: 0x10050, symBinAddr: 0x100012540, symSize: 0xA0 }
  - { offsetInCU: 0x738AB, offset: 0x738AB, size: 0x8, addend: 0x0, symName: __ZNKSt3__111__wrap_iterIPKcE4baseB7v160006Ev, symObjAddr: 0x10130, symBinAddr: 0x100012620, symSize: 0x20 }
  - { offsetInCU: 0x738D1, offset: 0x738D1, size: 0x8, addend: 0x0, symName: __ZNKSt3__117__compressed_pairIPN6spdlog7details19aggregate_formatterENS_14default_deleteIS3_EEE5firstB7v160006Ev, symObjAddr: 0x10150, symBinAddr: 0x100012640, symSize: 0x20 }
  - { offsetInCU: 0x738F7, offset: 0x738F7, size: 0x8, addend: 0x0, symName: __ZNKSt3__122__compressed_pair_elemIPN6spdlog7details19aggregate_formatterELi0ELb0EE5__getB7v160006Ev, symObjAddr: 0x10170, symBinAddr: 0x100012660, symSize: 0x10 }
  - { offsetInCU: 0x7391D, offset: 0x7391D, size: 0x8, addend: 0x0, symName: __ZNSt3__110unique_ptrIN6spdlog7details14flag_formatterENS_14default_deleteIS3_EEEC2B7v160006INS2_19aggregate_formatterENS4_IS8_EEvvEEONS0_IT_T0_EE, symObjAddr: 0x10180, symBinAddr: 0x100012670, symSize: 0x60 }
  - { offsetInCU: 0x73969, offset: 0x73969, size: 0x8, addend: 0x0, symName: __ZNSt3__110unique_ptrIN6spdlog7details19aggregate_formatterENS_14default_deleteIS3_EEE7releaseB7v160006Ev, symObjAddr: 0x101E0, symBinAddr: 0x1000126D0, symSize: 0x40 }
  - { offsetInCU: 0x7399E, offset: 0x7399E, size: 0x8, addend: 0x0, symName: __ZNSt3__110unique_ptrIN6spdlog7details19aggregate_formatterENS_14default_deleteIS3_EEE11get_deleterB7v160006Ev, symObjAddr: 0x10220, symBinAddr: 0x100012710, symSize: 0x20 }
  - { offsetInCU: 0x739D0, offset: 0x739D0, size: 0x8, addend: 0x0, symName: __ZNSt3__117__compressed_pairIPN6spdlog7details14flag_formatterENS_14default_deleteIS3_EEEC1B7v160006IPNS2_19aggregate_formatterENS5_IS9_EEEEOT_OT0_, symObjAddr: 0x10240, symBinAddr: 0x100012730, symSize: 0x30 }
  - { offsetInCU: 0x73A28, offset: 0x73A28, size: 0x8, addend: 0x0, symName: __ZNSt3__117__compressed_pairIPN6spdlog7details19aggregate_formatterENS_14default_deleteIS3_EEE5firstB7v160006Ev, symObjAddr: 0x10270, symBinAddr: 0x100012760, symSize: 0x20 }
  - { offsetInCU: 0x73A4E, offset: 0x73A4E, size: 0x8, addend: 0x0, symName: __ZNSt3__122__compressed_pair_elemIPN6spdlog7details19aggregate_formatterELi0ELb0EE5__getB7v160006Ev, symObjAddr: 0x10290, symBinAddr: 0x100012780, symSize: 0x10 }
  - { offsetInCU: 0x73A74, offset: 0x73A74, size: 0x8, addend: 0x0, symName: __ZNSt3__117__compressed_pairIPN6spdlog7details19aggregate_formatterENS_14default_deleteIS3_EEE6secondB7v160006Ev, symObjAddr: 0x102A0, symBinAddr: 0x100012790, symSize: 0x20 }
  - { offsetInCU: 0x73A9A, offset: 0x73A9A, size: 0x8, addend: 0x0, symName: __ZNSt3__122__compressed_pair_elemINS_14default_deleteIN6spdlog7details19aggregate_formatterEEELi1ELb1EE5__getB7v160006Ev, symObjAddr: 0x102C0, symBinAddr: 0x1000127B0, symSize: 0x10 }
  - { offsetInCU: 0x73AC0, offset: 0x73AC0, size: 0x8, addend: 0x0, symName: __ZNSt3__117__compressed_pairIPN6spdlog7details14flag_formatterENS_14default_deleteIS3_EEEC2B7v160006IPNS2_19aggregate_formatterENS5_IS9_EEEEOT_OT0_, symObjAddr: 0x102D0, symBinAddr: 0x1000127C0, symSize: 0x40 }
  - { offsetInCU: 0x73B18, offset: 0x73B18, size: 0x8, addend: 0x0, symName: __ZNSt3__122__compressed_pair_elemIPN6spdlog7details14flag_formatterELi0ELb0EEC2B7v160006IPNS2_19aggregate_formatterEvEEOT_, symObjAddr: 0x10310, symBinAddr: 0x100012800, symSize: 0x20 }
  - { offsetInCU: 0x73B5A, offset: 0x73B5A, size: 0x8, addend: 0x0, symName: __ZNSt3__122__compressed_pair_elemINS_14default_deleteIN6spdlog7details14flag_formatterEEELi1ELb1EEC2B7v160006INS1_INS3_19aggregate_formatterEEEvEEOT_, symObjAddr: 0x10330, symBinAddr: 0x100012820, symSize: 0x30 }
  - { offsetInCU: 0x73B9C, offset: 0x73B9C, size: 0x8, addend: 0x0, symName: __ZNSt3__114default_deleteIN6spdlog7details14flag_formatterEEC2B7v160006INS2_19aggregate_formatterEEERKNS0_IT_EEPNS_9enable_ifIXsr14is_convertibleIPS7_PS3_EE5valueEvE4typeE, symObjAddr: 0x10360, symBinAddr: 0x100012850, symSize: 0x20 }
  - { offsetInCU: 0x73BE5, offset: 0x73BE5, size: 0x8, addend: 0x0, symName: __ZN6spdlog7details12padding_infoC1EmNS1_8pad_sideEb, symObjAddr: 0x103A0, symBinAddr: 0x100012890, symSize: 0x40 }
  - { offsetInCU: 0x73C38, offset: 0x73C38, size: 0x8, addend: 0x0, symName: __Z9__isctypeim, symObjAddr: 0x103E0, symBinAddr: 0x1000128D0, symSize: 0x60 }
  - { offsetInCU: 0x73C73, offset: 0x73C73, size: 0x8, addend: 0x0, symName: __ZN6spdlog7details12padding_infoC2EmNS1_8pad_sideEb, symObjAddr: 0x10440, symBinAddr: 0x100012930, symSize: 0x40 }
  - { offsetInCU: 0x73CC7, offset: 0x73CC7, size: 0x8, addend: 0x0, symName: __ZNSt3__113unordered_mapIcNS_10unique_ptrIN6spdlog21custom_flag_formatterENS_14default_deleteIS3_EEEENS_4hashIcEENS_8equal_toIcEENS_9allocatorINS_4pairIKcS6_EEEEE4findB7v160006ERSD_, symObjAddr: 0x10480, symBinAddr: 0x100012970, symSize: 0x40 }
  - { offsetInCU: 0x73CFC, offset: 0x73CFC, size: 0x8, addend: 0x0, symName: __ZNSt3__113unordered_mapIcNS_10unique_ptrIN6spdlog21custom_flag_formatterENS_14default_deleteIS3_EEEENS_4hashIcEENS_8equal_toIcEENS_9allocatorINS_4pairIKcS6_EEEEE3endB7v160006Ev, symObjAddr: 0x104F0, symBinAddr: 0x1000129E0, symSize: 0x30 }
  - { offsetInCU: 0x73D22, offset: 0x73D22, size: 0x8, addend: 0x0, symName: __ZNKSt3__119__hash_map_iteratorINS_15__hash_iteratorIPNS_11__hash_nodeINS_17__hash_value_typeIcNS_10unique_ptrIN6spdlog21custom_flag_formatterENS_14default_deleteIS6_EEEEEEPvEEEEEptB7v160006Ev, symObjAddr: 0x10520, symBinAddr: 0x100012A10, symSize: 0x30 }
  - { offsetInCU: 0x73D48, offset: 0x73D48, size: 0x8, addend: 0x0, symName: __ZN6spdlog21custom_flag_formatter16set_padding_infoERKNS_7details12padding_infoE, symObjAddr: 0x10550, symBinAddr: 0x100012A40, symSize: 0x30 }
  - { offsetInCU: 0x73D7C, offset: 0x73D7C, size: 0x8, addend: 0x0, symName: __ZNSt3__110unique_ptrIN6spdlog7details14flag_formatterENS_14default_deleteIS3_EEEC1B7v160006INS1_21custom_flag_formatterENS4_IS8_EEvvEEONS0_IT_T0_EE, symObjAddr: 0x10580, symBinAddr: 0x100012A70, symSize: 0x30 }
  - { offsetInCU: 0x73DC8, offset: 0x73DC8, size: 0x8, addend: 0x0, symName: __ZNSt3__110unique_ptrIN6spdlog7details14flag_formatterENS_14default_deleteIS3_EEEC1B7v160006INS2_14name_formatterINS2_13scoped_padderEEENS4_ISA_EEvvEEONS0_IT_T0_EE, symObjAddr: 0x106D0, symBinAddr: 0x100012BC0, symSize: 0x30 }
  - { offsetInCU: 0x73E14, offset: 0x73E14, size: 0x8, addend: 0x0, symName: __ZNSt3__110unique_ptrIN6spdlog7details14name_formatterINS2_13scoped_padderEEENS_14default_deleteIS5_EEED1B7v160006Ev, symObjAddr: 0x10700, symBinAddr: 0x100012BF0, symSize: 0x20 }
  - { offsetInCU: 0x73E3E, offset: 0x73E3E, size: 0x8, addend: 0x0, symName: __ZNSt3__110unique_ptrIN6spdlog7details14flag_formatterENS_14default_deleteIS3_EEEC1B7v160006INS2_15level_formatterINS2_13scoped_padderEEENS4_ISA_EEvvEEONS0_IT_T0_EE, symObjAddr: 0x107B0, symBinAddr: 0x100012CA0, symSize: 0x30 }
  - { offsetInCU: 0x73E8A, offset: 0x73E8A, size: 0x8, addend: 0x0, symName: __ZNSt3__110unique_ptrIN6spdlog7details15level_formatterINS2_13scoped_padderEEENS_14default_deleteIS5_EEED1B7v160006Ev, symObjAddr: 0x107E0, symBinAddr: 0x100012CD0, symSize: 0x20 }
  - { offsetInCU: 0x73EB4, offset: 0x73EB4, size: 0x8, addend: 0x0, symName: __ZNSt3__110unique_ptrIN6spdlog7details14flag_formatterENS_14default_deleteIS3_EEEC1B7v160006INS2_21short_level_formatterINS2_13scoped_padderEEENS4_ISA_EEvvEEONS0_IT_T0_EE, symObjAddr: 0x10890, symBinAddr: 0x100012D80, symSize: 0x30 }
  - { offsetInCU: 0x73F00, offset: 0x73F00, size: 0x8, addend: 0x0, symName: __ZNSt3__110unique_ptrIN6spdlog7details21short_level_formatterINS2_13scoped_padderEEENS_14default_deleteIS5_EEED1B7v160006Ev, symObjAddr: 0x108C0, symBinAddr: 0x100012DB0, symSize: 0x20 }
  - { offsetInCU: 0x73F2A, offset: 0x73F2A, size: 0x8, addend: 0x0, symName: __ZNSt3__110unique_ptrIN6spdlog7details14flag_formatterENS_14default_deleteIS3_EEEC1B7v160006INS2_11t_formatterINS2_13scoped_padderEEENS4_ISA_EEvvEEONS0_IT_T0_EE, symObjAddr: 0x10970, symBinAddr: 0x100012E60, symSize: 0x30 }
  - { offsetInCU: 0x73F76, offset: 0x73F76, size: 0x8, addend: 0x0, symName: __ZNSt3__110unique_ptrIN6spdlog7details11t_formatterINS2_13scoped_padderEEENS_14default_deleteIS5_EEED1B7v160006Ev, symObjAddr: 0x109A0, symBinAddr: 0x100012E90, symSize: 0x20 }
  - { offsetInCU: 0x73FA0, offset: 0x73FA0, size: 0x8, addend: 0x0, symName: __ZNSt3__110unique_ptrIN6spdlog7details14flag_formatterENS_14default_deleteIS3_EEEC1B7v160006INS2_11v_formatterINS2_13scoped_padderEEENS4_ISA_EEvvEEONS0_IT_T0_EE, symObjAddr: 0x10A50, symBinAddr: 0x100012F40, symSize: 0x30 }
  - { offsetInCU: 0x73FEC, offset: 0x73FEC, size: 0x8, addend: 0x0, symName: __ZNSt3__110unique_ptrIN6spdlog7details11v_formatterINS2_13scoped_padderEEENS_14default_deleteIS5_EEED1B7v160006Ev, symObjAddr: 0x10A80, symBinAddr: 0x100012F70, symSize: 0x20 }
  - { offsetInCU: 0x74016, offset: 0x74016, size: 0x8, addend: 0x0, symName: __ZNSt3__110unique_ptrIN6spdlog7details14flag_formatterENS_14default_deleteIS3_EEEC1B7v160006INS2_11a_formatterINS2_13scoped_padderEEENS4_ISA_EEvvEEONS0_IT_T0_EE, symObjAddr: 0x10B30, symBinAddr: 0x100013020, symSize: 0x30 }
  - { offsetInCU: 0x74062, offset: 0x74062, size: 0x8, addend: 0x0, symName: __ZNSt3__110unique_ptrIN6spdlog7details11a_formatterINS2_13scoped_padderEEENS_14default_deleteIS5_EEED1B7v160006Ev, symObjAddr: 0x10B60, symBinAddr: 0x100013050, symSize: 0x20 }
  - { offsetInCU: 0x7408C, offset: 0x7408C, size: 0x8, addend: 0x0, symName: __ZNSt3__110unique_ptrIN6spdlog7details14flag_formatterENS_14default_deleteIS3_EEEC1B7v160006INS2_11A_formatterINS2_13scoped_padderEEENS4_ISA_EEvvEEONS0_IT_T0_EE, symObjAddr: 0x10C10, symBinAddr: 0x100013100, symSize: 0x30 }
  - { offsetInCU: 0x740D8, offset: 0x740D8, size: 0x8, addend: 0x0, symName: __ZNSt3__110unique_ptrIN6spdlog7details11A_formatterINS2_13scoped_padderEEENS_14default_deleteIS5_EEED1B7v160006Ev, symObjAddr: 0x10C40, symBinAddr: 0x100013130, symSize: 0x20 }
  - { offsetInCU: 0x74102, offset: 0x74102, size: 0x8, addend: 0x0, symName: __ZNSt3__110unique_ptrIN6spdlog7details14flag_formatterENS_14default_deleteIS3_EEEC1B7v160006INS2_11b_formatterINS2_13scoped_padderEEENS4_ISA_EEvvEEONS0_IT_T0_EE, symObjAddr: 0x10CF0, symBinAddr: 0x1000131E0, symSize: 0x30 }
  - { offsetInCU: 0x7414E, offset: 0x7414E, size: 0x8, addend: 0x0, symName: __ZNSt3__110unique_ptrIN6spdlog7details11b_formatterINS2_13scoped_padderEEENS_14default_deleteIS5_EEED1B7v160006Ev, symObjAddr: 0x10D20, symBinAddr: 0x100013210, symSize: 0x20 }
  - { offsetInCU: 0x74178, offset: 0x74178, size: 0x8, addend: 0x0, symName: __ZNSt3__110unique_ptrIN6spdlog7details14flag_formatterENS_14default_deleteIS3_EEEC1B7v160006INS2_11B_formatterINS2_13scoped_padderEEENS4_ISA_EEvvEEONS0_IT_T0_EE, symObjAddr: 0x10DD0, symBinAddr: 0x1000132C0, symSize: 0x30 }
  - { offsetInCU: 0x741C4, offset: 0x741C4, size: 0x8, addend: 0x0, symName: __ZNSt3__110unique_ptrIN6spdlog7details11B_formatterINS2_13scoped_padderEEENS_14default_deleteIS5_EEED1B7v160006Ev, symObjAddr: 0x10E00, symBinAddr: 0x1000132F0, symSize: 0x20 }
  - { offsetInCU: 0x741EE, offset: 0x741EE, size: 0x8, addend: 0x0, symName: __ZNSt3__110unique_ptrIN6spdlog7details14flag_formatterENS_14default_deleteIS3_EEEC1B7v160006INS2_11c_formatterINS2_13scoped_padderEEENS4_ISA_EEvvEEONS0_IT_T0_EE, symObjAddr: 0x10EB0, symBinAddr: 0x1000133A0, symSize: 0x30 }
  - { offsetInCU: 0x7423A, offset: 0x7423A, size: 0x8, addend: 0x0, symName: __ZNSt3__110unique_ptrIN6spdlog7details11c_formatterINS2_13scoped_padderEEENS_14default_deleteIS5_EEED1B7v160006Ev, symObjAddr: 0x10EE0, symBinAddr: 0x1000133D0, symSize: 0x20 }
  - { offsetInCU: 0x74264, offset: 0x74264, size: 0x8, addend: 0x0, symName: __ZNSt3__110unique_ptrIN6spdlog7details14flag_formatterENS_14default_deleteIS3_EEEC1B7v160006INS2_11C_formatterINS2_13scoped_padderEEENS4_ISA_EEvvEEONS0_IT_T0_EE, symObjAddr: 0x10F90, symBinAddr: 0x100013480, symSize: 0x30 }
  - { offsetInCU: 0x742B0, offset: 0x742B0, size: 0x8, addend: 0x0, symName: __ZNSt3__110unique_ptrIN6spdlog7details11C_formatterINS2_13scoped_padderEEENS_14default_deleteIS5_EEED1B7v160006Ev, symObjAddr: 0x10FC0, symBinAddr: 0x1000134B0, symSize: 0x20 }
  - { offsetInCU: 0x742DA, offset: 0x742DA, size: 0x8, addend: 0x0, symName: __ZNSt3__110unique_ptrIN6spdlog7details14flag_formatterENS_14default_deleteIS3_EEEC1B7v160006INS2_11Y_formatterINS2_13scoped_padderEEENS4_ISA_EEvvEEONS0_IT_T0_EE, symObjAddr: 0x11070, symBinAddr: 0x100013560, symSize: 0x30 }
  - { offsetInCU: 0x74326, offset: 0x74326, size: 0x8, addend: 0x0, symName: __ZNSt3__110unique_ptrIN6spdlog7details11Y_formatterINS2_13scoped_padderEEENS_14default_deleteIS5_EEED1B7v160006Ev, symObjAddr: 0x110A0, symBinAddr: 0x100013590, symSize: 0x20 }
  - { offsetInCU: 0x74350, offset: 0x74350, size: 0x8, addend: 0x0, symName: __ZNSt3__110unique_ptrIN6spdlog7details14flag_formatterENS_14default_deleteIS3_EEEC1B7v160006INS2_11D_formatterINS2_13scoped_padderEEENS4_ISA_EEvvEEONS0_IT_T0_EE, symObjAddr: 0x11150, symBinAddr: 0x100013640, symSize: 0x30 }
  - { offsetInCU: 0x7439C, offset: 0x7439C, size: 0x8, addend: 0x0, symName: __ZNSt3__110unique_ptrIN6spdlog7details11D_formatterINS2_13scoped_padderEEENS_14default_deleteIS5_EEED1B7v160006Ev, symObjAddr: 0x11180, symBinAddr: 0x100013670, symSize: 0x20 }
  - { offsetInCU: 0x743C6, offset: 0x743C6, size: 0x8, addend: 0x0, symName: __ZNSt3__110unique_ptrIN6spdlog7details14flag_formatterENS_14default_deleteIS3_EEEC1B7v160006INS2_11m_formatterINS2_13scoped_padderEEENS4_ISA_EEvvEEONS0_IT_T0_EE, symObjAddr: 0x11230, symBinAddr: 0x100013720, symSize: 0x30 }
  - { offsetInCU: 0x74412, offset: 0x74412, size: 0x8, addend: 0x0, symName: __ZNSt3__110unique_ptrIN6spdlog7details11m_formatterINS2_13scoped_padderEEENS_14default_deleteIS5_EEED1B7v160006Ev, symObjAddr: 0x11260, symBinAddr: 0x100013750, symSize: 0x20 }
  - { offsetInCU: 0x7443C, offset: 0x7443C, size: 0x8, addend: 0x0, symName: __ZNSt3__110unique_ptrIN6spdlog7details14flag_formatterENS_14default_deleteIS3_EEEC1B7v160006INS2_11d_formatterINS2_13scoped_padderEEENS4_ISA_EEvvEEONS0_IT_T0_EE, symObjAddr: 0x11310, symBinAddr: 0x100013800, symSize: 0x30 }
  - { offsetInCU: 0x74488, offset: 0x74488, size: 0x8, addend: 0x0, symName: __ZNSt3__110unique_ptrIN6spdlog7details11d_formatterINS2_13scoped_padderEEENS_14default_deleteIS5_EEED1B7v160006Ev, symObjAddr: 0x11340, symBinAddr: 0x100013830, symSize: 0x20 }
  - { offsetInCU: 0x744B2, offset: 0x744B2, size: 0x8, addend: 0x0, symName: __ZNSt3__110unique_ptrIN6spdlog7details14flag_formatterENS_14default_deleteIS3_EEEC1B7v160006INS2_11H_formatterINS2_13scoped_padderEEENS4_ISA_EEvvEEONS0_IT_T0_EE, symObjAddr: 0x113F0, symBinAddr: 0x1000138E0, symSize: 0x30 }
  - { offsetInCU: 0x744FE, offset: 0x744FE, size: 0x8, addend: 0x0, symName: __ZNSt3__110unique_ptrIN6spdlog7details11H_formatterINS2_13scoped_padderEEENS_14default_deleteIS5_EEED1B7v160006Ev, symObjAddr: 0x11420, symBinAddr: 0x100013910, symSize: 0x20 }
  - { offsetInCU: 0x74528, offset: 0x74528, size: 0x8, addend: 0x0, symName: __ZNSt3__110unique_ptrIN6spdlog7details14flag_formatterENS_14default_deleteIS3_EEEC1B7v160006INS2_11I_formatterINS2_13scoped_padderEEENS4_ISA_EEvvEEONS0_IT_T0_EE, symObjAddr: 0x114D0, symBinAddr: 0x1000139C0, symSize: 0x30 }
  - { offsetInCU: 0x74574, offset: 0x74574, size: 0x8, addend: 0x0, symName: __ZNSt3__110unique_ptrIN6spdlog7details11I_formatterINS2_13scoped_padderEEENS_14default_deleteIS5_EEED1B7v160006Ev, symObjAddr: 0x11500, symBinAddr: 0x1000139F0, symSize: 0x20 }
  - { offsetInCU: 0x7459E, offset: 0x7459E, size: 0x8, addend: 0x0, symName: __ZNSt3__110unique_ptrIN6spdlog7details14flag_formatterENS_14default_deleteIS3_EEEC1B7v160006INS2_11M_formatterINS2_13scoped_padderEEENS4_ISA_EEvvEEONS0_IT_T0_EE, symObjAddr: 0x115B0, symBinAddr: 0x100013AA0, symSize: 0x30 }
  - { offsetInCU: 0x745EA, offset: 0x745EA, size: 0x8, addend: 0x0, symName: __ZNSt3__110unique_ptrIN6spdlog7details11M_formatterINS2_13scoped_padderEEENS_14default_deleteIS5_EEED1B7v160006Ev, symObjAddr: 0x115E0, symBinAddr: 0x100013AD0, symSize: 0x20 }
  - { offsetInCU: 0x74614, offset: 0x74614, size: 0x8, addend: 0x0, symName: __ZNSt3__110unique_ptrIN6spdlog7details14flag_formatterENS_14default_deleteIS3_EEEC1B7v160006INS2_11S_formatterINS2_13scoped_padderEEENS4_ISA_EEvvEEONS0_IT_T0_EE, symObjAddr: 0x11690, symBinAddr: 0x100013B80, symSize: 0x30 }
  - { offsetInCU: 0x74660, offset: 0x74660, size: 0x8, addend: 0x0, symName: __ZNSt3__110unique_ptrIN6spdlog7details11S_formatterINS2_13scoped_padderEEENS_14default_deleteIS5_EEED1B7v160006Ev, symObjAddr: 0x116C0, symBinAddr: 0x100013BB0, symSize: 0x20 }
  - { offsetInCU: 0x7468A, offset: 0x7468A, size: 0x8, addend: 0x0, symName: __ZNSt3__110unique_ptrIN6spdlog7details14flag_formatterENS_14default_deleteIS3_EEEC1B7v160006INS2_11e_formatterINS2_13scoped_padderEEENS4_ISA_EEvvEEONS0_IT_T0_EE, symObjAddr: 0x11770, symBinAddr: 0x100013C60, symSize: 0x30 }
  - { offsetInCU: 0x746D6, offset: 0x746D6, size: 0x8, addend: 0x0, symName: __ZNSt3__110unique_ptrIN6spdlog7details11e_formatterINS2_13scoped_padderEEENS_14default_deleteIS5_EEED1B7v160006Ev, symObjAddr: 0x117A0, symBinAddr: 0x100013C90, symSize: 0x20 }
  - { offsetInCU: 0x74700, offset: 0x74700, size: 0x8, addend: 0x0, symName: __ZNSt3__110unique_ptrIN6spdlog7details14flag_formatterENS_14default_deleteIS3_EEEC1B7v160006INS2_11f_formatterINS2_13scoped_padderEEENS4_ISA_EEvvEEONS0_IT_T0_EE, symObjAddr: 0x11850, symBinAddr: 0x100013D40, symSize: 0x30 }
  - { offsetInCU: 0x7474C, offset: 0x7474C, size: 0x8, addend: 0x0, symName: __ZNSt3__110unique_ptrIN6spdlog7details11f_formatterINS2_13scoped_padderEEENS_14default_deleteIS5_EEED1B7v160006Ev, symObjAddr: 0x11880, symBinAddr: 0x100013D70, symSize: 0x20 }
  - { offsetInCU: 0x74776, offset: 0x74776, size: 0x8, addend: 0x0, symName: __ZNSt3__110unique_ptrIN6spdlog7details14flag_formatterENS_14default_deleteIS3_EEEC1B7v160006INS2_11F_formatterINS2_13scoped_padderEEENS4_ISA_EEvvEEONS0_IT_T0_EE, symObjAddr: 0x11930, symBinAddr: 0x100013E20, symSize: 0x30 }
  - { offsetInCU: 0x747C2, offset: 0x747C2, size: 0x8, addend: 0x0, symName: __ZNSt3__110unique_ptrIN6spdlog7details11F_formatterINS2_13scoped_padderEEENS_14default_deleteIS5_EEED1B7v160006Ev, symObjAddr: 0x11960, symBinAddr: 0x100013E50, symSize: 0x20 }
  - { offsetInCU: 0x747EC, offset: 0x747EC, size: 0x8, addend: 0x0, symName: __ZNSt3__110unique_ptrIN6spdlog7details14flag_formatterENS_14default_deleteIS3_EEEC1B7v160006INS2_11E_formatterINS2_13scoped_padderEEENS4_ISA_EEvvEEONS0_IT_T0_EE, symObjAddr: 0x11A10, symBinAddr: 0x100013F00, symSize: 0x30 }
  - { offsetInCU: 0x74838, offset: 0x74838, size: 0x8, addend: 0x0, symName: __ZNSt3__110unique_ptrIN6spdlog7details11E_formatterINS2_13scoped_padderEEENS_14default_deleteIS5_EEED1B7v160006Ev, symObjAddr: 0x11A40, symBinAddr: 0x100013F30, symSize: 0x20 }
  - { offsetInCU: 0x74862, offset: 0x74862, size: 0x8, addend: 0x0, symName: __ZNSt3__110unique_ptrIN6spdlog7details14flag_formatterENS_14default_deleteIS3_EEEC1B7v160006INS2_11p_formatterINS2_13scoped_padderEEENS4_ISA_EEvvEEONS0_IT_T0_EE, symObjAddr: 0x11AF0, symBinAddr: 0x100013FE0, symSize: 0x30 }
  - { offsetInCU: 0x748AE, offset: 0x748AE, size: 0x8, addend: 0x0, symName: __ZNSt3__110unique_ptrIN6spdlog7details11p_formatterINS2_13scoped_padderEEENS_14default_deleteIS5_EEED1B7v160006Ev, symObjAddr: 0x11B20, symBinAddr: 0x100014010, symSize: 0x20 }
  - { offsetInCU: 0x748D8, offset: 0x748D8, size: 0x8, addend: 0x0, symName: __ZNSt3__110unique_ptrIN6spdlog7details14flag_formatterENS_14default_deleteIS3_EEEC1B7v160006INS2_11r_formatterINS2_13scoped_padderEEENS4_ISA_EEvvEEONS0_IT_T0_EE, symObjAddr: 0x11BD0, symBinAddr: 0x1000140C0, symSize: 0x30 }
  - { offsetInCU: 0x74924, offset: 0x74924, size: 0x8, addend: 0x0, symName: __ZNSt3__110unique_ptrIN6spdlog7details11r_formatterINS2_13scoped_padderEEENS_14default_deleteIS5_EEED1B7v160006Ev, symObjAddr: 0x11C00, symBinAddr: 0x1000140F0, symSize: 0x20 }
  - { offsetInCU: 0x7494E, offset: 0x7494E, size: 0x8, addend: 0x0, symName: __ZNSt3__110unique_ptrIN6spdlog7details14flag_formatterENS_14default_deleteIS3_EEEC1B7v160006INS2_11R_formatterINS2_13scoped_padderEEENS4_ISA_EEvvEEONS0_IT_T0_EE, symObjAddr: 0x11CB0, symBinAddr: 0x1000141A0, symSize: 0x30 }
  - { offsetInCU: 0x7499A, offset: 0x7499A, size: 0x8, addend: 0x0, symName: __ZNSt3__110unique_ptrIN6spdlog7details11R_formatterINS2_13scoped_padderEEENS_14default_deleteIS5_EEED1B7v160006Ev, symObjAddr: 0x11CE0, symBinAddr: 0x1000141D0, symSize: 0x20 }
  - { offsetInCU: 0x749C4, offset: 0x749C4, size: 0x8, addend: 0x0, symName: __ZNSt3__110unique_ptrIN6spdlog7details14flag_formatterENS_14default_deleteIS3_EEEC1B7v160006INS2_11T_formatterINS2_13scoped_padderEEENS4_ISA_EEvvEEONS0_IT_T0_EE, symObjAddr: 0x11D90, symBinAddr: 0x100014280, symSize: 0x30 }
  - { offsetInCU: 0x74A10, offset: 0x74A10, size: 0x8, addend: 0x0, symName: __ZNSt3__110unique_ptrIN6spdlog7details11T_formatterINS2_13scoped_padderEEENS_14default_deleteIS5_EEED1B7v160006Ev, symObjAddr: 0x11DC0, symBinAddr: 0x1000142B0, symSize: 0x20 }
  - { offsetInCU: 0x74A3A, offset: 0x74A3A, size: 0x8, addend: 0x0, symName: __ZNSt3__110unique_ptrIN6spdlog7details14flag_formatterENS_14default_deleteIS3_EEEC1B7v160006INS2_11z_formatterINS2_13scoped_padderEEENS4_ISA_EEvvEEONS0_IT_T0_EE, symObjAddr: 0x11E70, symBinAddr: 0x100014360, symSize: 0x30 }
  - { offsetInCU: 0x74A86, offset: 0x74A86, size: 0x8, addend: 0x0, symName: __ZNSt3__110unique_ptrIN6spdlog7details11z_formatterINS2_13scoped_padderEEENS_14default_deleteIS5_EEED1B7v160006Ev, symObjAddr: 0x11EA0, symBinAddr: 0x100014390, symSize: 0x20 }
  - { offsetInCU: 0x74AB0, offset: 0x74AB0, size: 0x8, addend: 0x0, symName: __ZNSt3__110unique_ptrIN6spdlog7details14flag_formatterENS_14default_deleteIS3_EEEC1B7v160006INS2_13pid_formatterINS2_13scoped_padderEEENS4_ISA_EEvvEEONS0_IT_T0_EE, symObjAddr: 0x11F50, symBinAddr: 0x100014440, symSize: 0x30 }
  - { offsetInCU: 0x74AFC, offset: 0x74AFC, size: 0x8, addend: 0x0, symName: __ZNSt3__110unique_ptrIN6spdlog7details13pid_formatterINS2_13scoped_padderEEENS_14default_deleteIS5_EEED1B7v160006Ev, symObjAddr: 0x11F80, symBinAddr: 0x100014470, symSize: 0x20 }
  - { offsetInCU: 0x74B26, offset: 0x74B26, size: 0x8, addend: 0x0, symName: __ZNSt3__110unique_ptrIN6spdlog7details14flag_formatterENS_14default_deleteIS3_EEEC1B7v160006INS2_21color_start_formatterENS4_IS8_EEvvEEONS0_IT_T0_EE, symObjAddr: 0x12030, symBinAddr: 0x100014520, symSize: 0x30 }
  - { offsetInCU: 0x74B72, offset: 0x74B72, size: 0x8, addend: 0x0, symName: __ZNSt3__110unique_ptrIN6spdlog7details21color_start_formatterENS_14default_deleteIS3_EEED1B7v160006Ev, symObjAddr: 0x12060, symBinAddr: 0x100014550, symSize: 0x20 }
  - { offsetInCU: 0x74B9C, offset: 0x74B9C, size: 0x8, addend: 0x0, symName: __ZNSt3__110unique_ptrIN6spdlog7details14flag_formatterENS_14default_deleteIS3_EEEC1B7v160006INS2_20color_stop_formatterENS4_IS8_EEvvEEONS0_IT_T0_EE, symObjAddr: 0x12110, symBinAddr: 0x100014600, symSize: 0x30 }
  - { offsetInCU: 0x74BE8, offset: 0x74BE8, size: 0x8, addend: 0x0, symName: __ZNSt3__110unique_ptrIN6spdlog7details20color_stop_formatterENS_14default_deleteIS3_EEED1B7v160006Ev, symObjAddr: 0x12140, symBinAddr: 0x100014630, symSize: 0x20 }
  - { offsetInCU: 0x74C12, offset: 0x74C12, size: 0x8, addend: 0x0, symName: __ZNSt3__110unique_ptrIN6spdlog7details14flag_formatterENS_14default_deleteIS3_EEEC1B7v160006INS2_25source_location_formatterINS2_13scoped_padderEEENS4_ISA_EEvvEEONS0_IT_T0_EE, symObjAddr: 0x121F0, symBinAddr: 0x1000146E0, symSize: 0x30 }
  - { offsetInCU: 0x74C5E, offset: 0x74C5E, size: 0x8, addend: 0x0, symName: __ZNSt3__110unique_ptrIN6spdlog7details25source_location_formatterINS2_13scoped_padderEEENS_14default_deleteIS5_EEED1B7v160006Ev, symObjAddr: 0x12220, symBinAddr: 0x100014710, symSize: 0x20 }
  - { offsetInCU: 0x74C88, offset: 0x74C88, size: 0x8, addend: 0x0, symName: __ZNSt3__110unique_ptrIN6spdlog7details14flag_formatterENS_14default_deleteIS3_EEEC1B7v160006INS2_24short_filename_formatterINS2_13scoped_padderEEENS4_ISA_EEvvEEONS0_IT_T0_EE, symObjAddr: 0x122D0, symBinAddr: 0x1000147C0, symSize: 0x30 }
  - { offsetInCU: 0x74CD4, offset: 0x74CD4, size: 0x8, addend: 0x0, symName: __ZNSt3__110unique_ptrIN6spdlog7details24short_filename_formatterINS2_13scoped_padderEEENS_14default_deleteIS5_EEED1B7v160006Ev, symObjAddr: 0x12300, symBinAddr: 0x1000147F0, symSize: 0x20 }
  - { offsetInCU: 0x74CFE, offset: 0x74CFE, size: 0x8, addend: 0x0, symName: __ZNSt3__110unique_ptrIN6spdlog7details14flag_formatterENS_14default_deleteIS3_EEEC1B7v160006INS2_25source_filename_formatterINS2_13scoped_padderEEENS4_ISA_EEvvEEONS0_IT_T0_EE, symObjAddr: 0x123B0, symBinAddr: 0x1000148A0, symSize: 0x30 }
  - { offsetInCU: 0x74D4A, offset: 0x74D4A, size: 0x8, addend: 0x0, symName: __ZNSt3__110unique_ptrIN6spdlog7details25source_filename_formatterINS2_13scoped_padderEEENS_14default_deleteIS5_EEED1B7v160006Ev, symObjAddr: 0x123E0, symBinAddr: 0x1000148D0, symSize: 0x20 }
  - { offsetInCU: 0x74D74, offset: 0x74D74, size: 0x8, addend: 0x0, symName: __ZNSt3__110unique_ptrIN6spdlog7details14flag_formatterENS_14default_deleteIS3_EEEC1B7v160006INS2_24source_linenum_formatterINS2_13scoped_padderEEENS4_ISA_EEvvEEONS0_IT_T0_EE, symObjAddr: 0x12490, symBinAddr: 0x100014980, symSize: 0x30 }
  - { offsetInCU: 0x74DC0, offset: 0x74DC0, size: 0x8, addend: 0x0, symName: __ZNSt3__110unique_ptrIN6spdlog7details24source_linenum_formatterINS2_13scoped_padderEEENS_14default_deleteIS5_EEED1B7v160006Ev, symObjAddr: 0x124C0, symBinAddr: 0x1000149B0, symSize: 0x20 }
  - { offsetInCU: 0x74DEA, offset: 0x74DEA, size: 0x8, addend: 0x0, symName: __ZNSt3__110unique_ptrIN6spdlog7details14flag_formatterENS_14default_deleteIS3_EEEC1B7v160006INS2_25source_funcname_formatterINS2_13scoped_padderEEENS4_ISA_EEvvEEONS0_IT_T0_EE, symObjAddr: 0x12570, symBinAddr: 0x100014A60, symSize: 0x30 }
  - { offsetInCU: 0x74E36, offset: 0x74E36, size: 0x8, addend: 0x0, symName: __ZNSt3__110unique_ptrIN6spdlog7details25source_funcname_formatterINS2_13scoped_padderEEENS_14default_deleteIS5_EEED1B7v160006Ev, symObjAddr: 0x125A0, symBinAddr: 0x100014A90, symSize: 0x20 }
  - { offsetInCU: 0x74E60, offset: 0x74E60, size: 0x8, addend: 0x0, symName: __ZNSt3__110unique_ptrIN6spdlog7details14flag_formatterENS_14default_deleteIS3_EEEC1B7v160006INS2_12ch_formatterENS4_IS8_EEvvEEONS0_IT_T0_EE, symObjAddr: 0x12640, symBinAddr: 0x100014B30, symSize: 0x30 }
  - { offsetInCU: 0x74EAC, offset: 0x74EAC, size: 0x8, addend: 0x0, symName: __ZNSt3__110unique_ptrIN6spdlog7details12ch_formatterENS_14default_deleteIS3_EEED1B7v160006Ev, symObjAddr: 0x12670, symBinAddr: 0x100014B60, symSize: 0x20 }
  - { offsetInCU: 0x74ED6, offset: 0x74ED6, size: 0x8, addend: 0x0, symName: __ZNSt3__110unique_ptrIN6spdlog7details14flag_formatterENS_14default_deleteIS3_EEEC1B7v160006INS2_17elapsed_formatterINS2_13scoped_padderENS_6chrono8durationIxNS_5ratioILl1ELl1000000000EEEEEEENS4_ISF_EEvvEEONS0_IT_T0_EE, symObjAddr: 0x12720, symBinAddr: 0x100014C10, symSize: 0x30 }
  - { offsetInCU: 0x74F22, offset: 0x74F22, size: 0x8, addend: 0x0, symName: __ZNSt3__110unique_ptrIN6spdlog7details17elapsed_formatterINS2_13scoped_padderENS_6chrono8durationIxNS_5ratioILl1ELl1000000000EEEEEEENS_14default_deleteISA_EEED1B7v160006Ev, symObjAddr: 0x12750, symBinAddr: 0x100014C40, symSize: 0x20 }
  - { offsetInCU: 0x74F4C, offset: 0x74F4C, size: 0x8, addend: 0x0, symName: __ZNSt3__110unique_ptrIN6spdlog7details14flag_formatterENS_14default_deleteIS3_EEEC1B7v160006INS2_17elapsed_formatterINS2_13scoped_padderENS_6chrono8durationIxNS_5ratioILl1ELl1000000EEEEEEENS4_ISF_EEvvEEONS0_IT_T0_EE, symObjAddr: 0x12800, symBinAddr: 0x100014CF0, symSize: 0x30 }
  - { offsetInCU: 0x74F98, offset: 0x74F98, size: 0x8, addend: 0x0, symName: __ZNSt3__110unique_ptrIN6spdlog7details17elapsed_formatterINS2_13scoped_padderENS_6chrono8durationIxNS_5ratioILl1ELl1000000EEEEEEENS_14default_deleteISA_EEED1B7v160006Ev, symObjAddr: 0x12830, symBinAddr: 0x100014D20, symSize: 0x20 }
  - { offsetInCU: 0x74FC2, offset: 0x74FC2, size: 0x8, addend: 0x0, symName: __ZNSt3__110unique_ptrIN6spdlog7details14flag_formatterENS_14default_deleteIS3_EEEC1B7v160006INS2_17elapsed_formatterINS2_13scoped_padderENS_6chrono8durationIxNS_5ratioILl1ELl1000EEEEEEENS4_ISF_EEvvEEONS0_IT_T0_EE, symObjAddr: 0x128E0, symBinAddr: 0x100014DD0, symSize: 0x30 }
  - { offsetInCU: 0x7500E, offset: 0x7500E, size: 0x8, addend: 0x0, symName: __ZNSt3__110unique_ptrIN6spdlog7details17elapsed_formatterINS2_13scoped_padderENS_6chrono8durationIxNS_5ratioILl1ELl1000EEEEEEENS_14default_deleteISA_EEED1B7v160006Ev, symObjAddr: 0x12910, symBinAddr: 0x100014E00, symSize: 0x20 }
  - { offsetInCU: 0x75038, offset: 0x75038, size: 0x8, addend: 0x0, symName: __ZNSt3__110unique_ptrIN6spdlog7details14flag_formatterENS_14default_deleteIS3_EEEC1B7v160006INS2_17elapsed_formatterINS2_13scoped_padderENS_6chrono8durationIxNS_5ratioILl1ELl1EEEEEEENS4_ISF_EEvvEEONS0_IT_T0_EE, symObjAddr: 0x129C0, symBinAddr: 0x100014EB0, symSize: 0x30 }
  - { offsetInCU: 0x75084, offset: 0x75084, size: 0x8, addend: 0x0, symName: __ZNSt3__110unique_ptrIN6spdlog7details17elapsed_formatterINS2_13scoped_padderENS_6chrono8durationIxNS_5ratioILl1ELl1EEEEEEENS_14default_deleteISA_EEED1B7v160006Ev, symObjAddr: 0x129F0, symBinAddr: 0x100014EE0, symSize: 0x20 }
  - { offsetInCU: 0x750AE, offset: 0x750AE, size: 0x8, addend: 0x0, symName: __ZNSt3__110unique_ptrIN6spdlog7details14flag_formatterENS_14default_deleteIS3_EEEC1B7v160006INS2_13mdc_formatterINS2_13scoped_padderEEENS4_ISA_EEvvEEONS0_IT_T0_EE, symObjAddr: 0x12AA0, symBinAddr: 0x100014F90, symSize: 0x30 }
  - { offsetInCU: 0x750FA, offset: 0x750FA, size: 0x8, addend: 0x0, symName: __ZNSt3__110unique_ptrIN6spdlog7details13mdc_formatterINS2_13scoped_padderEEENS_14default_deleteIS5_EEED1B7v160006Ev, symObjAddr: 0x12AD0, symBinAddr: 0x100014FC0, symSize: 0x20 }
  - { offsetInCU: 0x75124, offset: 0x75124, size: 0x8, addend: 0x0, symName: __ZNSt3__112__hash_tableINS_17__hash_value_typeIcNS_10unique_ptrIN6spdlog21custom_flag_formatterENS_14default_deleteIS4_EEEEEENS_22__unordered_map_hasherIcS8_NS_4hashIcEENS_8equal_toIcEELb1EEENS_21__unordered_map_equalIcS8_SD_SB_Lb1EEENS_9allocatorIS8_EEE4findIcEENS_15__hash_iteratorIPNS_11__hash_nodeIS8_PvEEEERKT_, symObjAddr: 0x12AF0, symBinAddr: 0x100014FE0, symSize: 0x180 }
  - { offsetInCU: 0x751AE, offset: 0x751AE, size: 0x8, addend: 0x0, symName: __ZNSt3__119__hash_map_iteratorINS_15__hash_iteratorIPNS_11__hash_nodeINS_17__hash_value_typeIcNS_10unique_ptrIN6spdlog21custom_flag_formatterENS_14default_deleteIS6_EEEEEEPvEEEEEC1B7v160006ESE_, symObjAddr: 0x12C70, symBinAddr: 0x100015160, symSize: 0x30 }
  - { offsetInCU: 0x751E7, offset: 0x751E7, size: 0x8, addend: 0x0, symName: __ZNSt3__112__hash_tableINS_17__hash_value_typeIcNS_10unique_ptrIN6spdlog21custom_flag_formatterENS_14default_deleteIS4_EEEEEENS_22__unordered_map_hasherIcS8_NS_4hashIcEENS_8equal_toIcEELb1EEENS_21__unordered_map_equalIcS8_SD_SB_Lb1EEENS_9allocatorIS8_EEE13hash_functionB7v160006Ev, symObjAddr: 0x12CA0, symBinAddr: 0x100015190, symSize: 0x20 }
  - { offsetInCU: 0x7520D, offset: 0x7520D, size: 0x8, addend: 0x0, symName: __ZNKSt3__122__unordered_map_hasherIcNS_17__hash_value_typeIcNS_10unique_ptrIN6spdlog21custom_flag_formatterENS_14default_deleteIS4_EEEEEENS_4hashIcEENS_8equal_toIcEELb1EEclB7v160006ERKc, symObjAddr: 0x12CC0, symBinAddr: 0x1000151B0, symSize: 0x30 }
  - { offsetInCU: 0x75242, offset: 0x75242, size: 0x8, addend: 0x0, symName: __ZNSt3__112__hash_tableINS_17__hash_value_typeIcNS_10unique_ptrIN6spdlog21custom_flag_formatterENS_14default_deleteIS4_EEEEEENS_22__unordered_map_hasherIcS8_NS_4hashIcEENS_8equal_toIcEELb1EEENS_21__unordered_map_equalIcS8_SD_SB_Lb1EEENS_9allocatorIS8_EEE6key_eqB7v160006Ev, symObjAddr: 0x12CF0, symBinAddr: 0x1000151E0, symSize: 0x20 }
  - { offsetInCU: 0x75268, offset: 0x75268, size: 0x8, addend: 0x0, symName: __ZNKSt3__121__unordered_map_equalIcNS_17__hash_value_typeIcNS_10unique_ptrIN6spdlog21custom_flag_formatterENS_14default_deleteIS4_EEEEEENS_8equal_toIcEENS_4hashIcEELb1EEclB7v160006ERKS8_RKc, symObjAddr: 0x12D10, symBinAddr: 0x100015200, symSize: 0x40 }
  - { offsetInCU: 0x752AC, offset: 0x752AC, size: 0x8, addend: 0x0, symName: __ZNSt3__116__hash_node_baseIPNS_11__hash_nodeINS_17__hash_value_typeIcNS_10unique_ptrIN6spdlog21custom_flag_formatterENS_14default_deleteIS5_EEEEEEPvEEE8__upcastB7v160006Ev, symObjAddr: 0x12D50, symBinAddr: 0x100015240, symSize: 0x20 }
  - { offsetInCU: 0x752D2, offset: 0x752D2, size: 0x8, addend: 0x0, symName: __ZNSt3__115__hash_iteratorIPNS_11__hash_nodeINS_17__hash_value_typeIcNS_10unique_ptrIN6spdlog21custom_flag_formatterENS_14default_deleteIS5_EEEEEEPvEEEC1B7v160006EPNS_16__hash_node_baseISC_EEPKv, symObjAddr: 0x12D70, symBinAddr: 0x100015260, symSize: 0x30 }
  - { offsetInCU: 0x7531A, offset: 0x7531A, size: 0x8, addend: 0x0, symName: __ZNSt3__112__hash_tableINS_17__hash_value_typeIcNS_10unique_ptrIN6spdlog21custom_flag_formatterENS_14default_deleteIS4_EEEEEENS_22__unordered_map_hasherIcS8_NS_4hashIcEENS_8equal_toIcEELb1EEENS_21__unordered_map_equalIcS8_SD_SB_Lb1EEENS_9allocatorIS8_EEE3endEv, symObjAddr: 0x12DA0, symBinAddr: 0x100015290, symSize: 0x30 }
  - { offsetInCU: 0x75342, offset: 0x75342, size: 0x8, addend: 0x0, symName: __ZNSt3__117__compressed_pairImNS_22__unordered_map_hasherIcNS_17__hash_value_typeIcNS_10unique_ptrIN6spdlog21custom_flag_formatterENS_14default_deleteIS5_EEEEEENS_4hashIcEENS_8equal_toIcEELb1EEEE6secondB7v160006Ev, symObjAddr: 0x12DD0, symBinAddr: 0x1000152C0, symSize: 0x20 }
  - { offsetInCU: 0x75368, offset: 0x75368, size: 0x8, addend: 0x0, symName: __ZNSt3__122__compressed_pair_elemINS_22__unordered_map_hasherIcNS_17__hash_value_typeIcNS_10unique_ptrIN6spdlog21custom_flag_formatterENS_14default_deleteIS5_EEEEEENS_4hashIcEENS_8equal_toIcEELb1EEELi1ELb1EE5__getB7v160006Ev, symObjAddr: 0x12DF0, symBinAddr: 0x1000152E0, symSize: 0x10 }
  - { offsetInCU: 0x7538E, offset: 0x7538E, size: 0x8, addend: 0x0, symName: __ZNKSt3__14hashIcEclB7v160006Ec, symObjAddr: 0x12E00, symBinAddr: 0x1000152F0, symSize: 0x20 }
  - { offsetInCU: 0x753C3, offset: 0x753C3, size: 0x8, addend: 0x0, symName: __ZNSt3__117__compressed_pairIfNS_21__unordered_map_equalIcNS_17__hash_value_typeIcNS_10unique_ptrIN6spdlog21custom_flag_formatterENS_14default_deleteIS5_EEEEEENS_8equal_toIcEENS_4hashIcEELb1EEEE6secondB7v160006Ev, symObjAddr: 0x12E20, symBinAddr: 0x100015310, symSize: 0x20 }
  - { offsetInCU: 0x753E9, offset: 0x753E9, size: 0x8, addend: 0x0, symName: __ZNSt3__122__compressed_pair_elemINS_21__unordered_map_equalIcNS_17__hash_value_typeIcNS_10unique_ptrIN6spdlog21custom_flag_formatterENS_14default_deleteIS5_EEEEEENS_8equal_toIcEENS_4hashIcEELb1EEELi1ELb1EE5__getB7v160006Ev, symObjAddr: 0x12E40, symBinAddr: 0x100015330, symSize: 0x10 }
  - { offsetInCU: 0x7540F, offset: 0x7540F, size: 0x8, addend: 0x0, symName: __ZNKSt3__18equal_toIcEclB7v160006ERKcS3_, symObjAddr: 0x12E50, symBinAddr: 0x100015340, symSize: 0x30 }
  - { offsetInCU: 0x75453, offset: 0x75453, size: 0x8, addend: 0x0, symName: __ZNKSt3__117__hash_value_typeIcNS_10unique_ptrIN6spdlog21custom_flag_formatterENS_14default_deleteIS3_EEEEE11__get_valueB7v160006Ev, symObjAddr: 0x12E80, symBinAddr: 0x100015370, symSize: 0x10 }
  - { offsetInCU: 0x75479, offset: 0x75479, size: 0x8, addend: 0x0, symName: __ZNSt3__115__hash_iteratorIPNS_11__hash_nodeINS_17__hash_value_typeIcNS_10unique_ptrIN6spdlog21custom_flag_formatterENS_14default_deleteIS5_EEEEEEPvEEEC2B7v160006EPNS_16__hash_node_baseISC_EEPKv, symObjAddr: 0x12E90, symBinAddr: 0x100015380, symSize: 0x20 }
  - { offsetInCU: 0x754C1, offset: 0x754C1, size: 0x8, addend: 0x0, symName: __ZNSt3__119__hash_map_iteratorINS_15__hash_iteratorIPNS_11__hash_nodeINS_17__hash_value_typeIcNS_10unique_ptrIN6spdlog21custom_flag_formatterENS_14default_deleteIS6_EEEEEEPvEEEEEC2B7v160006ESE_, symObjAddr: 0x12EB0, symBinAddr: 0x1000153A0, symSize: 0x20 }
  - { offsetInCU: 0x754FA, offset: 0x754FA, size: 0x8, addend: 0x0, symName: __ZNSt3__114pointer_traitsIPNS_4pairIKcNS_10unique_ptrIN6spdlog21custom_flag_formatterENS_14default_deleteIS5_EEEEEEE10pointer_toB7v160006ERS9_, symObjAddr: 0x12F30, symBinAddr: 0x100015420, symSize: 0x10 }
  - { offsetInCU: 0x7551D, offset: 0x7551D, size: 0x8, addend: 0x0, symName: __ZNKSt3__115__hash_iteratorIPNS_11__hash_nodeINS_17__hash_value_typeIcNS_10unique_ptrIN6spdlog21custom_flag_formatterENS_14default_deleteIS5_EEEEEEPvEEEptB7v160006Ev, symObjAddr: 0x12F40, symBinAddr: 0x100015430, symSize: 0x30 }
  - { offsetInCU: 0x75543, offset: 0x75543, size: 0x8, addend: 0x0, symName: __ZNSt3__117__hash_value_typeIcNS_10unique_ptrIN6spdlog21custom_flag_formatterENS_14default_deleteIS3_EEEEE11__get_valueB7v160006Ev, symObjAddr: 0x12F70, symBinAddr: 0x100015460, symSize: 0x10 }
  - { offsetInCU: 0x75569, offset: 0x75569, size: 0x8, addend: 0x0, symName: __ZNSt3__114pointer_traitsIPNS_17__hash_value_typeIcNS_10unique_ptrIN6spdlog21custom_flag_formatterENS_14default_deleteIS4_EEEEEEE10pointer_toB7v160006ERS8_, symObjAddr: 0x12F80, symBinAddr: 0x100015470, symSize: 0x10 }
  - { offsetInCU: 0x7558C, offset: 0x7558C, size: 0x8, addend: 0x0, symName: __ZNSt3__110unique_ptrIN6spdlog7details14flag_formatterENS_14default_deleteIS3_EEEC2B7v160006INS1_21custom_flag_formatterENS4_IS8_EEvvEEONS0_IT_T0_EE, symObjAddr: 0x12F90, symBinAddr: 0x100015480, symSize: 0x60 }
  - { offsetInCU: 0x755D8, offset: 0x755D8, size: 0x8, addend: 0x0, symName: __ZNSt3__110unique_ptrIN6spdlog21custom_flag_formatterENS_14default_deleteIS2_EEE7releaseB7v160006Ev, symObjAddr: 0x12FF0, symBinAddr: 0x1000154E0, symSize: 0x40 }
  - { offsetInCU: 0x7560D, offset: 0x7560D, size: 0x8, addend: 0x0, symName: __ZNSt3__110unique_ptrIN6spdlog21custom_flag_formatterENS_14default_deleteIS2_EEE11get_deleterB7v160006Ev, symObjAddr: 0x13030, symBinAddr: 0x100015520, symSize: 0x20 }
  - { offsetInCU: 0x7563F, offset: 0x7563F, size: 0x8, addend: 0x0, symName: __ZNSt3__117__compressed_pairIPN6spdlog7details14flag_formatterENS_14default_deleteIS3_EEEC1B7v160006IPNS1_21custom_flag_formatterENS5_IS9_EEEEOT_OT0_, symObjAddr: 0x13050, symBinAddr: 0x100015540, symSize: 0x30 }
  - { offsetInCU: 0x75697, offset: 0x75697, size: 0x8, addend: 0x0, symName: __ZNSt3__117__compressed_pairIPN6spdlog21custom_flag_formatterENS_14default_deleteIS2_EEE5firstB7v160006Ev, symObjAddr: 0x13080, symBinAddr: 0x100015570, symSize: 0x20 }
  - { offsetInCU: 0x756BD, offset: 0x756BD, size: 0x8, addend: 0x0, symName: __ZNSt3__122__compressed_pair_elemIPN6spdlog21custom_flag_formatterELi0ELb0EE5__getB7v160006Ev, symObjAddr: 0x130A0, symBinAddr: 0x100015590, symSize: 0x10 }
  - { offsetInCU: 0x756E3, offset: 0x756E3, size: 0x8, addend: 0x0, symName: __ZNSt3__117__compressed_pairIPN6spdlog21custom_flag_formatterENS_14default_deleteIS2_EEE6secondB7v160006Ev, symObjAddr: 0x130B0, symBinAddr: 0x1000155A0, symSize: 0x20 }
  - { offsetInCU: 0x75709, offset: 0x75709, size: 0x8, addend: 0x0, symName: __ZNSt3__122__compressed_pair_elemINS_14default_deleteIN6spdlog21custom_flag_formatterEEELi1ELb1EE5__getB7v160006Ev, symObjAddr: 0x130D0, symBinAddr: 0x1000155C0, symSize: 0x10 }
  - { offsetInCU: 0x7572F, offset: 0x7572F, size: 0x8, addend: 0x0, symName: __ZNSt3__117__compressed_pairIPN6spdlog7details14flag_formatterENS_14default_deleteIS3_EEEC2B7v160006IPNS1_21custom_flag_formatterENS5_IS9_EEEEOT_OT0_, symObjAddr: 0x130E0, symBinAddr: 0x1000155D0, symSize: 0x40 }
  - { offsetInCU: 0x75787, offset: 0x75787, size: 0x8, addend: 0x0, symName: __ZNSt3__122__compressed_pair_elemIPN6spdlog7details14flag_formatterELi0ELb0EEC2B7v160006IPNS1_21custom_flag_formatterEvEEOT_, symObjAddr: 0x13120, symBinAddr: 0x100015610, symSize: 0x20 }
  - { offsetInCU: 0x757C9, offset: 0x757C9, size: 0x8, addend: 0x0, symName: __ZNSt3__122__compressed_pair_elemINS_14default_deleteIN6spdlog7details14flag_formatterEEELi1ELb1EEC2B7v160006INS1_INS2_21custom_flag_formatterEEEvEEOT_, symObjAddr: 0x13140, symBinAddr: 0x100015630, symSize: 0x30 }
  - { offsetInCU: 0x7580B, offset: 0x7580B, size: 0x8, addend: 0x0, symName: __ZNSt3__114default_deleteIN6spdlog7details14flag_formatterEEC2B7v160006INS1_21custom_flag_formatterEEERKNS0_IT_EEPNS_9enable_ifIXsr14is_convertibleIPS7_PS3_EE5valueEvE4typeE, symObjAddr: 0x13170, symBinAddr: 0x100015660, symSize: 0x20 }
  - { offsetInCU: 0x75854, offset: 0x75854, size: 0x8, addend: 0x0, symName: __ZN6spdlog7details14name_formatterINS0_13scoped_padderEEC1ENS0_12padding_infoE, symObjAddr: 0x13190, symBinAddr: 0x100015680, symSize: 0x30 }
  - { offsetInCU: 0x7588C, offset: 0x7588C, size: 0x8, addend: 0x0, symName: __ZNSt3__110unique_ptrIN6spdlog7details14name_formatterINS2_13scoped_padderEEENS_14default_deleteIS5_EEEC1B7v160006ILb1EvEEPS5_, symObjAddr: 0x131C0, symBinAddr: 0x1000156B0, symSize: 0x30 }
  - { offsetInCU: 0x758CF, offset: 0x758CF, size: 0x8, addend: 0x0, symName: __ZN6spdlog7details14name_formatterINS0_13scoped_padderEEC2ENS0_12padding_infoE, symObjAddr: 0x131F0, symBinAddr: 0x1000156E0, symSize: 0x60 }
  - { offsetInCU: 0x75907, offset: 0x75907, size: 0x8, addend: 0x0, symName: __ZN6spdlog7details14name_formatterINS0_13scoped_padderEED1Ev, symObjAddr: 0x13250, symBinAddr: 0x100015740, symSize: 0x20 }
  - { offsetInCU: 0x75933, offset: 0x75933, size: 0x8, addend: 0x0, symName: __ZN6spdlog7details14name_formatterINS0_13scoped_padderEED0Ev, symObjAddr: 0x13270, symBinAddr: 0x100015760, symSize: 0x30 }
  - { offsetInCU: 0x7595F, offset: 0x7595F, size: 0x8, addend: 0x0, symName: __ZN6spdlog7details14name_formatterINS0_13scoped_padderEE6formatERKNS0_7log_msgERK2tmRN3fmt3v1119basic_memory_bufferIcLm250ENSt3__19allocatorIcEEEE, symObjAddr: 0x132A0, symBinAddr: 0x100015790, symSize: 0xA0 }
  - { offsetInCU: 0x759BB, offset: 0x759BB, size: 0x8, addend: 0x0, symName: __ZN6spdlog7details14name_formatterINS0_13scoped_padderEED2Ev, symObjAddr: 0x13340, symBinAddr: 0x100015830, symSize: 0x20 }
  - { offsetInCU: 0x759E7, offset: 0x759E7, size: 0x8, addend: 0x0, symName: __ZN6spdlog7details13scoped_padderC1EmRKNS0_12padding_infoERN3fmt3v1119basic_memory_bufferIcLm250ENSt3__19allocatorIcEEEE, symObjAddr: 0x13360, symBinAddr: 0x100015850, symSize: 0x40 }
  - { offsetInCU: 0x75A3B, offset: 0x75A3B, size: 0x8, addend: 0x0, symName: __ZN6spdlog7details13scoped_padderD1Ev, symObjAddr: 0x133A0, symBinAddr: 0x100015890, symSize: 0x20 }
  - { offsetInCU: 0x75A65, offset: 0x75A65, size: 0x8, addend: 0x0, symName: __ZN6spdlog7details13scoped_padderC2EmRKNS0_12padding_infoERN3fmt3v1119basic_memory_bufferIcLm250ENSt3__19allocatorIcEEEE, symObjAddr: 0x133C0, symBinAddr: 0x1000158B0, symSize: 0xF0 }
  - { offsetInCU: 0x75AE3, offset: 0x75AE3, size: 0x8, addend: 0x0, symName: __ZN6spdlog7details13scoped_padder6pad_itEl, symObjAddr: 0x134B0, symBinAddr: 0x1000159A0, symSize: 0x50 }
  - { offsetInCU: 0x75B17, offset: 0x75B17, size: 0x8, addend: 0x0, symName: __ZN6spdlog7details13scoped_padderD2Ev, symObjAddr: 0x13500, symBinAddr: 0x1000159F0, symSize: 0x90 }
  - { offsetInCU: 0x75B5D, offset: 0x75B5D, size: 0x8, addend: 0x0, symName: __ZN3fmt3v1119basic_memory_bufferIcLm250ENSt3__19allocatorIcEEE6resizeEm, symObjAddr: 0x13590, symBinAddr: 0x100015A80, symSize: 0x30 }
  - { offsetInCU: 0x75B92, offset: 0x75B92, size: 0x8, addend: 0x0, symName: __ZN3fmt3v116detail6bufferIcE10try_resizeEm, symObjAddr: 0x135C0, symBinAddr: 0x100015AB0, symSize: 0x60 }
  - { offsetInCU: 0x75BC7, offset: 0x75BC7, size: 0x8, addend: 0x0, symName: __ZNSt3__110unique_ptrIN6spdlog7details14name_formatterINS2_13scoped_padderEEENS_14default_deleteIS5_EEEC2B7v160006ILb1EvEEPS5_, symObjAddr: 0x13620, symBinAddr: 0x100015B10, symSize: 0x40 }
  - { offsetInCU: 0x75C0A, offset: 0x75C0A, size: 0x8, addend: 0x0, symName: __ZNSt3__117__compressed_pairIPN6spdlog7details14name_formatterINS2_13scoped_padderEEENS_14default_deleteIS5_EEEC1B7v160006IRS6_NS_16__value_init_tagEEEOT_OT0_, symObjAddr: 0x13660, symBinAddr: 0x100015B50, symSize: 0x30 }
  - { offsetInCU: 0x75C62, offset: 0x75C62, size: 0x8, addend: 0x0, symName: __ZNSt3__117__compressed_pairIPN6spdlog7details14name_formatterINS2_13scoped_padderEEENS_14default_deleteIS5_EEEC2B7v160006IRS6_NS_16__value_init_tagEEEOT_OT0_, symObjAddr: 0x13690, symBinAddr: 0x100015B80, symSize: 0x40 }
  - { offsetInCU: 0x75CBA, offset: 0x75CBA, size: 0x8, addend: 0x0, symName: __ZNSt3__122__compressed_pair_elemIPN6spdlog7details14name_formatterINS2_13scoped_padderEEELi0ELb0EEC2B7v160006IRS6_vEEOT_, symObjAddr: 0x136D0, symBinAddr: 0x100015BC0, symSize: 0x20 }
  - { offsetInCU: 0x75CFC, offset: 0x75CFC, size: 0x8, addend: 0x0, symName: __ZNSt3__122__compressed_pair_elemINS_14default_deleteIN6spdlog7details14name_formatterINS3_13scoped_padderEEEEELi1ELb1EEC2B7v160006ENS_16__value_init_tagE, symObjAddr: 0x136F0, symBinAddr: 0x100015BE0, symSize: 0x10 }
  - { offsetInCU: 0x75D31, offset: 0x75D31, size: 0x8, addend: 0x0, symName: __ZNSt3__110unique_ptrIN6spdlog7details14flag_formatterENS_14default_deleteIS3_EEEC2B7v160006INS2_14name_formatterINS2_13scoped_padderEEENS4_ISA_EEvvEEONS0_IT_T0_EE, symObjAddr: 0x13700, symBinAddr: 0x100015BF0, symSize: 0x60 }
  - { offsetInCU: 0x75D7D, offset: 0x75D7D, size: 0x8, addend: 0x0, symName: __ZNSt3__110unique_ptrIN6spdlog7details14name_formatterINS2_13scoped_padderEEENS_14default_deleteIS5_EEE7releaseB7v160006Ev, symObjAddr: 0x13760, symBinAddr: 0x100015C50, symSize: 0x40 }
  - { offsetInCU: 0x75DB2, offset: 0x75DB2, size: 0x8, addend: 0x0, symName: __ZNSt3__110unique_ptrIN6spdlog7details14name_formatterINS2_13scoped_padderEEENS_14default_deleteIS5_EEE11get_deleterB7v160006Ev, symObjAddr: 0x137A0, symBinAddr: 0x100015C90, symSize: 0x20 }
  - { offsetInCU: 0x75DE4, offset: 0x75DE4, size: 0x8, addend: 0x0, symName: __ZNSt3__117__compressed_pairIPN6spdlog7details14flag_formatterENS_14default_deleteIS3_EEEC1B7v160006IPNS2_14name_formatterINS2_13scoped_padderEEENS5_ISB_EEEEOT_OT0_, symObjAddr: 0x137C0, symBinAddr: 0x100015CB0, symSize: 0x30 }
  - { offsetInCU: 0x75E3C, offset: 0x75E3C, size: 0x8, addend: 0x0, symName: __ZNSt3__117__compressed_pairIPN6spdlog7details14name_formatterINS2_13scoped_padderEEENS_14default_deleteIS5_EEE5firstB7v160006Ev, symObjAddr: 0x137F0, symBinAddr: 0x100015CE0, symSize: 0x20 }
  - { offsetInCU: 0x75E62, offset: 0x75E62, size: 0x8, addend: 0x0, symName: __ZNSt3__122__compressed_pair_elemIPN6spdlog7details14name_formatterINS2_13scoped_padderEEELi0ELb0EE5__getB7v160006Ev, symObjAddr: 0x13810, symBinAddr: 0x100015D00, symSize: 0x10 }
  - { offsetInCU: 0x75E88, offset: 0x75E88, size: 0x8, addend: 0x0, symName: __ZNSt3__117__compressed_pairIPN6spdlog7details14name_formatterINS2_13scoped_padderEEENS_14default_deleteIS5_EEE6secondB7v160006Ev, symObjAddr: 0x13820, symBinAddr: 0x100015D10, symSize: 0x20 }
  - { offsetInCU: 0x75EAE, offset: 0x75EAE, size: 0x8, addend: 0x0, symName: __ZNSt3__122__compressed_pair_elemINS_14default_deleteIN6spdlog7details14name_formatterINS3_13scoped_padderEEEEELi1ELb1EE5__getB7v160006Ev, symObjAddr: 0x13840, symBinAddr: 0x100015D30, symSize: 0x10 }
  - { offsetInCU: 0x75ED4, offset: 0x75ED4, size: 0x8, addend: 0x0, symName: __ZNSt3__117__compressed_pairIPN6spdlog7details14flag_formatterENS_14default_deleteIS3_EEEC2B7v160006IPNS2_14name_formatterINS2_13scoped_padderEEENS5_ISB_EEEEOT_OT0_, symObjAddr: 0x13850, symBinAddr: 0x100015D40, symSize: 0x40 }
  - { offsetInCU: 0x75F2C, offset: 0x75F2C, size: 0x8, addend: 0x0, symName: __ZNSt3__122__compressed_pair_elemIPN6spdlog7details14flag_formatterELi0ELb0EEC2B7v160006IPNS2_14name_formatterINS2_13scoped_padderEEEvEEOT_, symObjAddr: 0x13890, symBinAddr: 0x100015D80, symSize: 0x20 }
  - { offsetInCU: 0x75F6E, offset: 0x75F6E, size: 0x8, addend: 0x0, symName: __ZNSt3__122__compressed_pair_elemINS_14default_deleteIN6spdlog7details14flag_formatterEEELi1ELb1EEC2B7v160006INS1_INS3_14name_formatterINS3_13scoped_padderEEEEEvEEOT_, symObjAddr: 0x138B0, symBinAddr: 0x100015DA0, symSize: 0x30 }
  - { offsetInCU: 0x75FB0, offset: 0x75FB0, size: 0x8, addend: 0x0, symName: __ZNSt3__114default_deleteIN6spdlog7details14flag_formatterEEC2B7v160006INS2_14name_formatterINS2_13scoped_padderEEEEERKNS0_IT_EEPNS_9enable_ifIXsr14is_convertibleIPS9_PS3_EE5valueEvE4typeE, symObjAddr: 0x138E0, symBinAddr: 0x100015DD0, symSize: 0x20 }
  - { offsetInCU: 0x75FF9, offset: 0x75FF9, size: 0x8, addend: 0x0, symName: __ZNSt3__110unique_ptrIN6spdlog7details14name_formatterINS2_13scoped_padderEEENS_14default_deleteIS5_EEED2B7v160006Ev, symObjAddr: 0x13900, symBinAddr: 0x100015DF0, symSize: 0x20 }
  - { offsetInCU: 0x76023, offset: 0x76023, size: 0x8, addend: 0x0, symName: __ZNSt3__110unique_ptrIN6spdlog7details14name_formatterINS2_13scoped_padderEEENS_14default_deleteIS5_EEE5resetB7v160006EPS5_, symObjAddr: 0x13920, symBinAddr: 0x100015E10, symSize: 0x70 }
  - { offsetInCU: 0x76067, offset: 0x76067, size: 0x8, addend: 0x0, symName: __ZNKSt3__114default_deleteIN6spdlog7details14name_formatterINS2_13scoped_padderEEEEclB7v160006EPS5_, symObjAddr: 0x13990, symBinAddr: 0x100015E80, symSize: 0x40 }
  - { offsetInCU: 0x7609B, offset: 0x7609B, size: 0x8, addend: 0x0, symName: __ZN6spdlog7details15level_formatterINS0_13scoped_padderEEC1ENS0_12padding_infoE, symObjAddr: 0x139D0, symBinAddr: 0x100015EC0, symSize: 0x30 }
  - { offsetInCU: 0x760D3, offset: 0x760D3, size: 0x8, addend: 0x0, symName: __ZNSt3__110unique_ptrIN6spdlog7details15level_formatterINS2_13scoped_padderEEENS_14default_deleteIS5_EEEC1B7v160006ILb1EvEEPS5_, symObjAddr: 0x13A00, symBinAddr: 0x100015EF0, symSize: 0x30 }
  - { offsetInCU: 0x76116, offset: 0x76116, size: 0x8, addend: 0x0, symName: __ZN6spdlog7details15level_formatterINS0_13scoped_padderEEC2ENS0_12padding_infoE, symObjAddr: 0x13A30, symBinAddr: 0x100015F20, symSize: 0x60 }
  - { offsetInCU: 0x7614E, offset: 0x7614E, size: 0x8, addend: 0x0, symName: __ZN6spdlog7details15level_formatterINS0_13scoped_padderEED1Ev, symObjAddr: 0x13A90, symBinAddr: 0x100015F80, symSize: 0x20 }
  - { offsetInCU: 0x7617A, offset: 0x7617A, size: 0x8, addend: 0x0, symName: __ZN6spdlog7details15level_formatterINS0_13scoped_padderEED0Ev, symObjAddr: 0x13AB0, symBinAddr: 0x100015FA0, symSize: 0x30 }
  - { offsetInCU: 0x761A6, offset: 0x761A6, size: 0x8, addend: 0x0, symName: __ZN6spdlog7details15level_formatterINS0_13scoped_padderEE6formatERKNS0_7log_msgERK2tmRN3fmt3v1119basic_memory_bufferIcLm250ENSt3__19allocatorIcEEEE, symObjAddr: 0x13AE0, symBinAddr: 0x100015FD0, symSize: 0xB0 }
  - { offsetInCU: 0x76210, offset: 0x76210, size: 0x8, addend: 0x0, symName: __ZN6spdlog7details15level_formatterINS0_13scoped_padderEED2Ev, symObjAddr: 0x13B90, symBinAddr: 0x100016080, symSize: 0x20 }
  - { offsetInCU: 0x7623C, offset: 0x7623C, size: 0x8, addend: 0x0, symName: __ZNSt3__110unique_ptrIN6spdlog7details15level_formatterINS2_13scoped_padderEEENS_14default_deleteIS5_EEEC2B7v160006ILb1EvEEPS5_, symObjAddr: 0x13BB0, symBinAddr: 0x1000160A0, symSize: 0x40 }
  - { offsetInCU: 0x7627F, offset: 0x7627F, size: 0x8, addend: 0x0, symName: __ZNSt3__117__compressed_pairIPN6spdlog7details15level_formatterINS2_13scoped_padderEEENS_14default_deleteIS5_EEEC1B7v160006IRS6_NS_16__value_init_tagEEEOT_OT0_, symObjAddr: 0x13BF0, symBinAddr: 0x1000160E0, symSize: 0x30 }
  - { offsetInCU: 0x762D7, offset: 0x762D7, size: 0x8, addend: 0x0, symName: __ZNSt3__117__compressed_pairIPN6spdlog7details15level_formatterINS2_13scoped_padderEEENS_14default_deleteIS5_EEEC2B7v160006IRS6_NS_16__value_init_tagEEEOT_OT0_, symObjAddr: 0x13C20, symBinAddr: 0x100016110, symSize: 0x40 }
  - { offsetInCU: 0x7632F, offset: 0x7632F, size: 0x8, addend: 0x0, symName: __ZNSt3__122__compressed_pair_elemIPN6spdlog7details15level_formatterINS2_13scoped_padderEEELi0ELb0EEC2B7v160006IRS6_vEEOT_, symObjAddr: 0x13C60, symBinAddr: 0x100016150, symSize: 0x20 }
  - { offsetInCU: 0x76371, offset: 0x76371, size: 0x8, addend: 0x0, symName: __ZNSt3__122__compressed_pair_elemINS_14default_deleteIN6spdlog7details15level_formatterINS3_13scoped_padderEEEEELi1ELb1EEC2B7v160006ENS_16__value_init_tagE, symObjAddr: 0x13C80, symBinAddr: 0x100016170, symSize: 0x10 }
  - { offsetInCU: 0x763A6, offset: 0x763A6, size: 0x8, addend: 0x0, symName: __ZNSt3__110unique_ptrIN6spdlog7details14flag_formatterENS_14default_deleteIS3_EEEC2B7v160006INS2_15level_formatterINS2_13scoped_padderEEENS4_ISA_EEvvEEONS0_IT_T0_EE, symObjAddr: 0x13C90, symBinAddr: 0x100016180, symSize: 0x60 }
  - { offsetInCU: 0x763F2, offset: 0x763F2, size: 0x8, addend: 0x0, symName: __ZNSt3__110unique_ptrIN6spdlog7details15level_formatterINS2_13scoped_padderEEENS_14default_deleteIS5_EEE7releaseB7v160006Ev, symObjAddr: 0x13CF0, symBinAddr: 0x1000161E0, symSize: 0x40 }
  - { offsetInCU: 0x76427, offset: 0x76427, size: 0x8, addend: 0x0, symName: __ZNSt3__110unique_ptrIN6spdlog7details15level_formatterINS2_13scoped_padderEEENS_14default_deleteIS5_EEE11get_deleterB7v160006Ev, symObjAddr: 0x13D30, symBinAddr: 0x100016220, symSize: 0x20 }
  - { offsetInCU: 0x76459, offset: 0x76459, size: 0x8, addend: 0x0, symName: __ZNSt3__117__compressed_pairIPN6spdlog7details14flag_formatterENS_14default_deleteIS3_EEEC1B7v160006IPNS2_15level_formatterINS2_13scoped_padderEEENS5_ISB_EEEEOT_OT0_, symObjAddr: 0x13D50, symBinAddr: 0x100016240, symSize: 0x30 }
  - { offsetInCU: 0x764B1, offset: 0x764B1, size: 0x8, addend: 0x0, symName: __ZNSt3__117__compressed_pairIPN6spdlog7details15level_formatterINS2_13scoped_padderEEENS_14default_deleteIS5_EEE5firstB7v160006Ev, symObjAddr: 0x13D80, symBinAddr: 0x100016270, symSize: 0x20 }
  - { offsetInCU: 0x764D7, offset: 0x764D7, size: 0x8, addend: 0x0, symName: __ZNSt3__122__compressed_pair_elemIPN6spdlog7details15level_formatterINS2_13scoped_padderEEELi0ELb0EE5__getB7v160006Ev, symObjAddr: 0x13DA0, symBinAddr: 0x100016290, symSize: 0x10 }
  - { offsetInCU: 0x764FD, offset: 0x764FD, size: 0x8, addend: 0x0, symName: __ZNSt3__117__compressed_pairIPN6spdlog7details15level_formatterINS2_13scoped_padderEEENS_14default_deleteIS5_EEE6secondB7v160006Ev, symObjAddr: 0x13DB0, symBinAddr: 0x1000162A0, symSize: 0x20 }
  - { offsetInCU: 0x76523, offset: 0x76523, size: 0x8, addend: 0x0, symName: __ZNSt3__122__compressed_pair_elemINS_14default_deleteIN6spdlog7details15level_formatterINS3_13scoped_padderEEEEELi1ELb1EE5__getB7v160006Ev, symObjAddr: 0x13DD0, symBinAddr: 0x1000162C0, symSize: 0x10 }
  - { offsetInCU: 0x76549, offset: 0x76549, size: 0x8, addend: 0x0, symName: __ZNSt3__117__compressed_pairIPN6spdlog7details14flag_formatterENS_14default_deleteIS3_EEEC2B7v160006IPNS2_15level_formatterINS2_13scoped_padderEEENS5_ISB_EEEEOT_OT0_, symObjAddr: 0x13DE0, symBinAddr: 0x1000162D0, symSize: 0x40 }
  - { offsetInCU: 0x765A1, offset: 0x765A1, size: 0x8, addend: 0x0, symName: __ZNSt3__122__compressed_pair_elemIPN6spdlog7details14flag_formatterELi0ELb0EEC2B7v160006IPNS2_15level_formatterINS2_13scoped_padderEEEvEEOT_, symObjAddr: 0x13E20, symBinAddr: 0x100016310, symSize: 0x20 }
  - { offsetInCU: 0x765E3, offset: 0x765E3, size: 0x8, addend: 0x0, symName: __ZNSt3__122__compressed_pair_elemINS_14default_deleteIN6spdlog7details14flag_formatterEEELi1ELb1EEC2B7v160006INS1_INS3_15level_formatterINS3_13scoped_padderEEEEEvEEOT_, symObjAddr: 0x13E40, symBinAddr: 0x100016330, symSize: 0x30 }
  - { offsetInCU: 0x76625, offset: 0x76625, size: 0x8, addend: 0x0, symName: __ZNSt3__114default_deleteIN6spdlog7details14flag_formatterEEC2B7v160006INS2_15level_formatterINS2_13scoped_padderEEEEERKNS0_IT_EEPNS_9enable_ifIXsr14is_convertibleIPS9_PS3_EE5valueEvE4typeE, symObjAddr: 0x13E70, symBinAddr: 0x100016360, symSize: 0x20 }
  - { offsetInCU: 0x7666E, offset: 0x7666E, size: 0x8, addend: 0x0, symName: __ZNSt3__110unique_ptrIN6spdlog7details15level_formatterINS2_13scoped_padderEEENS_14default_deleteIS5_EEED2B7v160006Ev, symObjAddr: 0x13E90, symBinAddr: 0x100016380, symSize: 0x20 }
  - { offsetInCU: 0x76698, offset: 0x76698, size: 0x8, addend: 0x0, symName: __ZNSt3__110unique_ptrIN6spdlog7details15level_formatterINS2_13scoped_padderEEENS_14default_deleteIS5_EEE5resetB7v160006EPS5_, symObjAddr: 0x13EB0, symBinAddr: 0x1000163A0, symSize: 0x70 }
  - { offsetInCU: 0x766DC, offset: 0x766DC, size: 0x8, addend: 0x0, symName: __ZNKSt3__114default_deleteIN6spdlog7details15level_formatterINS2_13scoped_padderEEEEclB7v160006EPS5_, symObjAddr: 0x13F20, symBinAddr: 0x100016410, symSize: 0x40 }
  - { offsetInCU: 0x76710, offset: 0x76710, size: 0x8, addend: 0x0, symName: __ZN6spdlog7details21short_level_formatterINS0_13scoped_padderEEC1ENS0_12padding_infoE, symObjAddr: 0x13F60, symBinAddr: 0x100016450, symSize: 0x30 }
  - { offsetInCU: 0x76748, offset: 0x76748, size: 0x8, addend: 0x0, symName: __ZNSt3__110unique_ptrIN6spdlog7details21short_level_formatterINS2_13scoped_padderEEENS_14default_deleteIS5_EEEC1B7v160006ILb1EvEEPS5_, symObjAddr: 0x13F90, symBinAddr: 0x100016480, symSize: 0x30 }
  - { offsetInCU: 0x7678B, offset: 0x7678B, size: 0x8, addend: 0x0, symName: __ZN6spdlog7details21short_level_formatterINS0_13scoped_padderEEC2ENS0_12padding_infoE, symObjAddr: 0x13FC0, symBinAddr: 0x1000164B0, symSize: 0x60 }
  - { offsetInCU: 0x767C3, offset: 0x767C3, size: 0x8, addend: 0x0, symName: __ZN6spdlog7details21short_level_formatterINS0_13scoped_padderEED1Ev, symObjAddr: 0x14020, symBinAddr: 0x100016510, symSize: 0x20 }
  - { offsetInCU: 0x767EF, offset: 0x767EF, size: 0x8, addend: 0x0, symName: __ZN6spdlog7details21short_level_formatterINS0_13scoped_padderEED0Ev, symObjAddr: 0x14040, symBinAddr: 0x100016530, symSize: 0x30 }
  - { offsetInCU: 0x7681B, offset: 0x7681B, size: 0x8, addend: 0x0, symName: __ZN6spdlog7details21short_level_formatterINS0_13scoped_padderEE6formatERKNS0_7log_msgERK2tmRN3fmt3v1119basic_memory_bufferIcLm250ENSt3__19allocatorIcEEEE, symObjAddr: 0x14070, symBinAddr: 0x100016560, symSize: 0xC0 }
  - { offsetInCU: 0x76885, offset: 0x76885, size: 0x8, addend: 0x0, symName: __ZN6spdlog7details21short_level_formatterINS0_13scoped_padderEED2Ev, symObjAddr: 0x14130, symBinAddr: 0x100016620, symSize: 0x20 }
  - { offsetInCU: 0x768B1, offset: 0x768B1, size: 0x8, addend: 0x0, symName: __ZNSt3__110unique_ptrIN6spdlog7details21short_level_formatterINS2_13scoped_padderEEENS_14default_deleteIS5_EEEC2B7v160006ILb1EvEEPS5_, symObjAddr: 0x14170, symBinAddr: 0x100016660, symSize: 0x40 }
  - { offsetInCU: 0x768F4, offset: 0x768F4, size: 0x8, addend: 0x0, symName: __ZNSt3__117__compressed_pairIPN6spdlog7details21short_level_formatterINS2_13scoped_padderEEENS_14default_deleteIS5_EEEC1B7v160006IRS6_NS_16__value_init_tagEEEOT_OT0_, symObjAddr: 0x141B0, symBinAddr: 0x1000166A0, symSize: 0x30 }
  - { offsetInCU: 0x7694C, offset: 0x7694C, size: 0x8, addend: 0x0, symName: __ZNSt3__117__compressed_pairIPN6spdlog7details21short_level_formatterINS2_13scoped_padderEEENS_14default_deleteIS5_EEEC2B7v160006IRS6_NS_16__value_init_tagEEEOT_OT0_, symObjAddr: 0x141E0, symBinAddr: 0x1000166D0, symSize: 0x40 }
  - { offsetInCU: 0x769A4, offset: 0x769A4, size: 0x8, addend: 0x0, symName: __ZNSt3__122__compressed_pair_elemIPN6spdlog7details21short_level_formatterINS2_13scoped_padderEEELi0ELb0EEC2B7v160006IRS6_vEEOT_, symObjAddr: 0x14220, symBinAddr: 0x100016710, symSize: 0x20 }
  - { offsetInCU: 0x769E6, offset: 0x769E6, size: 0x8, addend: 0x0, symName: __ZNSt3__122__compressed_pair_elemINS_14default_deleteIN6spdlog7details21short_level_formatterINS3_13scoped_padderEEEEELi1ELb1EEC2B7v160006ENS_16__value_init_tagE, symObjAddr: 0x14240, symBinAddr: 0x100016730, symSize: 0x10 }
  - { offsetInCU: 0x76A1B, offset: 0x76A1B, size: 0x8, addend: 0x0, symName: __ZNSt3__110unique_ptrIN6spdlog7details14flag_formatterENS_14default_deleteIS3_EEEC2B7v160006INS2_21short_level_formatterINS2_13scoped_padderEEENS4_ISA_EEvvEEONS0_IT_T0_EE, symObjAddr: 0x14250, symBinAddr: 0x100016740, symSize: 0x60 }
  - { offsetInCU: 0x76A67, offset: 0x76A67, size: 0x8, addend: 0x0, symName: __ZNSt3__110unique_ptrIN6spdlog7details21short_level_formatterINS2_13scoped_padderEEENS_14default_deleteIS5_EEE7releaseB7v160006Ev, symObjAddr: 0x142B0, symBinAddr: 0x1000167A0, symSize: 0x40 }
  - { offsetInCU: 0x76A9C, offset: 0x76A9C, size: 0x8, addend: 0x0, symName: __ZNSt3__110unique_ptrIN6spdlog7details21short_level_formatterINS2_13scoped_padderEEENS_14default_deleteIS5_EEE11get_deleterB7v160006Ev, symObjAddr: 0x142F0, symBinAddr: 0x1000167E0, symSize: 0x20 }
  - { offsetInCU: 0x76ACE, offset: 0x76ACE, size: 0x8, addend: 0x0, symName: __ZNSt3__117__compressed_pairIPN6spdlog7details14flag_formatterENS_14default_deleteIS3_EEEC1B7v160006IPNS2_21short_level_formatterINS2_13scoped_padderEEENS5_ISB_EEEEOT_OT0_, symObjAddr: 0x14310, symBinAddr: 0x100016800, symSize: 0x30 }
  - { offsetInCU: 0x76B26, offset: 0x76B26, size: 0x8, addend: 0x0, symName: __ZNSt3__117__compressed_pairIPN6spdlog7details21short_level_formatterINS2_13scoped_padderEEENS_14default_deleteIS5_EEE5firstB7v160006Ev, symObjAddr: 0x14340, symBinAddr: 0x100016830, symSize: 0x20 }
  - { offsetInCU: 0x76B4C, offset: 0x76B4C, size: 0x8, addend: 0x0, symName: __ZNSt3__122__compressed_pair_elemIPN6spdlog7details21short_level_formatterINS2_13scoped_padderEEELi0ELb0EE5__getB7v160006Ev, symObjAddr: 0x14360, symBinAddr: 0x100016850, symSize: 0x10 }
  - { offsetInCU: 0x76B72, offset: 0x76B72, size: 0x8, addend: 0x0, symName: __ZNSt3__117__compressed_pairIPN6spdlog7details21short_level_formatterINS2_13scoped_padderEEENS_14default_deleteIS5_EEE6secondB7v160006Ev, symObjAddr: 0x14370, symBinAddr: 0x100016860, symSize: 0x20 }
  - { offsetInCU: 0x76B98, offset: 0x76B98, size: 0x8, addend: 0x0, symName: __ZNSt3__122__compressed_pair_elemINS_14default_deleteIN6spdlog7details21short_level_formatterINS3_13scoped_padderEEEEELi1ELb1EE5__getB7v160006Ev, symObjAddr: 0x14390, symBinAddr: 0x100016880, symSize: 0x10 }
  - { offsetInCU: 0x76BBE, offset: 0x76BBE, size: 0x8, addend: 0x0, symName: __ZNSt3__117__compressed_pairIPN6spdlog7details14flag_formatterENS_14default_deleteIS3_EEEC2B7v160006IPNS2_21short_level_formatterINS2_13scoped_padderEEENS5_ISB_EEEEOT_OT0_, symObjAddr: 0x143A0, symBinAddr: 0x100016890, symSize: 0x40 }
  - { offsetInCU: 0x76C16, offset: 0x76C16, size: 0x8, addend: 0x0, symName: __ZNSt3__122__compressed_pair_elemIPN6spdlog7details14flag_formatterELi0ELb0EEC2B7v160006IPNS2_21short_level_formatterINS2_13scoped_padderEEEvEEOT_, symObjAddr: 0x143E0, symBinAddr: 0x1000168D0, symSize: 0x20 }
  - { offsetInCU: 0x76C58, offset: 0x76C58, size: 0x8, addend: 0x0, symName: __ZNSt3__122__compressed_pair_elemINS_14default_deleteIN6spdlog7details14flag_formatterEEELi1ELb1EEC2B7v160006INS1_INS3_21short_level_formatterINS3_13scoped_padderEEEEEvEEOT_, symObjAddr: 0x14400, symBinAddr: 0x1000168F0, symSize: 0x30 }
  - { offsetInCU: 0x76C9A, offset: 0x76C9A, size: 0x8, addend: 0x0, symName: __ZNSt3__114default_deleteIN6spdlog7details14flag_formatterEEC2B7v160006INS2_21short_level_formatterINS2_13scoped_padderEEEEERKNS0_IT_EEPNS_9enable_ifIXsr14is_convertibleIPS9_PS3_EE5valueEvE4typeE, symObjAddr: 0x14430, symBinAddr: 0x100016920, symSize: 0x20 }
  - { offsetInCU: 0x76CE3, offset: 0x76CE3, size: 0x8, addend: 0x0, symName: __ZNSt3__110unique_ptrIN6spdlog7details21short_level_formatterINS2_13scoped_padderEEENS_14default_deleteIS5_EEED2B7v160006Ev, symObjAddr: 0x14450, symBinAddr: 0x100016940, symSize: 0x20 }
  - { offsetInCU: 0x76D0D, offset: 0x76D0D, size: 0x8, addend: 0x0, symName: __ZNSt3__110unique_ptrIN6spdlog7details21short_level_formatterINS2_13scoped_padderEEENS_14default_deleteIS5_EEE5resetB7v160006EPS5_, symObjAddr: 0x14470, symBinAddr: 0x100016960, symSize: 0x70 }
  - { offsetInCU: 0x76D51, offset: 0x76D51, size: 0x8, addend: 0x0, symName: __ZNKSt3__114default_deleteIN6spdlog7details21short_level_formatterINS2_13scoped_padderEEEEclB7v160006EPS5_, symObjAddr: 0x144E0, symBinAddr: 0x1000169D0, symSize: 0x40 }
  - { offsetInCU: 0x76D85, offset: 0x76D85, size: 0x8, addend: 0x0, symName: __ZN6spdlog7details11t_formatterINS0_13scoped_padderEEC1ENS0_12padding_infoE, symObjAddr: 0x14520, symBinAddr: 0x100016A10, symSize: 0x30 }
  - { offsetInCU: 0x76DBE, offset: 0x76DBE, size: 0x8, addend: 0x0, symName: __ZNSt3__110unique_ptrIN6spdlog7details11t_formatterINS2_13scoped_padderEEENS_14default_deleteIS5_EEEC1B7v160006ILb1EvEEPS5_, symObjAddr: 0x14550, symBinAddr: 0x100016A40, symSize: 0x30 }
  - { offsetInCU: 0x76E01, offset: 0x76E01, size: 0x8, addend: 0x0, symName: __ZN6spdlog7details11t_formatterINS0_13scoped_padderEEC2ENS0_12padding_infoE, symObjAddr: 0x14580, symBinAddr: 0x100016A70, symSize: 0x60 }
  - { offsetInCU: 0x76E3A, offset: 0x76E3A, size: 0x8, addend: 0x0, symName: __ZN6spdlog7details11t_formatterINS0_13scoped_padderEED1Ev, symObjAddr: 0x145E0, symBinAddr: 0x100016AD0, symSize: 0x20 }
  - { offsetInCU: 0x76E67, offset: 0x76E67, size: 0x8, addend: 0x0, symName: __ZN6spdlog7details11t_formatterINS0_13scoped_padderEED0Ev, symObjAddr: 0x14600, symBinAddr: 0x100016AF0, symSize: 0x30 }
  - { offsetInCU: 0x76E94, offset: 0x76E94, size: 0x8, addend: 0x0, symName: __ZN6spdlog7details11t_formatterINS0_13scoped_padderEE6formatERKNS0_7log_msgERK2tmRN3fmt3v1119basic_memory_bufferIcLm250ENSt3__19allocatorIcEEEE, symObjAddr: 0x14630, symBinAddr: 0x100016B20, symSize: 0x90 }
  - { offsetInCU: 0x76F03, offset: 0x76F03, size: 0x8, addend: 0x0, symName: __ZN6spdlog7details11t_formatterINS0_13scoped_padderEED2Ev, symObjAddr: 0x146C0, symBinAddr: 0x100016BB0, symSize: 0x20 }
  - { offsetInCU: 0x76F30, offset: 0x76F30, size: 0x8, addend: 0x0, symName: __ZN6spdlog7details13scoped_padder12count_digitsImEEjT_, symObjAddr: 0x146E0, symBinAddr: 0x100016BD0, symSize: 0x20 }
  - { offsetInCU: 0x76F5C, offset: 0x76F5C, size: 0x8, addend: 0x0, symName: __ZN3fmt3v1110format_intC1Em, symObjAddr: 0x14830, symBinAddr: 0x100016D20, symSize: 0x30 }
  - { offsetInCU: 0x76F95, offset: 0x76F95, size: 0x8, addend: 0x0, symName: __ZN3fmt3v1110format_intC2Em, symObjAddr: 0x14860, symBinAddr: 0x100016D50, symSize: 0x40 }
  - { offsetInCU: 0x76FCE, offset: 0x76FCE, size: 0x8, addend: 0x0, symName: __ZN3fmt3v1110format_int15format_unsignedImEEPcT_, symObjAddr: 0x148A0, symBinAddr: 0x100016D90, symSize: 0x40 }
  - { offsetInCU: 0x7701B, offset: 0x7701B, size: 0x8, addend: 0x0, symName: __ZNSt3__110unique_ptrIN6spdlog7details11t_formatterINS2_13scoped_padderEEENS_14default_deleteIS5_EEEC2B7v160006ILb1EvEEPS5_, symObjAddr: 0x14A20, symBinAddr: 0x100016F10, symSize: 0x40 }
  - { offsetInCU: 0x7705E, offset: 0x7705E, size: 0x8, addend: 0x0, symName: __ZNSt3__117__compressed_pairIPN6spdlog7details11t_formatterINS2_13scoped_padderEEENS_14default_deleteIS5_EEEC1B7v160006IRS6_NS_16__value_init_tagEEEOT_OT0_, symObjAddr: 0x14A60, symBinAddr: 0x100016F50, symSize: 0x30 }
  - { offsetInCU: 0x770B6, offset: 0x770B6, size: 0x8, addend: 0x0, symName: __ZNSt3__117__compressed_pairIPN6spdlog7details11t_formatterINS2_13scoped_padderEEENS_14default_deleteIS5_EEEC2B7v160006IRS6_NS_16__value_init_tagEEEOT_OT0_, symObjAddr: 0x14A90, symBinAddr: 0x100016F80, symSize: 0x40 }
  - { offsetInCU: 0x7710E, offset: 0x7710E, size: 0x8, addend: 0x0, symName: __ZNSt3__122__compressed_pair_elemIPN6spdlog7details11t_formatterINS2_13scoped_padderEEELi0ELb0EEC2B7v160006IRS6_vEEOT_, symObjAddr: 0x14AD0, symBinAddr: 0x100016FC0, symSize: 0x20 }
  - { offsetInCU: 0x77150, offset: 0x77150, size: 0x8, addend: 0x0, symName: __ZNSt3__122__compressed_pair_elemINS_14default_deleteIN6spdlog7details11t_formatterINS3_13scoped_padderEEEEELi1ELb1EEC2B7v160006ENS_16__value_init_tagE, symObjAddr: 0x14AF0, symBinAddr: 0x100016FE0, symSize: 0x10 }
  - { offsetInCU: 0x77185, offset: 0x77185, size: 0x8, addend: 0x0, symName: __ZNSt3__110unique_ptrIN6spdlog7details14flag_formatterENS_14default_deleteIS3_EEEC2B7v160006INS2_11t_formatterINS2_13scoped_padderEEENS4_ISA_EEvvEEONS0_IT_T0_EE, symObjAddr: 0x14B00, symBinAddr: 0x100016FF0, symSize: 0x60 }
  - { offsetInCU: 0x771D1, offset: 0x771D1, size: 0x8, addend: 0x0, symName: __ZNSt3__110unique_ptrIN6spdlog7details11t_formatterINS2_13scoped_padderEEENS_14default_deleteIS5_EEE7releaseB7v160006Ev, symObjAddr: 0x14B60, symBinAddr: 0x100017050, symSize: 0x40 }
  - { offsetInCU: 0x77206, offset: 0x77206, size: 0x8, addend: 0x0, symName: __ZNSt3__110unique_ptrIN6spdlog7details11t_formatterINS2_13scoped_padderEEENS_14default_deleteIS5_EEE11get_deleterB7v160006Ev, symObjAddr: 0x14BA0, symBinAddr: 0x100017090, symSize: 0x20 }
  - { offsetInCU: 0x77238, offset: 0x77238, size: 0x8, addend: 0x0, symName: __ZNSt3__117__compressed_pairIPN6spdlog7details14flag_formatterENS_14default_deleteIS3_EEEC1B7v160006IPNS2_11t_formatterINS2_13scoped_padderEEENS5_ISB_EEEEOT_OT0_, symObjAddr: 0x14BC0, symBinAddr: 0x1000170B0, symSize: 0x30 }
  - { offsetInCU: 0x77290, offset: 0x77290, size: 0x8, addend: 0x0, symName: __ZNSt3__117__compressed_pairIPN6spdlog7details11t_formatterINS2_13scoped_padderEEENS_14default_deleteIS5_EEE5firstB7v160006Ev, symObjAddr: 0x14BF0, symBinAddr: 0x1000170E0, symSize: 0x20 }
  - { offsetInCU: 0x772B6, offset: 0x772B6, size: 0x8, addend: 0x0, symName: __ZNSt3__122__compressed_pair_elemIPN6spdlog7details11t_formatterINS2_13scoped_padderEEELi0ELb0EE5__getB7v160006Ev, symObjAddr: 0x14C10, symBinAddr: 0x100017100, symSize: 0x10 }
  - { offsetInCU: 0x772DC, offset: 0x772DC, size: 0x8, addend: 0x0, symName: __ZNSt3__117__compressed_pairIPN6spdlog7details11t_formatterINS2_13scoped_padderEEENS_14default_deleteIS5_EEE6secondB7v160006Ev, symObjAddr: 0x14C20, symBinAddr: 0x100017110, symSize: 0x20 }
  - { offsetInCU: 0x77302, offset: 0x77302, size: 0x8, addend: 0x0, symName: __ZNSt3__122__compressed_pair_elemINS_14default_deleteIN6spdlog7details11t_formatterINS3_13scoped_padderEEEEELi1ELb1EE5__getB7v160006Ev, symObjAddr: 0x14C40, symBinAddr: 0x100017130, symSize: 0x10 }
  - { offsetInCU: 0x77328, offset: 0x77328, size: 0x8, addend: 0x0, symName: __ZNSt3__117__compressed_pairIPN6spdlog7details14flag_formatterENS_14default_deleteIS3_EEEC2B7v160006IPNS2_11t_formatterINS2_13scoped_padderEEENS5_ISB_EEEEOT_OT0_, symObjAddr: 0x14C50, symBinAddr: 0x100017140, symSize: 0x40 }
  - { offsetInCU: 0x77380, offset: 0x77380, size: 0x8, addend: 0x0, symName: __ZNSt3__122__compressed_pair_elemIPN6spdlog7details14flag_formatterELi0ELb0EEC2B7v160006IPNS2_11t_formatterINS2_13scoped_padderEEEvEEOT_, symObjAddr: 0x14C90, symBinAddr: 0x100017180, symSize: 0x20 }
  - { offsetInCU: 0x773C2, offset: 0x773C2, size: 0x8, addend: 0x0, symName: __ZNSt3__122__compressed_pair_elemINS_14default_deleteIN6spdlog7details14flag_formatterEEELi1ELb1EEC2B7v160006INS1_INS3_11t_formatterINS3_13scoped_padderEEEEEvEEOT_, symObjAddr: 0x14CB0, symBinAddr: 0x1000171A0, symSize: 0x30 }
  - { offsetInCU: 0x77404, offset: 0x77404, size: 0x8, addend: 0x0, symName: __ZNSt3__114default_deleteIN6spdlog7details14flag_formatterEEC2B7v160006INS2_11t_formatterINS2_13scoped_padderEEEEERKNS0_IT_EEPNS_9enable_ifIXsr14is_convertibleIPS9_PS3_EE5valueEvE4typeE, symObjAddr: 0x14CE0, symBinAddr: 0x1000171D0, symSize: 0x20 }
  - { offsetInCU: 0x7744D, offset: 0x7744D, size: 0x8, addend: 0x0, symName: __ZNSt3__110unique_ptrIN6spdlog7details11t_formatterINS2_13scoped_padderEEENS_14default_deleteIS5_EEED2B7v160006Ev, symObjAddr: 0x14D00, symBinAddr: 0x1000171F0, symSize: 0x20 }
  - { offsetInCU: 0x77477, offset: 0x77477, size: 0x8, addend: 0x0, symName: __ZNSt3__110unique_ptrIN6spdlog7details11t_formatterINS2_13scoped_padderEEENS_14default_deleteIS5_EEE5resetB7v160006EPS5_, symObjAddr: 0x14D20, symBinAddr: 0x100017210, symSize: 0x70 }
  - { offsetInCU: 0x774BB, offset: 0x774BB, size: 0x8, addend: 0x0, symName: __ZNKSt3__114default_deleteIN6spdlog7details11t_formatterINS2_13scoped_padderEEEEclB7v160006EPS5_, symObjAddr: 0x14D90, symBinAddr: 0x100017280, symSize: 0x40 }
  - { offsetInCU: 0x774EF, offset: 0x774EF, size: 0x8, addend: 0x0, symName: __ZN6spdlog7details11v_formatterINS0_13scoped_padderEEC1ENS0_12padding_infoE, symObjAddr: 0x14DD0, symBinAddr: 0x1000172C0, symSize: 0x30 }
  - { offsetInCU: 0x77528, offset: 0x77528, size: 0x8, addend: 0x0, symName: __ZNSt3__110unique_ptrIN6spdlog7details11v_formatterINS2_13scoped_padderEEENS_14default_deleteIS5_EEEC1B7v160006ILb1EvEEPS5_, symObjAddr: 0x14E00, symBinAddr: 0x1000172F0, symSize: 0x30 }
  - { offsetInCU: 0x7756B, offset: 0x7756B, size: 0x8, addend: 0x0, symName: __ZN6spdlog7details11v_formatterINS0_13scoped_padderEEC2ENS0_12padding_infoE, symObjAddr: 0x14E30, symBinAddr: 0x100017320, symSize: 0x60 }
  - { offsetInCU: 0x775A4, offset: 0x775A4, size: 0x8, addend: 0x0, symName: __ZN6spdlog7details11v_formatterINS0_13scoped_padderEED1Ev, symObjAddr: 0x14E90, symBinAddr: 0x100017380, symSize: 0x20 }
  - { offsetInCU: 0x775D1, offset: 0x775D1, size: 0x8, addend: 0x0, symName: __ZN6spdlog7details11v_formatterINS0_13scoped_padderEED0Ev, symObjAddr: 0x14EB0, symBinAddr: 0x1000173A0, symSize: 0x30 }
  - { offsetInCU: 0x775FE, offset: 0x775FE, size: 0x8, addend: 0x0, symName: __ZN6spdlog7details11v_formatterINS0_13scoped_padderEE6formatERKNS0_7log_msgERK2tmRN3fmt3v1119basic_memory_bufferIcLm250ENSt3__19allocatorIcEEEE, symObjAddr: 0x14EE0, symBinAddr: 0x1000173D0, symSize: 0xA0 }
  - { offsetInCU: 0x7765E, offset: 0x7765E, size: 0x8, addend: 0x0, symName: __ZN6spdlog7details11v_formatterINS0_13scoped_padderEED2Ev, symObjAddr: 0x14F80, symBinAddr: 0x100017470, symSize: 0x20 }
  - { offsetInCU: 0x7768B, offset: 0x7768B, size: 0x8, addend: 0x0, symName: __ZNSt3__110unique_ptrIN6spdlog7details11v_formatterINS2_13scoped_padderEEENS_14default_deleteIS5_EEEC2B7v160006ILb1EvEEPS5_, symObjAddr: 0x14FA0, symBinAddr: 0x100017490, symSize: 0x40 }
  - { offsetInCU: 0x776CE, offset: 0x776CE, size: 0x8, addend: 0x0, symName: __ZNSt3__117__compressed_pairIPN6spdlog7details11v_formatterINS2_13scoped_padderEEENS_14default_deleteIS5_EEEC1B7v160006IRS6_NS_16__value_init_tagEEEOT_OT0_, symObjAddr: 0x14FE0, symBinAddr: 0x1000174D0, symSize: 0x30 }
  - { offsetInCU: 0x77726, offset: 0x77726, size: 0x8, addend: 0x0, symName: __ZNSt3__117__compressed_pairIPN6spdlog7details11v_formatterINS2_13scoped_padderEEENS_14default_deleteIS5_EEEC2B7v160006IRS6_NS_16__value_init_tagEEEOT_OT0_, symObjAddr: 0x15010, symBinAddr: 0x100017500, symSize: 0x40 }
  - { offsetInCU: 0x7777E, offset: 0x7777E, size: 0x8, addend: 0x0, symName: __ZNSt3__122__compressed_pair_elemIPN6spdlog7details11v_formatterINS2_13scoped_padderEEELi0ELb0EEC2B7v160006IRS6_vEEOT_, symObjAddr: 0x15050, symBinAddr: 0x100017540, symSize: 0x20 }
  - { offsetInCU: 0x777C0, offset: 0x777C0, size: 0x8, addend: 0x0, symName: __ZNSt3__122__compressed_pair_elemINS_14default_deleteIN6spdlog7details11v_formatterINS3_13scoped_padderEEEEELi1ELb1EEC2B7v160006ENS_16__value_init_tagE, symObjAddr: 0x15070, symBinAddr: 0x100017560, symSize: 0x10 }
  - { offsetInCU: 0x777F5, offset: 0x777F5, size: 0x8, addend: 0x0, symName: __ZNSt3__110unique_ptrIN6spdlog7details14flag_formatterENS_14default_deleteIS3_EEEC2B7v160006INS2_11v_formatterINS2_13scoped_padderEEENS4_ISA_EEvvEEONS0_IT_T0_EE, symObjAddr: 0x15080, symBinAddr: 0x100017570, symSize: 0x60 }
  - { offsetInCU: 0x77841, offset: 0x77841, size: 0x8, addend: 0x0, symName: __ZNSt3__110unique_ptrIN6spdlog7details11v_formatterINS2_13scoped_padderEEENS_14default_deleteIS5_EEE7releaseB7v160006Ev, symObjAddr: 0x150E0, symBinAddr: 0x1000175D0, symSize: 0x40 }
  - { offsetInCU: 0x77876, offset: 0x77876, size: 0x8, addend: 0x0, symName: __ZNSt3__110unique_ptrIN6spdlog7details11v_formatterINS2_13scoped_padderEEENS_14default_deleteIS5_EEE11get_deleterB7v160006Ev, symObjAddr: 0x15120, symBinAddr: 0x100017610, symSize: 0x20 }
  - { offsetInCU: 0x778A8, offset: 0x778A8, size: 0x8, addend: 0x0, symName: __ZNSt3__117__compressed_pairIPN6spdlog7details14flag_formatterENS_14default_deleteIS3_EEEC1B7v160006IPNS2_11v_formatterINS2_13scoped_padderEEENS5_ISB_EEEEOT_OT0_, symObjAddr: 0x15140, symBinAddr: 0x100017630, symSize: 0x30 }
  - { offsetInCU: 0x77900, offset: 0x77900, size: 0x8, addend: 0x0, symName: __ZNSt3__117__compressed_pairIPN6spdlog7details11v_formatterINS2_13scoped_padderEEENS_14default_deleteIS5_EEE5firstB7v160006Ev, symObjAddr: 0x15170, symBinAddr: 0x100017660, symSize: 0x20 }
  - { offsetInCU: 0x77926, offset: 0x77926, size: 0x8, addend: 0x0, symName: __ZNSt3__122__compressed_pair_elemIPN6spdlog7details11v_formatterINS2_13scoped_padderEEELi0ELb0EE5__getB7v160006Ev, symObjAddr: 0x15190, symBinAddr: 0x100017680, symSize: 0x10 }
  - { offsetInCU: 0x7794C, offset: 0x7794C, size: 0x8, addend: 0x0, symName: __ZNSt3__117__compressed_pairIPN6spdlog7details11v_formatterINS2_13scoped_padderEEENS_14default_deleteIS5_EEE6secondB7v160006Ev, symObjAddr: 0x151A0, symBinAddr: 0x100017690, symSize: 0x20 }
  - { offsetInCU: 0x77972, offset: 0x77972, size: 0x8, addend: 0x0, symName: __ZNSt3__122__compressed_pair_elemINS_14default_deleteIN6spdlog7details11v_formatterINS3_13scoped_padderEEEEELi1ELb1EE5__getB7v160006Ev, symObjAddr: 0x151C0, symBinAddr: 0x1000176B0, symSize: 0x10 }
  - { offsetInCU: 0x77998, offset: 0x77998, size: 0x8, addend: 0x0, symName: __ZNSt3__117__compressed_pairIPN6spdlog7details14flag_formatterENS_14default_deleteIS3_EEEC2B7v160006IPNS2_11v_formatterINS2_13scoped_padderEEENS5_ISB_EEEEOT_OT0_, symObjAddr: 0x151D0, symBinAddr: 0x1000176C0, symSize: 0x40 }
  - { offsetInCU: 0x779F0, offset: 0x779F0, size: 0x8, addend: 0x0, symName: __ZNSt3__122__compressed_pair_elemIPN6spdlog7details14flag_formatterELi0ELb0EEC2B7v160006IPNS2_11v_formatterINS2_13scoped_padderEEEvEEOT_, symObjAddr: 0x15210, symBinAddr: 0x100017700, symSize: 0x20 }
  - { offsetInCU: 0x77A32, offset: 0x77A32, size: 0x8, addend: 0x0, symName: __ZNSt3__122__compressed_pair_elemINS_14default_deleteIN6spdlog7details14flag_formatterEEELi1ELb1EEC2B7v160006INS1_INS3_11v_formatterINS3_13scoped_padderEEEEEvEEOT_, symObjAddr: 0x15230, symBinAddr: 0x100017720, symSize: 0x30 }
  - { offsetInCU: 0x77A74, offset: 0x77A74, size: 0x8, addend: 0x0, symName: __ZNSt3__114default_deleteIN6spdlog7details14flag_formatterEEC2B7v160006INS2_11v_formatterINS2_13scoped_padderEEEEERKNS0_IT_EEPNS_9enable_ifIXsr14is_convertibleIPS9_PS3_EE5valueEvE4typeE, symObjAddr: 0x15260, symBinAddr: 0x100017750, symSize: 0x20 }
  - { offsetInCU: 0x77ABD, offset: 0x77ABD, size: 0x8, addend: 0x0, symName: __ZNSt3__110unique_ptrIN6spdlog7details11v_formatterINS2_13scoped_padderEEENS_14default_deleteIS5_EEED2B7v160006Ev, symObjAddr: 0x15280, symBinAddr: 0x100017770, symSize: 0x20 }
  - { offsetInCU: 0x77AE7, offset: 0x77AE7, size: 0x8, addend: 0x0, symName: __ZNSt3__110unique_ptrIN6spdlog7details11v_formatterINS2_13scoped_padderEEENS_14default_deleteIS5_EEE5resetB7v160006EPS5_, symObjAddr: 0x152A0, symBinAddr: 0x100017790, symSize: 0x70 }
  - { offsetInCU: 0x77B2B, offset: 0x77B2B, size: 0x8, addend: 0x0, symName: __ZNKSt3__114default_deleteIN6spdlog7details11v_formatterINS2_13scoped_padderEEEEclB7v160006EPS5_, symObjAddr: 0x15310, symBinAddr: 0x100017800, symSize: 0x40 }
  - { offsetInCU: 0x77B5F, offset: 0x77B5F, size: 0x8, addend: 0x0, symName: __ZN6spdlog7details11a_formatterINS0_13scoped_padderEEC1ENS0_12padding_infoE, symObjAddr: 0x15350, symBinAddr: 0x100017840, symSize: 0x30 }
  - { offsetInCU: 0x77B97, offset: 0x77B97, size: 0x8, addend: 0x0, symName: __ZNSt3__110unique_ptrIN6spdlog7details11a_formatterINS2_13scoped_padderEEENS_14default_deleteIS5_EEEC1B7v160006ILb1EvEEPS5_, symObjAddr: 0x15380, symBinAddr: 0x100017870, symSize: 0x30 }
  - { offsetInCU: 0x77BDA, offset: 0x77BDA, size: 0x8, addend: 0x0, symName: __ZN6spdlog7details11a_formatterINS0_13scoped_padderEEC2ENS0_12padding_infoE, symObjAddr: 0x153B0, symBinAddr: 0x1000178A0, symSize: 0x60 }
  - { offsetInCU: 0x77C12, offset: 0x77C12, size: 0x8, addend: 0x0, symName: __ZN6spdlog7details11a_formatterINS0_13scoped_padderEED1Ev, symObjAddr: 0x15410, symBinAddr: 0x100017900, symSize: 0x20 }
  - { offsetInCU: 0x77C3E, offset: 0x77C3E, size: 0x8, addend: 0x0, symName: __ZN6spdlog7details11a_formatterINS0_13scoped_padderEED0Ev, symObjAddr: 0x15430, symBinAddr: 0x100017920, symSize: 0x30 }
  - { offsetInCU: 0x77C6A, offset: 0x77C6A, size: 0x8, addend: 0x0, symName: __ZN6spdlog7details11a_formatterINS0_13scoped_padderEE6formatERKNS0_7log_msgERK2tmRN3fmt3v1119basic_memory_bufferIcLm250ENSt3__19allocatorIcEEEE, symObjAddr: 0x15460, symBinAddr: 0x100017950, symSize: 0xD0 }
  - { offsetInCU: 0x77CD4, offset: 0x77CD4, size: 0x8, addend: 0x0, symName: __ZN6spdlog7details11a_formatterINS0_13scoped_padderEED2Ev, symObjAddr: 0x15530, symBinAddr: 0x100017A20, symSize: 0x20 }
  - { offsetInCU: 0x77D00, offset: 0x77D00, size: 0x8, addend: 0x0, symName: __ZNSt3__15arrayIPKcLm7EEixB7v160006Em, symObjAddr: 0x15550, symBinAddr: 0x100017A40, symSize: 0x20 }
  - { offsetInCU: 0x77D34, offset: 0x77D34, size: 0x8, addend: 0x0, symName: __ZNSt3__110unique_ptrIN6spdlog7details11a_formatterINS2_13scoped_padderEEENS_14default_deleteIS5_EEEC2B7v160006ILb1EvEEPS5_, symObjAddr: 0x15570, symBinAddr: 0x100017A60, symSize: 0x40 }
  - { offsetInCU: 0x77D77, offset: 0x77D77, size: 0x8, addend: 0x0, symName: __ZNSt3__117__compressed_pairIPN6spdlog7details11a_formatterINS2_13scoped_padderEEENS_14default_deleteIS5_EEEC1B7v160006IRS6_NS_16__value_init_tagEEEOT_OT0_, symObjAddr: 0x155B0, symBinAddr: 0x100017AA0, symSize: 0x30 }
  - { offsetInCU: 0x77DCF, offset: 0x77DCF, size: 0x8, addend: 0x0, symName: __ZNSt3__117__compressed_pairIPN6spdlog7details11a_formatterINS2_13scoped_padderEEENS_14default_deleteIS5_EEEC2B7v160006IRS6_NS_16__value_init_tagEEEOT_OT0_, symObjAddr: 0x155E0, symBinAddr: 0x100017AD0, symSize: 0x40 }
  - { offsetInCU: 0x77E27, offset: 0x77E27, size: 0x8, addend: 0x0, symName: __ZNSt3__122__compressed_pair_elemIPN6spdlog7details11a_formatterINS2_13scoped_padderEEELi0ELb0EEC2B7v160006IRS6_vEEOT_, symObjAddr: 0x15620, symBinAddr: 0x100017B10, symSize: 0x20 }
  - { offsetInCU: 0x77E69, offset: 0x77E69, size: 0x8, addend: 0x0, symName: __ZNSt3__122__compressed_pair_elemINS_14default_deleteIN6spdlog7details11a_formatterINS3_13scoped_padderEEEEELi1ELb1EEC2B7v160006ENS_16__value_init_tagE, symObjAddr: 0x15640, symBinAddr: 0x100017B30, symSize: 0x10 }
  - { offsetInCU: 0x77E9E, offset: 0x77E9E, size: 0x8, addend: 0x0, symName: __ZNSt3__110unique_ptrIN6spdlog7details14flag_formatterENS_14default_deleteIS3_EEEC2B7v160006INS2_11a_formatterINS2_13scoped_padderEEENS4_ISA_EEvvEEONS0_IT_T0_EE, symObjAddr: 0x15650, symBinAddr: 0x100017B40, symSize: 0x60 }
  - { offsetInCU: 0x77EEA, offset: 0x77EEA, size: 0x8, addend: 0x0, symName: __ZNSt3__110unique_ptrIN6spdlog7details11a_formatterINS2_13scoped_padderEEENS_14default_deleteIS5_EEE7releaseB7v160006Ev, symObjAddr: 0x156B0, symBinAddr: 0x100017BA0, symSize: 0x40 }
  - { offsetInCU: 0x77F1F, offset: 0x77F1F, size: 0x8, addend: 0x0, symName: __ZNSt3__110unique_ptrIN6spdlog7details11a_formatterINS2_13scoped_padderEEENS_14default_deleteIS5_EEE11get_deleterB7v160006Ev, symObjAddr: 0x156F0, symBinAddr: 0x100017BE0, symSize: 0x20 }
  - { offsetInCU: 0x77F51, offset: 0x77F51, size: 0x8, addend: 0x0, symName: __ZNSt3__117__compressed_pairIPN6spdlog7details14flag_formatterENS_14default_deleteIS3_EEEC1B7v160006IPNS2_11a_formatterINS2_13scoped_padderEEENS5_ISB_EEEEOT_OT0_, symObjAddr: 0x15710, symBinAddr: 0x100017C00, symSize: 0x30 }
  - { offsetInCU: 0x77FA9, offset: 0x77FA9, size: 0x8, addend: 0x0, symName: __ZNSt3__117__compressed_pairIPN6spdlog7details11a_formatterINS2_13scoped_padderEEENS_14default_deleteIS5_EEE5firstB7v160006Ev, symObjAddr: 0x15740, symBinAddr: 0x100017C30, symSize: 0x20 }
  - { offsetInCU: 0x77FCF, offset: 0x77FCF, size: 0x8, addend: 0x0, symName: __ZNSt3__122__compressed_pair_elemIPN6spdlog7details11a_formatterINS2_13scoped_padderEEELi0ELb0EE5__getB7v160006Ev, symObjAddr: 0x15760, symBinAddr: 0x100017C50, symSize: 0x10 }
  - { offsetInCU: 0x77FF5, offset: 0x77FF5, size: 0x8, addend: 0x0, symName: __ZNSt3__117__compressed_pairIPN6spdlog7details11a_formatterINS2_13scoped_padderEEENS_14default_deleteIS5_EEE6secondB7v160006Ev, symObjAddr: 0x15770, symBinAddr: 0x100017C60, symSize: 0x20 }
  - { offsetInCU: 0x7801B, offset: 0x7801B, size: 0x8, addend: 0x0, symName: __ZNSt3__122__compressed_pair_elemINS_14default_deleteIN6spdlog7details11a_formatterINS3_13scoped_padderEEEEELi1ELb1EE5__getB7v160006Ev, symObjAddr: 0x15790, symBinAddr: 0x100017C80, symSize: 0x10 }
  - { offsetInCU: 0x78041, offset: 0x78041, size: 0x8, addend: 0x0, symName: __ZNSt3__117__compressed_pairIPN6spdlog7details14flag_formatterENS_14default_deleteIS3_EEEC2B7v160006IPNS2_11a_formatterINS2_13scoped_padderEEENS5_ISB_EEEEOT_OT0_, symObjAddr: 0x157A0, symBinAddr: 0x100017C90, symSize: 0x40 }
  - { offsetInCU: 0x78099, offset: 0x78099, size: 0x8, addend: 0x0, symName: __ZNSt3__122__compressed_pair_elemIPN6spdlog7details14flag_formatterELi0ELb0EEC2B7v160006IPNS2_11a_formatterINS2_13scoped_padderEEEvEEOT_, symObjAddr: 0x157E0, symBinAddr: 0x100017CD0, symSize: 0x20 }
  - { offsetInCU: 0x780DB, offset: 0x780DB, size: 0x8, addend: 0x0, symName: __ZNSt3__122__compressed_pair_elemINS_14default_deleteIN6spdlog7details14flag_formatterEEELi1ELb1EEC2B7v160006INS1_INS3_11a_formatterINS3_13scoped_padderEEEEEvEEOT_, symObjAddr: 0x15800, symBinAddr: 0x100017CF0, symSize: 0x30 }
  - { offsetInCU: 0x7811D, offset: 0x7811D, size: 0x8, addend: 0x0, symName: __ZNSt3__114default_deleteIN6spdlog7details14flag_formatterEEC2B7v160006INS2_11a_formatterINS2_13scoped_padderEEEEERKNS0_IT_EEPNS_9enable_ifIXsr14is_convertibleIPS9_PS3_EE5valueEvE4typeE, symObjAddr: 0x15830, symBinAddr: 0x100017D20, symSize: 0x20 }
  - { offsetInCU: 0x78166, offset: 0x78166, size: 0x8, addend: 0x0, symName: __ZNSt3__110unique_ptrIN6spdlog7details11a_formatterINS2_13scoped_padderEEENS_14default_deleteIS5_EEED2B7v160006Ev, symObjAddr: 0x15850, symBinAddr: 0x100017D40, symSize: 0x20 }
  - { offsetInCU: 0x78190, offset: 0x78190, size: 0x8, addend: 0x0, symName: __ZNSt3__110unique_ptrIN6spdlog7details11a_formatterINS2_13scoped_padderEEENS_14default_deleteIS5_EEE5resetB7v160006EPS5_, symObjAddr: 0x15870, symBinAddr: 0x100017D60, symSize: 0x70 }
  - { offsetInCU: 0x781D4, offset: 0x781D4, size: 0x8, addend: 0x0, symName: __ZNKSt3__114default_deleteIN6spdlog7details11a_formatterINS2_13scoped_padderEEEEclB7v160006EPS5_, symObjAddr: 0x158E0, symBinAddr: 0x100017DD0, symSize: 0x40 }
  - { offsetInCU: 0x78208, offset: 0x78208, size: 0x8, addend: 0x0, symName: __ZN6spdlog7details11A_formatterINS0_13scoped_padderEEC1ENS0_12padding_infoE, symObjAddr: 0x15920, symBinAddr: 0x100017E10, symSize: 0x30 }
  - { offsetInCU: 0x78240, offset: 0x78240, size: 0x8, addend: 0x0, symName: __ZNSt3__110unique_ptrIN6spdlog7details11A_formatterINS2_13scoped_padderEEENS_14default_deleteIS5_EEEC1B7v160006ILb1EvEEPS5_, symObjAddr: 0x15950, symBinAddr: 0x100017E40, symSize: 0x30 }
  - { offsetInCU: 0x78283, offset: 0x78283, size: 0x8, addend: 0x0, symName: __ZN6spdlog7details11A_formatterINS0_13scoped_padderEEC2ENS0_12padding_infoE, symObjAddr: 0x15980, symBinAddr: 0x100017E70, symSize: 0x60 }
  - { offsetInCU: 0x782BB, offset: 0x782BB, size: 0x8, addend: 0x0, symName: __ZN6spdlog7details11A_formatterINS0_13scoped_padderEED1Ev, symObjAddr: 0x159E0, symBinAddr: 0x100017ED0, symSize: 0x20 }
  - { offsetInCU: 0x782E7, offset: 0x782E7, size: 0x8, addend: 0x0, symName: __ZN6spdlog7details11A_formatterINS0_13scoped_padderEED0Ev, symObjAddr: 0x15A00, symBinAddr: 0x100017EF0, symSize: 0x30 }
  - { offsetInCU: 0x78313, offset: 0x78313, size: 0x8, addend: 0x0, symName: __ZN6spdlog7details11A_formatterINS0_13scoped_padderEE6formatERKNS0_7log_msgERK2tmRN3fmt3v1119basic_memory_bufferIcLm250ENSt3__19allocatorIcEEEE, symObjAddr: 0x15A30, symBinAddr: 0x100017F20, symSize: 0xD0 }
  - { offsetInCU: 0x7837D, offset: 0x7837D, size: 0x8, addend: 0x0, symName: __ZN6spdlog7details11A_formatterINS0_13scoped_padderEED2Ev, symObjAddr: 0x15B00, symBinAddr: 0x100017FF0, symSize: 0x20 }
  - { offsetInCU: 0x783A9, offset: 0x783A9, size: 0x8, addend: 0x0, symName: __ZNSt3__110unique_ptrIN6spdlog7details11A_formatterINS2_13scoped_padderEEENS_14default_deleteIS5_EEEC2B7v160006ILb1EvEEPS5_, symObjAddr: 0x15B20, symBinAddr: 0x100018010, symSize: 0x40 }
  - { offsetInCU: 0x783EC, offset: 0x783EC, size: 0x8, addend: 0x0, symName: __ZNSt3__117__compressed_pairIPN6spdlog7details11A_formatterINS2_13scoped_padderEEENS_14default_deleteIS5_EEEC1B7v160006IRS6_NS_16__value_init_tagEEEOT_OT0_, symObjAddr: 0x15B60, symBinAddr: 0x100018050, symSize: 0x30 }
  - { offsetInCU: 0x78444, offset: 0x78444, size: 0x8, addend: 0x0, symName: __ZNSt3__117__compressed_pairIPN6spdlog7details11A_formatterINS2_13scoped_padderEEENS_14default_deleteIS5_EEEC2B7v160006IRS6_NS_16__value_init_tagEEEOT_OT0_, symObjAddr: 0x15B90, symBinAddr: 0x100018080, symSize: 0x40 }
  - { offsetInCU: 0x7849C, offset: 0x7849C, size: 0x8, addend: 0x0, symName: __ZNSt3__122__compressed_pair_elemIPN6spdlog7details11A_formatterINS2_13scoped_padderEEELi0ELb0EEC2B7v160006IRS6_vEEOT_, symObjAddr: 0x15BD0, symBinAddr: 0x1000180C0, symSize: 0x20 }
  - { offsetInCU: 0x784DE, offset: 0x784DE, size: 0x8, addend: 0x0, symName: __ZNSt3__122__compressed_pair_elemINS_14default_deleteIN6spdlog7details11A_formatterINS3_13scoped_padderEEEEELi1ELb1EEC2B7v160006ENS_16__value_init_tagE, symObjAddr: 0x15BF0, symBinAddr: 0x1000180E0, symSize: 0x10 }
  - { offsetInCU: 0x78513, offset: 0x78513, size: 0x8, addend: 0x0, symName: __ZNSt3__110unique_ptrIN6spdlog7details14flag_formatterENS_14default_deleteIS3_EEEC2B7v160006INS2_11A_formatterINS2_13scoped_padderEEENS4_ISA_EEvvEEONS0_IT_T0_EE, symObjAddr: 0x15C00, symBinAddr: 0x1000180F0, symSize: 0x60 }
  - { offsetInCU: 0x7855F, offset: 0x7855F, size: 0x8, addend: 0x0, symName: __ZNSt3__110unique_ptrIN6spdlog7details11A_formatterINS2_13scoped_padderEEENS_14default_deleteIS5_EEE7releaseB7v160006Ev, symObjAddr: 0x15C60, symBinAddr: 0x100018150, symSize: 0x40 }
  - { offsetInCU: 0x78594, offset: 0x78594, size: 0x8, addend: 0x0, symName: __ZNSt3__110unique_ptrIN6spdlog7details11A_formatterINS2_13scoped_padderEEENS_14default_deleteIS5_EEE11get_deleterB7v160006Ev, symObjAddr: 0x15CA0, symBinAddr: 0x100018190, symSize: 0x20 }
  - { offsetInCU: 0x785C6, offset: 0x785C6, size: 0x8, addend: 0x0, symName: __ZNSt3__117__compressed_pairIPN6spdlog7details14flag_formatterENS_14default_deleteIS3_EEEC1B7v160006IPNS2_11A_formatterINS2_13scoped_padderEEENS5_ISB_EEEEOT_OT0_, symObjAddr: 0x15CC0, symBinAddr: 0x1000181B0, symSize: 0x30 }
  - { offsetInCU: 0x7861E, offset: 0x7861E, size: 0x8, addend: 0x0, symName: __ZNSt3__117__compressed_pairIPN6spdlog7details11A_formatterINS2_13scoped_padderEEENS_14default_deleteIS5_EEE5firstB7v160006Ev, symObjAddr: 0x15CF0, symBinAddr: 0x1000181E0, symSize: 0x20 }
  - { offsetInCU: 0x78644, offset: 0x78644, size: 0x8, addend: 0x0, symName: __ZNSt3__122__compressed_pair_elemIPN6spdlog7details11A_formatterINS2_13scoped_padderEEELi0ELb0EE5__getB7v160006Ev, symObjAddr: 0x15D10, symBinAddr: 0x100018200, symSize: 0x10 }
  - { offsetInCU: 0x7866A, offset: 0x7866A, size: 0x8, addend: 0x0, symName: __ZNSt3__117__compressed_pairIPN6spdlog7details11A_formatterINS2_13scoped_padderEEENS_14default_deleteIS5_EEE6secondB7v160006Ev, symObjAddr: 0x15D20, symBinAddr: 0x100018210, symSize: 0x20 }
  - { offsetInCU: 0x78690, offset: 0x78690, size: 0x8, addend: 0x0, symName: __ZNSt3__122__compressed_pair_elemINS_14default_deleteIN6spdlog7details11A_formatterINS3_13scoped_padderEEEEELi1ELb1EE5__getB7v160006Ev, symObjAddr: 0x15D40, symBinAddr: 0x100018230, symSize: 0x10 }
  - { offsetInCU: 0x786B6, offset: 0x786B6, size: 0x8, addend: 0x0, symName: __ZNSt3__117__compressed_pairIPN6spdlog7details14flag_formatterENS_14default_deleteIS3_EEEC2B7v160006IPNS2_11A_formatterINS2_13scoped_padderEEENS5_ISB_EEEEOT_OT0_, symObjAddr: 0x15D50, symBinAddr: 0x100018240, symSize: 0x40 }
  - { offsetInCU: 0x7870E, offset: 0x7870E, size: 0x8, addend: 0x0, symName: __ZNSt3__122__compressed_pair_elemIPN6spdlog7details14flag_formatterELi0ELb0EEC2B7v160006IPNS2_11A_formatterINS2_13scoped_padderEEEvEEOT_, symObjAddr: 0x15D90, symBinAddr: 0x100018280, symSize: 0x20 }
  - { offsetInCU: 0x78750, offset: 0x78750, size: 0x8, addend: 0x0, symName: __ZNSt3__122__compressed_pair_elemINS_14default_deleteIN6spdlog7details14flag_formatterEEELi1ELb1EEC2B7v160006INS1_INS3_11A_formatterINS3_13scoped_padderEEEEEvEEOT_, symObjAddr: 0x15DB0, symBinAddr: 0x1000182A0, symSize: 0x30 }
  - { offsetInCU: 0x78792, offset: 0x78792, size: 0x8, addend: 0x0, symName: __ZNSt3__114default_deleteIN6spdlog7details14flag_formatterEEC2B7v160006INS2_11A_formatterINS2_13scoped_padderEEEEERKNS0_IT_EEPNS_9enable_ifIXsr14is_convertibleIPS9_PS3_EE5valueEvE4typeE, symObjAddr: 0x15DE0, symBinAddr: 0x1000182D0, symSize: 0x20 }
  - { offsetInCU: 0x787DB, offset: 0x787DB, size: 0x8, addend: 0x0, symName: __ZNSt3__110unique_ptrIN6spdlog7details11A_formatterINS2_13scoped_padderEEENS_14default_deleteIS5_EEED2B7v160006Ev, symObjAddr: 0x15E00, symBinAddr: 0x1000182F0, symSize: 0x20 }
  - { offsetInCU: 0x78805, offset: 0x78805, size: 0x8, addend: 0x0, symName: __ZNSt3__110unique_ptrIN6spdlog7details11A_formatterINS2_13scoped_padderEEENS_14default_deleteIS5_EEE5resetB7v160006EPS5_, symObjAddr: 0x15E20, symBinAddr: 0x100018310, symSize: 0x70 }
  - { offsetInCU: 0x78849, offset: 0x78849, size: 0x8, addend: 0x0, symName: __ZNKSt3__114default_deleteIN6spdlog7details11A_formatterINS2_13scoped_padderEEEEclB7v160006EPS5_, symObjAddr: 0x15E90, symBinAddr: 0x100018380, symSize: 0x40 }
  - { offsetInCU: 0x7887D, offset: 0x7887D, size: 0x8, addend: 0x0, symName: __ZN6spdlog7details11b_formatterINS0_13scoped_padderEEC1ENS0_12padding_infoE, symObjAddr: 0x15ED0, symBinAddr: 0x1000183C0, symSize: 0x30 }
  - { offsetInCU: 0x788B5, offset: 0x788B5, size: 0x8, addend: 0x0, symName: __ZNSt3__110unique_ptrIN6spdlog7details11b_formatterINS2_13scoped_padderEEENS_14default_deleteIS5_EEEC1B7v160006ILb1EvEEPS5_, symObjAddr: 0x15F00, symBinAddr: 0x1000183F0, symSize: 0x30 }
  - { offsetInCU: 0x788F8, offset: 0x788F8, size: 0x8, addend: 0x0, symName: __ZN6spdlog7details11b_formatterINS0_13scoped_padderEEC2ENS0_12padding_infoE, symObjAddr: 0x15F30, symBinAddr: 0x100018420, symSize: 0x60 }
  - { offsetInCU: 0x78930, offset: 0x78930, size: 0x8, addend: 0x0, symName: __ZN6spdlog7details11b_formatterINS0_13scoped_padderEED1Ev, symObjAddr: 0x15F90, symBinAddr: 0x100018480, symSize: 0x20 }
  - { offsetInCU: 0x7895C, offset: 0x7895C, size: 0x8, addend: 0x0, symName: __ZN6spdlog7details11b_formatterINS0_13scoped_padderEED0Ev, symObjAddr: 0x15FB0, symBinAddr: 0x1000184A0, symSize: 0x30 }
  - { offsetInCU: 0x78988, offset: 0x78988, size: 0x8, addend: 0x0, symName: __ZN6spdlog7details11b_formatterINS0_13scoped_padderEE6formatERKNS0_7log_msgERK2tmRN3fmt3v1119basic_memory_bufferIcLm250ENSt3__19allocatorIcEEEE, symObjAddr: 0x15FE0, symBinAddr: 0x1000184D0, symSize: 0xD0 }
  - { offsetInCU: 0x789F2, offset: 0x789F2, size: 0x8, addend: 0x0, symName: __ZN6spdlog7details11b_formatterINS0_13scoped_padderEED2Ev, symObjAddr: 0x160B0, symBinAddr: 0x1000185A0, symSize: 0x20 }
  - { offsetInCU: 0x78A1E, offset: 0x78A1E, size: 0x8, addend: 0x0, symName: __ZNKSt3__15arrayIPKcLm12EEixB7v160006Em, symObjAddr: 0x160D0, symBinAddr: 0x1000185C0, symSize: 0x20 }
  - { offsetInCU: 0x78A52, offset: 0x78A52, size: 0x8, addend: 0x0, symName: __ZNSt3__110unique_ptrIN6spdlog7details11b_formatterINS2_13scoped_padderEEENS_14default_deleteIS5_EEEC2B7v160006ILb1EvEEPS5_, symObjAddr: 0x160F0, symBinAddr: 0x1000185E0, symSize: 0x40 }
  - { offsetInCU: 0x78A95, offset: 0x78A95, size: 0x8, addend: 0x0, symName: __ZNSt3__117__compressed_pairIPN6spdlog7details11b_formatterINS2_13scoped_padderEEENS_14default_deleteIS5_EEEC1B7v160006IRS6_NS_16__value_init_tagEEEOT_OT0_, symObjAddr: 0x16130, symBinAddr: 0x100018620, symSize: 0x30 }
  - { offsetInCU: 0x78AED, offset: 0x78AED, size: 0x8, addend: 0x0, symName: __ZNSt3__117__compressed_pairIPN6spdlog7details11b_formatterINS2_13scoped_padderEEENS_14default_deleteIS5_EEEC2B7v160006IRS6_NS_16__value_init_tagEEEOT_OT0_, symObjAddr: 0x16160, symBinAddr: 0x100018650, symSize: 0x40 }
  - { offsetInCU: 0x78B45, offset: 0x78B45, size: 0x8, addend: 0x0, symName: __ZNSt3__122__compressed_pair_elemIPN6spdlog7details11b_formatterINS2_13scoped_padderEEELi0ELb0EEC2B7v160006IRS6_vEEOT_, symObjAddr: 0x161A0, symBinAddr: 0x100018690, symSize: 0x20 }
  - { offsetInCU: 0x78B87, offset: 0x78B87, size: 0x8, addend: 0x0, symName: __ZNSt3__122__compressed_pair_elemINS_14default_deleteIN6spdlog7details11b_formatterINS3_13scoped_padderEEEEELi1ELb1EEC2B7v160006ENS_16__value_init_tagE, symObjAddr: 0x161C0, symBinAddr: 0x1000186B0, symSize: 0x10 }
  - { offsetInCU: 0x78BBC, offset: 0x78BBC, size: 0x8, addend: 0x0, symName: __ZNSt3__110unique_ptrIN6spdlog7details14flag_formatterENS_14default_deleteIS3_EEEC2B7v160006INS2_11b_formatterINS2_13scoped_padderEEENS4_ISA_EEvvEEONS0_IT_T0_EE, symObjAddr: 0x161D0, symBinAddr: 0x1000186C0, symSize: 0x60 }
  - { offsetInCU: 0x78C08, offset: 0x78C08, size: 0x8, addend: 0x0, symName: __ZNSt3__110unique_ptrIN6spdlog7details11b_formatterINS2_13scoped_padderEEENS_14default_deleteIS5_EEE7releaseB7v160006Ev, symObjAddr: 0x16230, symBinAddr: 0x100018720, symSize: 0x40 }
  - { offsetInCU: 0x78C3D, offset: 0x78C3D, size: 0x8, addend: 0x0, symName: __ZNSt3__110unique_ptrIN6spdlog7details11b_formatterINS2_13scoped_padderEEENS_14default_deleteIS5_EEE11get_deleterB7v160006Ev, symObjAddr: 0x16270, symBinAddr: 0x100018760, symSize: 0x20 }
  - { offsetInCU: 0x78C6F, offset: 0x78C6F, size: 0x8, addend: 0x0, symName: __ZNSt3__117__compressed_pairIPN6spdlog7details14flag_formatterENS_14default_deleteIS3_EEEC1B7v160006IPNS2_11b_formatterINS2_13scoped_padderEEENS5_ISB_EEEEOT_OT0_, symObjAddr: 0x16290, symBinAddr: 0x100018780, symSize: 0x30 }
  - { offsetInCU: 0x78CC7, offset: 0x78CC7, size: 0x8, addend: 0x0, symName: __ZNSt3__117__compressed_pairIPN6spdlog7details11b_formatterINS2_13scoped_padderEEENS_14default_deleteIS5_EEE5firstB7v160006Ev, symObjAddr: 0x162C0, symBinAddr: 0x1000187B0, symSize: 0x20 }
  - { offsetInCU: 0x78CED, offset: 0x78CED, size: 0x8, addend: 0x0, symName: __ZNSt3__122__compressed_pair_elemIPN6spdlog7details11b_formatterINS2_13scoped_padderEEELi0ELb0EE5__getB7v160006Ev, symObjAddr: 0x162E0, symBinAddr: 0x1000187D0, symSize: 0x10 }
  - { offsetInCU: 0x78D13, offset: 0x78D13, size: 0x8, addend: 0x0, symName: __ZNSt3__117__compressed_pairIPN6spdlog7details11b_formatterINS2_13scoped_padderEEENS_14default_deleteIS5_EEE6secondB7v160006Ev, symObjAddr: 0x162F0, symBinAddr: 0x1000187E0, symSize: 0x20 }
  - { offsetInCU: 0x78D39, offset: 0x78D39, size: 0x8, addend: 0x0, symName: __ZNSt3__122__compressed_pair_elemINS_14default_deleteIN6spdlog7details11b_formatterINS3_13scoped_padderEEEEELi1ELb1EE5__getB7v160006Ev, symObjAddr: 0x16310, symBinAddr: 0x100018800, symSize: 0x10 }
  - { offsetInCU: 0x78D5F, offset: 0x78D5F, size: 0x8, addend: 0x0, symName: __ZNSt3__117__compressed_pairIPN6spdlog7details14flag_formatterENS_14default_deleteIS3_EEEC2B7v160006IPNS2_11b_formatterINS2_13scoped_padderEEENS5_ISB_EEEEOT_OT0_, symObjAddr: 0x16320, symBinAddr: 0x100018810, symSize: 0x40 }
  - { offsetInCU: 0x78DB7, offset: 0x78DB7, size: 0x8, addend: 0x0, symName: __ZNSt3__122__compressed_pair_elemIPN6spdlog7details14flag_formatterELi0ELb0EEC2B7v160006IPNS2_11b_formatterINS2_13scoped_padderEEEvEEOT_, symObjAddr: 0x16360, symBinAddr: 0x100018850, symSize: 0x20 }
  - { offsetInCU: 0x78DF9, offset: 0x78DF9, size: 0x8, addend: 0x0, symName: __ZNSt3__122__compressed_pair_elemINS_14default_deleteIN6spdlog7details14flag_formatterEEELi1ELb1EEC2B7v160006INS1_INS3_11b_formatterINS3_13scoped_padderEEEEEvEEOT_, symObjAddr: 0x16380, symBinAddr: 0x100018870, symSize: 0x30 }
  - { offsetInCU: 0x78E3B, offset: 0x78E3B, size: 0x8, addend: 0x0, symName: __ZNSt3__114default_deleteIN6spdlog7details14flag_formatterEEC2B7v160006INS2_11b_formatterINS2_13scoped_padderEEEEERKNS0_IT_EEPNS_9enable_ifIXsr14is_convertibleIPS9_PS3_EE5valueEvE4typeE, symObjAddr: 0x163B0, symBinAddr: 0x1000188A0, symSize: 0x20 }
  - { offsetInCU: 0x78E84, offset: 0x78E84, size: 0x8, addend: 0x0, symName: __ZNSt3__110unique_ptrIN6spdlog7details11b_formatterINS2_13scoped_padderEEENS_14default_deleteIS5_EEED2B7v160006Ev, symObjAddr: 0x163D0, symBinAddr: 0x1000188C0, symSize: 0x20 }
  - { offsetInCU: 0x78EAE, offset: 0x78EAE, size: 0x8, addend: 0x0, symName: __ZNSt3__110unique_ptrIN6spdlog7details11b_formatterINS2_13scoped_padderEEENS_14default_deleteIS5_EEE5resetB7v160006EPS5_, symObjAddr: 0x163F0, symBinAddr: 0x1000188E0, symSize: 0x70 }
  - { offsetInCU: 0x78EF2, offset: 0x78EF2, size: 0x8, addend: 0x0, symName: __ZNKSt3__114default_deleteIN6spdlog7details11b_formatterINS2_13scoped_padderEEEEclB7v160006EPS5_, symObjAddr: 0x16460, symBinAddr: 0x100018950, symSize: 0x40 }
  - { offsetInCU: 0x78F26, offset: 0x78F26, size: 0x8, addend: 0x0, symName: __ZN6spdlog7details11B_formatterINS0_13scoped_padderEEC1ENS0_12padding_infoE, symObjAddr: 0x164A0, symBinAddr: 0x100018990, symSize: 0x30 }
  - { offsetInCU: 0x78F5E, offset: 0x78F5E, size: 0x8, addend: 0x0, symName: __ZNSt3__110unique_ptrIN6spdlog7details11B_formatterINS2_13scoped_padderEEENS_14default_deleteIS5_EEEC1B7v160006ILb1EvEEPS5_, symObjAddr: 0x164D0, symBinAddr: 0x1000189C0, symSize: 0x30 }
  - { offsetInCU: 0x78FA1, offset: 0x78FA1, size: 0x8, addend: 0x0, symName: __ZN6spdlog7details11B_formatterINS0_13scoped_padderEEC2ENS0_12padding_infoE, symObjAddr: 0x16500, symBinAddr: 0x1000189F0, symSize: 0x60 }
  - { offsetInCU: 0x78FD9, offset: 0x78FD9, size: 0x8, addend: 0x0, symName: __ZN6spdlog7details11B_formatterINS0_13scoped_padderEED1Ev, symObjAddr: 0x16560, symBinAddr: 0x100018A50, symSize: 0x20 }
  - { offsetInCU: 0x79005, offset: 0x79005, size: 0x8, addend: 0x0, symName: __ZN6spdlog7details11B_formatterINS0_13scoped_padderEED0Ev, symObjAddr: 0x16580, symBinAddr: 0x100018A70, symSize: 0x30 }
  - { offsetInCU: 0x79031, offset: 0x79031, size: 0x8, addend: 0x0, symName: __ZN6spdlog7details11B_formatterINS0_13scoped_padderEE6formatERKNS0_7log_msgERK2tmRN3fmt3v1119basic_memory_bufferIcLm250ENSt3__19allocatorIcEEEE, symObjAddr: 0x165B0, symBinAddr: 0x100018AA0, symSize: 0xD0 }
  - { offsetInCU: 0x7909B, offset: 0x7909B, size: 0x8, addend: 0x0, symName: __ZN6spdlog7details11B_formatterINS0_13scoped_padderEED2Ev, symObjAddr: 0x16680, symBinAddr: 0x100018B70, symSize: 0x20 }
  - { offsetInCU: 0x790C7, offset: 0x790C7, size: 0x8, addend: 0x0, symName: __ZNSt3__110unique_ptrIN6spdlog7details11B_formatterINS2_13scoped_padderEEENS_14default_deleteIS5_EEEC2B7v160006ILb1EvEEPS5_, symObjAddr: 0x166A0, symBinAddr: 0x100018B90, symSize: 0x40 }
  - { offsetInCU: 0x7910A, offset: 0x7910A, size: 0x8, addend: 0x0, symName: __ZNSt3__117__compressed_pairIPN6spdlog7details11B_formatterINS2_13scoped_padderEEENS_14default_deleteIS5_EEEC1B7v160006IRS6_NS_16__value_init_tagEEEOT_OT0_, symObjAddr: 0x166E0, symBinAddr: 0x100018BD0, symSize: 0x30 }
  - { offsetInCU: 0x79162, offset: 0x79162, size: 0x8, addend: 0x0, symName: __ZNSt3__117__compressed_pairIPN6spdlog7details11B_formatterINS2_13scoped_padderEEENS_14default_deleteIS5_EEEC2B7v160006IRS6_NS_16__value_init_tagEEEOT_OT0_, symObjAddr: 0x16710, symBinAddr: 0x100018C00, symSize: 0x40 }
  - { offsetInCU: 0x791BA, offset: 0x791BA, size: 0x8, addend: 0x0, symName: __ZNSt3__122__compressed_pair_elemIPN6spdlog7details11B_formatterINS2_13scoped_padderEEELi0ELb0EEC2B7v160006IRS6_vEEOT_, symObjAddr: 0x16750, symBinAddr: 0x100018C40, symSize: 0x20 }
  - { offsetInCU: 0x791FC, offset: 0x791FC, size: 0x8, addend: 0x0, symName: __ZNSt3__122__compressed_pair_elemINS_14default_deleteIN6spdlog7details11B_formatterINS3_13scoped_padderEEEEELi1ELb1EEC2B7v160006ENS_16__value_init_tagE, symObjAddr: 0x16770, symBinAddr: 0x100018C60, symSize: 0x10 }
  - { offsetInCU: 0x79231, offset: 0x79231, size: 0x8, addend: 0x0, symName: __ZNSt3__110unique_ptrIN6spdlog7details14flag_formatterENS_14default_deleteIS3_EEEC2B7v160006INS2_11B_formatterINS2_13scoped_padderEEENS4_ISA_EEvvEEONS0_IT_T0_EE, symObjAddr: 0x16780, symBinAddr: 0x100018C70, symSize: 0x60 }
  - { offsetInCU: 0x7927D, offset: 0x7927D, size: 0x8, addend: 0x0, symName: __ZNSt3__110unique_ptrIN6spdlog7details11B_formatterINS2_13scoped_padderEEENS_14default_deleteIS5_EEE7releaseB7v160006Ev, symObjAddr: 0x167E0, symBinAddr: 0x100018CD0, symSize: 0x40 }
  - { offsetInCU: 0x792B2, offset: 0x792B2, size: 0x8, addend: 0x0, symName: __ZNSt3__110unique_ptrIN6spdlog7details11B_formatterINS2_13scoped_padderEEENS_14default_deleteIS5_EEE11get_deleterB7v160006Ev, symObjAddr: 0x16820, symBinAddr: 0x100018D10, symSize: 0x20 }
  - { offsetInCU: 0x792E4, offset: 0x792E4, size: 0x8, addend: 0x0, symName: __ZNSt3__117__compressed_pairIPN6spdlog7details14flag_formatterENS_14default_deleteIS3_EEEC1B7v160006IPNS2_11B_formatterINS2_13scoped_padderEEENS5_ISB_EEEEOT_OT0_, symObjAddr: 0x16840, symBinAddr: 0x100018D30, symSize: 0x30 }
  - { offsetInCU: 0x7933C, offset: 0x7933C, size: 0x8, addend: 0x0, symName: __ZNSt3__117__compressed_pairIPN6spdlog7details11B_formatterINS2_13scoped_padderEEENS_14default_deleteIS5_EEE5firstB7v160006Ev, symObjAddr: 0x16870, symBinAddr: 0x100018D60, symSize: 0x20 }
  - { offsetInCU: 0x79362, offset: 0x79362, size: 0x8, addend: 0x0, symName: __ZNSt3__122__compressed_pair_elemIPN6spdlog7details11B_formatterINS2_13scoped_padderEEELi0ELb0EE5__getB7v160006Ev, symObjAddr: 0x16890, symBinAddr: 0x100018D80, symSize: 0x10 }
  - { offsetInCU: 0x79388, offset: 0x79388, size: 0x8, addend: 0x0, symName: __ZNSt3__117__compressed_pairIPN6spdlog7details11B_formatterINS2_13scoped_padderEEENS_14default_deleteIS5_EEE6secondB7v160006Ev, symObjAddr: 0x168A0, symBinAddr: 0x100018D90, symSize: 0x20 }
  - { offsetInCU: 0x793AE, offset: 0x793AE, size: 0x8, addend: 0x0, symName: __ZNSt3__122__compressed_pair_elemINS_14default_deleteIN6spdlog7details11B_formatterINS3_13scoped_padderEEEEELi1ELb1EE5__getB7v160006Ev, symObjAddr: 0x168C0, symBinAddr: 0x100018DB0, symSize: 0x10 }
  - { offsetInCU: 0x793D4, offset: 0x793D4, size: 0x8, addend: 0x0, symName: __ZNSt3__117__compressed_pairIPN6spdlog7details14flag_formatterENS_14default_deleteIS3_EEEC2B7v160006IPNS2_11B_formatterINS2_13scoped_padderEEENS5_ISB_EEEEOT_OT0_, symObjAddr: 0x168D0, symBinAddr: 0x100018DC0, symSize: 0x40 }
  - { offsetInCU: 0x7942C, offset: 0x7942C, size: 0x8, addend: 0x0, symName: __ZNSt3__122__compressed_pair_elemIPN6spdlog7details14flag_formatterELi0ELb0EEC2B7v160006IPNS2_11B_formatterINS2_13scoped_padderEEEvEEOT_, symObjAddr: 0x16910, symBinAddr: 0x100018E00, symSize: 0x20 }
  - { offsetInCU: 0x7946E, offset: 0x7946E, size: 0x8, addend: 0x0, symName: __ZNSt3__122__compressed_pair_elemINS_14default_deleteIN6spdlog7details14flag_formatterEEELi1ELb1EEC2B7v160006INS1_INS3_11B_formatterINS3_13scoped_padderEEEEEvEEOT_, symObjAddr: 0x16930, symBinAddr: 0x100018E20, symSize: 0x30 }
  - { offsetInCU: 0x794B0, offset: 0x794B0, size: 0x8, addend: 0x0, symName: __ZNSt3__114default_deleteIN6spdlog7details14flag_formatterEEC2B7v160006INS2_11B_formatterINS2_13scoped_padderEEEEERKNS0_IT_EEPNS_9enable_ifIXsr14is_convertibleIPS9_PS3_EE5valueEvE4typeE, symObjAddr: 0x16960, symBinAddr: 0x100018E50, symSize: 0x20 }
  - { offsetInCU: 0x794F9, offset: 0x794F9, size: 0x8, addend: 0x0, symName: __ZNSt3__110unique_ptrIN6spdlog7details11B_formatterINS2_13scoped_padderEEENS_14default_deleteIS5_EEED2B7v160006Ev, symObjAddr: 0x16980, symBinAddr: 0x100018E70, symSize: 0x20 }
  - { offsetInCU: 0x79523, offset: 0x79523, size: 0x8, addend: 0x0, symName: __ZNSt3__110unique_ptrIN6spdlog7details11B_formatterINS2_13scoped_padderEEENS_14default_deleteIS5_EEE5resetB7v160006EPS5_, symObjAddr: 0x169A0, symBinAddr: 0x100018E90, symSize: 0x70 }
  - { offsetInCU: 0x79567, offset: 0x79567, size: 0x8, addend: 0x0, symName: __ZNKSt3__114default_deleteIN6spdlog7details11B_formatterINS2_13scoped_padderEEEEclB7v160006EPS5_, symObjAddr: 0x16A10, symBinAddr: 0x100018F00, symSize: 0x40 }
  - { offsetInCU: 0x7959B, offset: 0x7959B, size: 0x8, addend: 0x0, symName: __ZN6spdlog7details11c_formatterINS0_13scoped_padderEEC1ENS0_12padding_infoE, symObjAddr: 0x16A50, symBinAddr: 0x100018F40, symSize: 0x30 }
  - { offsetInCU: 0x795D3, offset: 0x795D3, size: 0x8, addend: 0x0, symName: __ZNSt3__110unique_ptrIN6spdlog7details11c_formatterINS2_13scoped_padderEEENS_14default_deleteIS5_EEEC1B7v160006ILb1EvEEPS5_, symObjAddr: 0x16A80, symBinAddr: 0x100018F70, symSize: 0x30 }
  - { offsetInCU: 0x79616, offset: 0x79616, size: 0x8, addend: 0x0, symName: __ZN6spdlog7details11c_formatterINS0_13scoped_padderEEC2ENS0_12padding_infoE, symObjAddr: 0x16AB0, symBinAddr: 0x100018FA0, symSize: 0x60 }
  - { offsetInCU: 0x7964E, offset: 0x7964E, size: 0x8, addend: 0x0, symName: __ZN6spdlog7details11c_formatterINS0_13scoped_padderEED1Ev, symObjAddr: 0x16B10, symBinAddr: 0x100019000, symSize: 0x20 }
  - { offsetInCU: 0x7967A, offset: 0x7967A, size: 0x8, addend: 0x0, symName: __ZN6spdlog7details11c_formatterINS0_13scoped_padderEED0Ev, symObjAddr: 0x16B30, symBinAddr: 0x100019020, symSize: 0x30 }
  - { offsetInCU: 0x796A6, offset: 0x796A6, size: 0x8, addend: 0x0, symName: __ZN6spdlog7details11c_formatterINS0_13scoped_padderEE6formatERKNS0_7log_msgERK2tmRN3fmt3v1119basic_memory_bufferIcLm250ENSt3__19allocatorIcEEEE, symObjAddr: 0x16B60, symBinAddr: 0x100019050, symSize: 0x200 }
  - { offsetInCU: 0x79710, offset: 0x79710, size: 0x8, addend: 0x0, symName: __ZN6spdlog7details11c_formatterINS0_13scoped_padderEED2Ev, symObjAddr: 0x16D60, symBinAddr: 0x100019250, symSize: 0x20 }
  - { offsetInCU: 0x7973C, offset: 0x7973C, size: 0x8, addend: 0x0, symName: __ZNSt3__110unique_ptrIN6spdlog7details11c_formatterINS2_13scoped_padderEEENS_14default_deleteIS5_EEEC2B7v160006ILb1EvEEPS5_, symObjAddr: 0x16D80, symBinAddr: 0x100019270, symSize: 0x40 }
  - { offsetInCU: 0x7977F, offset: 0x7977F, size: 0x8, addend: 0x0, symName: __ZNSt3__117__compressed_pairIPN6spdlog7details11c_formatterINS2_13scoped_padderEEENS_14default_deleteIS5_EEEC1B7v160006IRS6_NS_16__value_init_tagEEEOT_OT0_, symObjAddr: 0x16DC0, symBinAddr: 0x1000192B0, symSize: 0x30 }
  - { offsetInCU: 0x797D7, offset: 0x797D7, size: 0x8, addend: 0x0, symName: __ZNSt3__117__compressed_pairIPN6spdlog7details11c_formatterINS2_13scoped_padderEEENS_14default_deleteIS5_EEEC2B7v160006IRS6_NS_16__value_init_tagEEEOT_OT0_, symObjAddr: 0x16DF0, symBinAddr: 0x1000192E0, symSize: 0x40 }
  - { offsetInCU: 0x7982F, offset: 0x7982F, size: 0x8, addend: 0x0, symName: __ZNSt3__122__compressed_pair_elemIPN6spdlog7details11c_formatterINS2_13scoped_padderEEELi0ELb0EEC2B7v160006IRS6_vEEOT_, symObjAddr: 0x16E30, symBinAddr: 0x100019320, symSize: 0x20 }
  - { offsetInCU: 0x79871, offset: 0x79871, size: 0x8, addend: 0x0, symName: __ZNSt3__122__compressed_pair_elemINS_14default_deleteIN6spdlog7details11c_formatterINS3_13scoped_padderEEEEELi1ELb1EEC2B7v160006ENS_16__value_init_tagE, symObjAddr: 0x16E50, symBinAddr: 0x100019340, symSize: 0x10 }
  - { offsetInCU: 0x798A6, offset: 0x798A6, size: 0x8, addend: 0x0, symName: __ZNSt3__110unique_ptrIN6spdlog7details14flag_formatterENS_14default_deleteIS3_EEEC2B7v160006INS2_11c_formatterINS2_13scoped_padderEEENS4_ISA_EEvvEEONS0_IT_T0_EE, symObjAddr: 0x16E60, symBinAddr: 0x100019350, symSize: 0x60 }
  - { offsetInCU: 0x798F2, offset: 0x798F2, size: 0x8, addend: 0x0, symName: __ZNSt3__110unique_ptrIN6spdlog7details11c_formatterINS2_13scoped_padderEEENS_14default_deleteIS5_EEE7releaseB7v160006Ev, symObjAddr: 0x16EC0, symBinAddr: 0x1000193B0, symSize: 0x40 }
  - { offsetInCU: 0x79927, offset: 0x79927, size: 0x8, addend: 0x0, symName: __ZNSt3__110unique_ptrIN6spdlog7details11c_formatterINS2_13scoped_padderEEENS_14default_deleteIS5_EEE11get_deleterB7v160006Ev, symObjAddr: 0x16F00, symBinAddr: 0x1000193F0, symSize: 0x20 }
  - { offsetInCU: 0x79959, offset: 0x79959, size: 0x8, addend: 0x0, symName: __ZNSt3__117__compressed_pairIPN6spdlog7details14flag_formatterENS_14default_deleteIS3_EEEC1B7v160006IPNS2_11c_formatterINS2_13scoped_padderEEENS5_ISB_EEEEOT_OT0_, symObjAddr: 0x16F20, symBinAddr: 0x100019410, symSize: 0x30 }
  - { offsetInCU: 0x799B1, offset: 0x799B1, size: 0x8, addend: 0x0, symName: __ZNSt3__117__compressed_pairIPN6spdlog7details11c_formatterINS2_13scoped_padderEEENS_14default_deleteIS5_EEE5firstB7v160006Ev, symObjAddr: 0x16F50, symBinAddr: 0x100019440, symSize: 0x20 }
  - { offsetInCU: 0x799D7, offset: 0x799D7, size: 0x8, addend: 0x0, symName: __ZNSt3__122__compressed_pair_elemIPN6spdlog7details11c_formatterINS2_13scoped_padderEEELi0ELb0EE5__getB7v160006Ev, symObjAddr: 0x16F70, symBinAddr: 0x100019460, symSize: 0x10 }
  - { offsetInCU: 0x799FD, offset: 0x799FD, size: 0x8, addend: 0x0, symName: __ZNSt3__117__compressed_pairIPN6spdlog7details11c_formatterINS2_13scoped_padderEEENS_14default_deleteIS5_EEE6secondB7v160006Ev, symObjAddr: 0x16F80, symBinAddr: 0x100019470, symSize: 0x20 }
  - { offsetInCU: 0x79A23, offset: 0x79A23, size: 0x8, addend: 0x0, symName: __ZNSt3__122__compressed_pair_elemINS_14default_deleteIN6spdlog7details11c_formatterINS3_13scoped_padderEEEEELi1ELb1EE5__getB7v160006Ev, symObjAddr: 0x16FA0, symBinAddr: 0x100019490, symSize: 0x10 }
  - { offsetInCU: 0x79A49, offset: 0x79A49, size: 0x8, addend: 0x0, symName: __ZNSt3__117__compressed_pairIPN6spdlog7details14flag_formatterENS_14default_deleteIS3_EEEC2B7v160006IPNS2_11c_formatterINS2_13scoped_padderEEENS5_ISB_EEEEOT_OT0_, symObjAddr: 0x16FB0, symBinAddr: 0x1000194A0, symSize: 0x40 }
  - { offsetInCU: 0x79AA1, offset: 0x79AA1, size: 0x8, addend: 0x0, symName: __ZNSt3__122__compressed_pair_elemIPN6spdlog7details14flag_formatterELi0ELb0EEC2B7v160006IPNS2_11c_formatterINS2_13scoped_padderEEEvEEOT_, symObjAddr: 0x16FF0, symBinAddr: 0x1000194E0, symSize: 0x20 }
  - { offsetInCU: 0x79AE3, offset: 0x79AE3, size: 0x8, addend: 0x0, symName: __ZNSt3__122__compressed_pair_elemINS_14default_deleteIN6spdlog7details14flag_formatterEEELi1ELb1EEC2B7v160006INS1_INS3_11c_formatterINS3_13scoped_padderEEEEEvEEOT_, symObjAddr: 0x17010, symBinAddr: 0x100019500, symSize: 0x30 }
  - { offsetInCU: 0x79B25, offset: 0x79B25, size: 0x8, addend: 0x0, symName: __ZNSt3__114default_deleteIN6spdlog7details14flag_formatterEEC2B7v160006INS2_11c_formatterINS2_13scoped_padderEEEEERKNS0_IT_EEPNS_9enable_ifIXsr14is_convertibleIPS9_PS3_EE5valueEvE4typeE, symObjAddr: 0x17040, symBinAddr: 0x100019530, symSize: 0x20 }
  - { offsetInCU: 0x79B6E, offset: 0x79B6E, size: 0x8, addend: 0x0, symName: __ZNSt3__110unique_ptrIN6spdlog7details11c_formatterINS2_13scoped_padderEEENS_14default_deleteIS5_EEED2B7v160006Ev, symObjAddr: 0x17060, symBinAddr: 0x100019550, symSize: 0x20 }
  - { offsetInCU: 0x79B98, offset: 0x79B98, size: 0x8, addend: 0x0, symName: __ZNSt3__110unique_ptrIN6spdlog7details11c_formatterINS2_13scoped_padderEEENS_14default_deleteIS5_EEE5resetB7v160006EPS5_, symObjAddr: 0x17080, symBinAddr: 0x100019570, symSize: 0x70 }
  - { offsetInCU: 0x79BDC, offset: 0x79BDC, size: 0x8, addend: 0x0, symName: __ZNKSt3__114default_deleteIN6spdlog7details11c_formatterINS2_13scoped_padderEEEEclB7v160006EPS5_, symObjAddr: 0x170F0, symBinAddr: 0x1000195E0, symSize: 0x40 }
  - { offsetInCU: 0x79C10, offset: 0x79C10, size: 0x8, addend: 0x0, symName: __ZN6spdlog7details11C_formatterINS0_13scoped_padderEEC1ENS0_12padding_infoE, symObjAddr: 0x17130, symBinAddr: 0x100019620, symSize: 0x30 }
  - { offsetInCU: 0x79C48, offset: 0x79C48, size: 0x8, addend: 0x0, symName: __ZNSt3__110unique_ptrIN6spdlog7details11C_formatterINS2_13scoped_padderEEENS_14default_deleteIS5_EEEC1B7v160006ILb1EvEEPS5_, symObjAddr: 0x17160, symBinAddr: 0x100019650, symSize: 0x30 }
  - { offsetInCU: 0x79C8B, offset: 0x79C8B, size: 0x8, addend: 0x0, symName: __ZN6spdlog7details11C_formatterINS0_13scoped_padderEEC2ENS0_12padding_infoE, symObjAddr: 0x17190, symBinAddr: 0x100019680, symSize: 0x60 }
  - { offsetInCU: 0x79CC3, offset: 0x79CC3, size: 0x8, addend: 0x0, symName: __ZN6spdlog7details11C_formatterINS0_13scoped_padderEED1Ev, symObjAddr: 0x171F0, symBinAddr: 0x1000196E0, symSize: 0x20 }
  - { offsetInCU: 0x79CEF, offset: 0x79CEF, size: 0x8, addend: 0x0, symName: __ZN6spdlog7details11C_formatterINS0_13scoped_padderEED0Ev, symObjAddr: 0x17210, symBinAddr: 0x100019700, symSize: 0x30 }
  - { offsetInCU: 0x79D1B, offset: 0x79D1B, size: 0x8, addend: 0x0, symName: __ZN6spdlog7details11C_formatterINS0_13scoped_padderEE6formatERKNS0_7log_msgERK2tmRN3fmt3v1119basic_memory_bufferIcLm250ENSt3__19allocatorIcEEEE, symObjAddr: 0x17240, symBinAddr: 0x100019730, symSize: 0xA0 }
  - { offsetInCU: 0x79D85, offset: 0x79D85, size: 0x8, addend: 0x0, symName: __ZN6spdlog7details11C_formatterINS0_13scoped_padderEED2Ev, symObjAddr: 0x172E0, symBinAddr: 0x1000197D0, symSize: 0x20 }
  - { offsetInCU: 0x79DB1, offset: 0x79DB1, size: 0x8, addend: 0x0, symName: __ZNSt3__110unique_ptrIN6spdlog7details11C_formatterINS2_13scoped_padderEEENS_14default_deleteIS5_EEEC2B7v160006ILb1EvEEPS5_, symObjAddr: 0x17300, symBinAddr: 0x1000197F0, symSize: 0x40 }
  - { offsetInCU: 0x79DF4, offset: 0x79DF4, size: 0x8, addend: 0x0, symName: __ZNSt3__117__compressed_pairIPN6spdlog7details11C_formatterINS2_13scoped_padderEEENS_14default_deleteIS5_EEEC1B7v160006IRS6_NS_16__value_init_tagEEEOT_OT0_, symObjAddr: 0x17340, symBinAddr: 0x100019830, symSize: 0x30 }
  - { offsetInCU: 0x79E4C, offset: 0x79E4C, size: 0x8, addend: 0x0, symName: __ZNSt3__117__compressed_pairIPN6spdlog7details11C_formatterINS2_13scoped_padderEEENS_14default_deleteIS5_EEEC2B7v160006IRS6_NS_16__value_init_tagEEEOT_OT0_, symObjAddr: 0x17370, symBinAddr: 0x100019860, symSize: 0x40 }
  - { offsetInCU: 0x79EA4, offset: 0x79EA4, size: 0x8, addend: 0x0, symName: __ZNSt3__122__compressed_pair_elemIPN6spdlog7details11C_formatterINS2_13scoped_padderEEELi0ELb0EEC2B7v160006IRS6_vEEOT_, symObjAddr: 0x173B0, symBinAddr: 0x1000198A0, symSize: 0x20 }
  - { offsetInCU: 0x79EE6, offset: 0x79EE6, size: 0x8, addend: 0x0, symName: __ZNSt3__122__compressed_pair_elemINS_14default_deleteIN6spdlog7details11C_formatterINS3_13scoped_padderEEEEELi1ELb1EEC2B7v160006ENS_16__value_init_tagE, symObjAddr: 0x173D0, symBinAddr: 0x1000198C0, symSize: 0x10 }
  - { offsetInCU: 0x79F1B, offset: 0x79F1B, size: 0x8, addend: 0x0, symName: __ZNSt3__110unique_ptrIN6spdlog7details14flag_formatterENS_14default_deleteIS3_EEEC2B7v160006INS2_11C_formatterINS2_13scoped_padderEEENS4_ISA_EEvvEEONS0_IT_T0_EE, symObjAddr: 0x173E0, symBinAddr: 0x1000198D0, symSize: 0x60 }
  - { offsetInCU: 0x79F67, offset: 0x79F67, size: 0x8, addend: 0x0, symName: __ZNSt3__110unique_ptrIN6spdlog7details11C_formatterINS2_13scoped_padderEEENS_14default_deleteIS5_EEE7releaseB7v160006Ev, symObjAddr: 0x17440, symBinAddr: 0x100019930, symSize: 0x40 }
  - { offsetInCU: 0x79F9C, offset: 0x79F9C, size: 0x8, addend: 0x0, symName: __ZNSt3__110unique_ptrIN6spdlog7details11C_formatterINS2_13scoped_padderEEENS_14default_deleteIS5_EEE11get_deleterB7v160006Ev, symObjAddr: 0x17480, symBinAddr: 0x100019970, symSize: 0x20 }
  - { offsetInCU: 0x79FCE, offset: 0x79FCE, size: 0x8, addend: 0x0, symName: __ZNSt3__117__compressed_pairIPN6spdlog7details14flag_formatterENS_14default_deleteIS3_EEEC1B7v160006IPNS2_11C_formatterINS2_13scoped_padderEEENS5_ISB_EEEEOT_OT0_, symObjAddr: 0x174A0, symBinAddr: 0x100019990, symSize: 0x30 }
  - { offsetInCU: 0x7A026, offset: 0x7A026, size: 0x8, addend: 0x0, symName: __ZNSt3__117__compressed_pairIPN6spdlog7details11C_formatterINS2_13scoped_padderEEENS_14default_deleteIS5_EEE5firstB7v160006Ev, symObjAddr: 0x174D0, symBinAddr: 0x1000199C0, symSize: 0x20 }
  - { offsetInCU: 0x7A04C, offset: 0x7A04C, size: 0x8, addend: 0x0, symName: __ZNSt3__122__compressed_pair_elemIPN6spdlog7details11C_formatterINS2_13scoped_padderEEELi0ELb0EE5__getB7v160006Ev, symObjAddr: 0x174F0, symBinAddr: 0x1000199E0, symSize: 0x10 }
  - { offsetInCU: 0x7A072, offset: 0x7A072, size: 0x8, addend: 0x0, symName: __ZNSt3__117__compressed_pairIPN6spdlog7details11C_formatterINS2_13scoped_padderEEENS_14default_deleteIS5_EEE6secondB7v160006Ev, symObjAddr: 0x17500, symBinAddr: 0x1000199F0, symSize: 0x20 }
  - { offsetInCU: 0x7A098, offset: 0x7A098, size: 0x8, addend: 0x0, symName: __ZNSt3__122__compressed_pair_elemINS_14default_deleteIN6spdlog7details11C_formatterINS3_13scoped_padderEEEEELi1ELb1EE5__getB7v160006Ev, symObjAddr: 0x17520, symBinAddr: 0x100019A10, symSize: 0x10 }
  - { offsetInCU: 0x7A0BE, offset: 0x7A0BE, size: 0x8, addend: 0x0, symName: __ZNSt3__117__compressed_pairIPN6spdlog7details14flag_formatterENS_14default_deleteIS3_EEEC2B7v160006IPNS2_11C_formatterINS2_13scoped_padderEEENS5_ISB_EEEEOT_OT0_, symObjAddr: 0x17530, symBinAddr: 0x100019A20, symSize: 0x40 }
  - { offsetInCU: 0x7A116, offset: 0x7A116, size: 0x8, addend: 0x0, symName: __ZNSt3__122__compressed_pair_elemIPN6spdlog7details14flag_formatterELi0ELb0EEC2B7v160006IPNS2_11C_formatterINS2_13scoped_padderEEEvEEOT_, symObjAddr: 0x17570, symBinAddr: 0x100019A60, symSize: 0x20 }
  - { offsetInCU: 0x7A158, offset: 0x7A158, size: 0x8, addend: 0x0, symName: __ZNSt3__122__compressed_pair_elemINS_14default_deleteIN6spdlog7details14flag_formatterEEELi1ELb1EEC2B7v160006INS1_INS3_11C_formatterINS3_13scoped_padderEEEEEvEEOT_, symObjAddr: 0x17590, symBinAddr: 0x100019A80, symSize: 0x30 }
  - { offsetInCU: 0x7A19A, offset: 0x7A19A, size: 0x8, addend: 0x0, symName: __ZNSt3__114default_deleteIN6spdlog7details14flag_formatterEEC2B7v160006INS2_11C_formatterINS2_13scoped_padderEEEEERKNS0_IT_EEPNS_9enable_ifIXsr14is_convertibleIPS9_PS3_EE5valueEvE4typeE, symObjAddr: 0x175C0, symBinAddr: 0x100019AB0, symSize: 0x20 }
  - { offsetInCU: 0x7A1E3, offset: 0x7A1E3, size: 0x8, addend: 0x0, symName: __ZNSt3__110unique_ptrIN6spdlog7details11C_formatterINS2_13scoped_padderEEENS_14default_deleteIS5_EEED2B7v160006Ev, symObjAddr: 0x175E0, symBinAddr: 0x100019AD0, symSize: 0x20 }
  - { offsetInCU: 0x7A20D, offset: 0x7A20D, size: 0x8, addend: 0x0, symName: __ZNSt3__110unique_ptrIN6spdlog7details11C_formatterINS2_13scoped_padderEEENS_14default_deleteIS5_EEE5resetB7v160006EPS5_, symObjAddr: 0x17600, symBinAddr: 0x100019AF0, symSize: 0x70 }
  - { offsetInCU: 0x7A251, offset: 0x7A251, size: 0x8, addend: 0x0, symName: __ZNKSt3__114default_deleteIN6spdlog7details11C_formatterINS2_13scoped_padderEEEEclB7v160006EPS5_, symObjAddr: 0x17670, symBinAddr: 0x100019B60, symSize: 0x40 }
  - { offsetInCU: 0x7A285, offset: 0x7A285, size: 0x8, addend: 0x0, symName: __ZN6spdlog7details11Y_formatterINS0_13scoped_padderEEC1ENS0_12padding_infoE, symObjAddr: 0x176B0, symBinAddr: 0x100019BA0, symSize: 0x30 }
  - { offsetInCU: 0x7A2BE, offset: 0x7A2BE, size: 0x8, addend: 0x0, symName: __ZNSt3__110unique_ptrIN6spdlog7details11Y_formatterINS2_13scoped_padderEEENS_14default_deleteIS5_EEEC1B7v160006ILb1EvEEPS5_, symObjAddr: 0x176E0, symBinAddr: 0x100019BD0, symSize: 0x30 }
  - { offsetInCU: 0x7A301, offset: 0x7A301, size: 0x8, addend: 0x0, symName: __ZN6spdlog7details11Y_formatterINS0_13scoped_padderEEC2ENS0_12padding_infoE, symObjAddr: 0x17710, symBinAddr: 0x100019C00, symSize: 0x60 }
  - { offsetInCU: 0x7A33A, offset: 0x7A33A, size: 0x8, addend: 0x0, symName: __ZN6spdlog7details11Y_formatterINS0_13scoped_padderEED1Ev, symObjAddr: 0x17770, symBinAddr: 0x100019C60, symSize: 0x20 }
  - { offsetInCU: 0x7A367, offset: 0x7A367, size: 0x8, addend: 0x0, symName: __ZN6spdlog7details11Y_formatterINS0_13scoped_padderEED0Ev, symObjAddr: 0x17790, symBinAddr: 0x100019C80, symSize: 0x30 }
  - { offsetInCU: 0x7A394, offset: 0x7A394, size: 0x8, addend: 0x0, symName: __ZN6spdlog7details11Y_formatterINS0_13scoped_padderEE6formatERKNS0_7log_msgERK2tmRN3fmt3v1119basic_memory_bufferIcLm250ENSt3__19allocatorIcEEEE, symObjAddr: 0x177C0, symBinAddr: 0x100019CB0, symSize: 0x90 }
  - { offsetInCU: 0x7A403, offset: 0x7A403, size: 0x8, addend: 0x0, symName: __ZN6spdlog7details11Y_formatterINS0_13scoped_padderEED2Ev, symObjAddr: 0x17850, symBinAddr: 0x100019D40, symSize: 0x20 }
  - { offsetInCU: 0x7A430, offset: 0x7A430, size: 0x8, addend: 0x0, symName: __ZNSt3__110unique_ptrIN6spdlog7details11Y_formatterINS2_13scoped_padderEEENS_14default_deleteIS5_EEEC2B7v160006ILb1EvEEPS5_, symObjAddr: 0x17870, symBinAddr: 0x100019D60, symSize: 0x40 }
  - { offsetInCU: 0x7A473, offset: 0x7A473, size: 0x8, addend: 0x0, symName: __ZNSt3__117__compressed_pairIPN6spdlog7details11Y_formatterINS2_13scoped_padderEEENS_14default_deleteIS5_EEEC1B7v160006IRS6_NS_16__value_init_tagEEEOT_OT0_, symObjAddr: 0x178B0, symBinAddr: 0x100019DA0, symSize: 0x30 }
  - { offsetInCU: 0x7A4CB, offset: 0x7A4CB, size: 0x8, addend: 0x0, symName: __ZNSt3__117__compressed_pairIPN6spdlog7details11Y_formatterINS2_13scoped_padderEEENS_14default_deleteIS5_EEEC2B7v160006IRS6_NS_16__value_init_tagEEEOT_OT0_, symObjAddr: 0x178E0, symBinAddr: 0x100019DD0, symSize: 0x40 }
  - { offsetInCU: 0x7A523, offset: 0x7A523, size: 0x8, addend: 0x0, symName: __ZNSt3__122__compressed_pair_elemIPN6spdlog7details11Y_formatterINS2_13scoped_padderEEELi0ELb0EEC2B7v160006IRS6_vEEOT_, symObjAddr: 0x17920, symBinAddr: 0x100019E10, symSize: 0x20 }
  - { offsetInCU: 0x7A565, offset: 0x7A565, size: 0x8, addend: 0x0, symName: __ZNSt3__122__compressed_pair_elemINS_14default_deleteIN6spdlog7details11Y_formatterINS3_13scoped_padderEEEEELi1ELb1EEC2B7v160006ENS_16__value_init_tagE, symObjAddr: 0x17940, symBinAddr: 0x100019E30, symSize: 0x10 }
  - { offsetInCU: 0x7A59A, offset: 0x7A59A, size: 0x8, addend: 0x0, symName: __ZNSt3__110unique_ptrIN6spdlog7details14flag_formatterENS_14default_deleteIS3_EEEC2B7v160006INS2_11Y_formatterINS2_13scoped_padderEEENS4_ISA_EEvvEEONS0_IT_T0_EE, symObjAddr: 0x17950, symBinAddr: 0x100019E40, symSize: 0x60 }
  - { offsetInCU: 0x7A5E6, offset: 0x7A5E6, size: 0x8, addend: 0x0, symName: __ZNSt3__110unique_ptrIN6spdlog7details11Y_formatterINS2_13scoped_padderEEENS_14default_deleteIS5_EEE7releaseB7v160006Ev, symObjAddr: 0x179B0, symBinAddr: 0x100019EA0, symSize: 0x40 }
  - { offsetInCU: 0x7A61B, offset: 0x7A61B, size: 0x8, addend: 0x0, symName: __ZNSt3__110unique_ptrIN6spdlog7details11Y_formatterINS2_13scoped_padderEEENS_14default_deleteIS5_EEE11get_deleterB7v160006Ev, symObjAddr: 0x179F0, symBinAddr: 0x100019EE0, symSize: 0x20 }
  - { offsetInCU: 0x7A64D, offset: 0x7A64D, size: 0x8, addend: 0x0, symName: __ZNSt3__117__compressed_pairIPN6spdlog7details14flag_formatterENS_14default_deleteIS3_EEEC1B7v160006IPNS2_11Y_formatterINS2_13scoped_padderEEENS5_ISB_EEEEOT_OT0_, symObjAddr: 0x17A10, symBinAddr: 0x100019F00, symSize: 0x30 }
  - { offsetInCU: 0x7A6A5, offset: 0x7A6A5, size: 0x8, addend: 0x0, symName: __ZNSt3__117__compressed_pairIPN6spdlog7details11Y_formatterINS2_13scoped_padderEEENS_14default_deleteIS5_EEE5firstB7v160006Ev, symObjAddr: 0x17A40, symBinAddr: 0x100019F30, symSize: 0x20 }
  - { offsetInCU: 0x7A6CB, offset: 0x7A6CB, size: 0x8, addend: 0x0, symName: __ZNSt3__122__compressed_pair_elemIPN6spdlog7details11Y_formatterINS2_13scoped_padderEEELi0ELb0EE5__getB7v160006Ev, symObjAddr: 0x17A60, symBinAddr: 0x100019F50, symSize: 0x10 }
  - { offsetInCU: 0x7A6F1, offset: 0x7A6F1, size: 0x8, addend: 0x0, symName: __ZNSt3__117__compressed_pairIPN6spdlog7details11Y_formatterINS2_13scoped_padderEEENS_14default_deleteIS5_EEE6secondB7v160006Ev, symObjAddr: 0x17A70, symBinAddr: 0x100019F60, symSize: 0x20 }
  - { offsetInCU: 0x7A717, offset: 0x7A717, size: 0x8, addend: 0x0, symName: __ZNSt3__122__compressed_pair_elemINS_14default_deleteIN6spdlog7details11Y_formatterINS3_13scoped_padderEEEEELi1ELb1EE5__getB7v160006Ev, symObjAddr: 0x17A90, symBinAddr: 0x100019F80, symSize: 0x10 }
  - { offsetInCU: 0x7A73D, offset: 0x7A73D, size: 0x8, addend: 0x0, symName: __ZNSt3__117__compressed_pairIPN6spdlog7details14flag_formatterENS_14default_deleteIS3_EEEC2B7v160006IPNS2_11Y_formatterINS2_13scoped_padderEEENS5_ISB_EEEEOT_OT0_, symObjAddr: 0x17AA0, symBinAddr: 0x100019F90, symSize: 0x40 }
  - { offsetInCU: 0x7A795, offset: 0x7A795, size: 0x8, addend: 0x0, symName: __ZNSt3__122__compressed_pair_elemIPN6spdlog7details14flag_formatterELi0ELb0EEC2B7v160006IPNS2_11Y_formatterINS2_13scoped_padderEEEvEEOT_, symObjAddr: 0x17AE0, symBinAddr: 0x100019FD0, symSize: 0x20 }
  - { offsetInCU: 0x7A7D7, offset: 0x7A7D7, size: 0x8, addend: 0x0, symName: __ZNSt3__122__compressed_pair_elemINS_14default_deleteIN6spdlog7details14flag_formatterEEELi1ELb1EEC2B7v160006INS1_INS3_11Y_formatterINS3_13scoped_padderEEEEEvEEOT_, symObjAddr: 0x17B00, symBinAddr: 0x100019FF0, symSize: 0x30 }
  - { offsetInCU: 0x7A819, offset: 0x7A819, size: 0x8, addend: 0x0, symName: __ZNSt3__114default_deleteIN6spdlog7details14flag_formatterEEC2B7v160006INS2_11Y_formatterINS2_13scoped_padderEEEEERKNS0_IT_EEPNS_9enable_ifIXsr14is_convertibleIPS9_PS3_EE5valueEvE4typeE, symObjAddr: 0x17B30, symBinAddr: 0x10001A020, symSize: 0x20 }
  - { offsetInCU: 0x7A862, offset: 0x7A862, size: 0x8, addend: 0x0, symName: __ZNSt3__110unique_ptrIN6spdlog7details11Y_formatterINS2_13scoped_padderEEENS_14default_deleteIS5_EEED2B7v160006Ev, symObjAddr: 0x17B50, symBinAddr: 0x10001A040, symSize: 0x20 }
  - { offsetInCU: 0x7A88C, offset: 0x7A88C, size: 0x8, addend: 0x0, symName: __ZNSt3__110unique_ptrIN6spdlog7details11Y_formatterINS2_13scoped_padderEEENS_14default_deleteIS5_EEE5resetB7v160006EPS5_, symObjAddr: 0x17B70, symBinAddr: 0x10001A060, symSize: 0x70 }
  - { offsetInCU: 0x7A8D0, offset: 0x7A8D0, size: 0x8, addend: 0x0, symName: __ZNKSt3__114default_deleteIN6spdlog7details11Y_formatterINS2_13scoped_padderEEEEclB7v160006EPS5_, symObjAddr: 0x17BE0, symBinAddr: 0x10001A0D0, symSize: 0x40 }
  - { offsetInCU: 0x7A904, offset: 0x7A904, size: 0x8, addend: 0x0, symName: __ZN6spdlog7details11D_formatterINS0_13scoped_padderEEC1ENS0_12padding_infoE, symObjAddr: 0x17C20, symBinAddr: 0x10001A110, symSize: 0x30 }
  - { offsetInCU: 0x7A93D, offset: 0x7A93D, size: 0x8, addend: 0x0, symName: __ZNSt3__110unique_ptrIN6spdlog7details11D_formatterINS2_13scoped_padderEEENS_14default_deleteIS5_EEEC1B7v160006ILb1EvEEPS5_, symObjAddr: 0x17C50, symBinAddr: 0x10001A140, symSize: 0x30 }
  - { offsetInCU: 0x7A980, offset: 0x7A980, size: 0x8, addend: 0x0, symName: __ZN6spdlog7details11D_formatterINS0_13scoped_padderEEC2ENS0_12padding_infoE, symObjAddr: 0x17C80, symBinAddr: 0x10001A170, symSize: 0x60 }
  - { offsetInCU: 0x7A9B9, offset: 0x7A9B9, size: 0x8, addend: 0x0, symName: __ZN6spdlog7details11D_formatterINS0_13scoped_padderEED1Ev, symObjAddr: 0x17CE0, symBinAddr: 0x10001A1D0, symSize: 0x20 }
  - { offsetInCU: 0x7A9E6, offset: 0x7A9E6, size: 0x8, addend: 0x0, symName: __ZN6spdlog7details11D_formatterINS0_13scoped_padderEED0Ev, symObjAddr: 0x17D00, symBinAddr: 0x10001A1F0, symSize: 0x30 }
  - { offsetInCU: 0x7AA13, offset: 0x7AA13, size: 0x8, addend: 0x0, symName: __ZN6spdlog7details11D_formatterINS0_13scoped_padderEE6formatERKNS0_7log_msgERK2tmRN3fmt3v1119basic_memory_bufferIcLm250ENSt3__19allocatorIcEEEE, symObjAddr: 0x17D30, symBinAddr: 0x10001A220, symSize: 0xF0 }
  - { offsetInCU: 0x7AA82, offset: 0x7AA82, size: 0x8, addend: 0x0, symName: __ZN6spdlog7details11D_formatterINS0_13scoped_padderEED2Ev, symObjAddr: 0x17E20, symBinAddr: 0x10001A310, symSize: 0x20 }
  - { offsetInCU: 0x7AAAF, offset: 0x7AAAF, size: 0x8, addend: 0x0, symName: __ZNSt3__110unique_ptrIN6spdlog7details11D_formatterINS2_13scoped_padderEEENS_14default_deleteIS5_EEEC2B7v160006ILb1EvEEPS5_, symObjAddr: 0x17E40, symBinAddr: 0x10001A330, symSize: 0x40 }
  - { offsetInCU: 0x7AAF2, offset: 0x7AAF2, size: 0x8, addend: 0x0, symName: __ZNSt3__117__compressed_pairIPN6spdlog7details11D_formatterINS2_13scoped_padderEEENS_14default_deleteIS5_EEEC1B7v160006IRS6_NS_16__value_init_tagEEEOT_OT0_, symObjAddr: 0x17E80, symBinAddr: 0x10001A370, symSize: 0x30 }
  - { offsetInCU: 0x7AB4A, offset: 0x7AB4A, size: 0x8, addend: 0x0, symName: __ZNSt3__117__compressed_pairIPN6spdlog7details11D_formatterINS2_13scoped_padderEEENS_14default_deleteIS5_EEEC2B7v160006IRS6_NS_16__value_init_tagEEEOT_OT0_, symObjAddr: 0x17EB0, symBinAddr: 0x10001A3A0, symSize: 0x40 }
  - { offsetInCU: 0x7ABA2, offset: 0x7ABA2, size: 0x8, addend: 0x0, symName: __ZNSt3__122__compressed_pair_elemIPN6spdlog7details11D_formatterINS2_13scoped_padderEEELi0ELb0EEC2B7v160006IRS6_vEEOT_, symObjAddr: 0x17EF0, symBinAddr: 0x10001A3E0, symSize: 0x20 }
  - { offsetInCU: 0x7ABE4, offset: 0x7ABE4, size: 0x8, addend: 0x0, symName: __ZNSt3__122__compressed_pair_elemINS_14default_deleteIN6spdlog7details11D_formatterINS3_13scoped_padderEEEEELi1ELb1EEC2B7v160006ENS_16__value_init_tagE, symObjAddr: 0x17F10, symBinAddr: 0x10001A400, symSize: 0x10 }
  - { offsetInCU: 0x7AC19, offset: 0x7AC19, size: 0x8, addend: 0x0, symName: __ZNSt3__110unique_ptrIN6spdlog7details14flag_formatterENS_14default_deleteIS3_EEEC2B7v160006INS2_11D_formatterINS2_13scoped_padderEEENS4_ISA_EEvvEEONS0_IT_T0_EE, symObjAddr: 0x17F20, symBinAddr: 0x10001A410, symSize: 0x60 }
  - { offsetInCU: 0x7AC65, offset: 0x7AC65, size: 0x8, addend: 0x0, symName: __ZNSt3__110unique_ptrIN6spdlog7details11D_formatterINS2_13scoped_padderEEENS_14default_deleteIS5_EEE7releaseB7v160006Ev, symObjAddr: 0x17F80, symBinAddr: 0x10001A470, symSize: 0x40 }
  - { offsetInCU: 0x7AC9A, offset: 0x7AC9A, size: 0x8, addend: 0x0, symName: __ZNSt3__110unique_ptrIN6spdlog7details11D_formatterINS2_13scoped_padderEEENS_14default_deleteIS5_EEE11get_deleterB7v160006Ev, symObjAddr: 0x17FC0, symBinAddr: 0x10001A4B0, symSize: 0x20 }
  - { offsetInCU: 0x7ACCC, offset: 0x7ACCC, size: 0x8, addend: 0x0, symName: __ZNSt3__117__compressed_pairIPN6spdlog7details14flag_formatterENS_14default_deleteIS3_EEEC1B7v160006IPNS2_11D_formatterINS2_13scoped_padderEEENS5_ISB_EEEEOT_OT0_, symObjAddr: 0x17FE0, symBinAddr: 0x10001A4D0, symSize: 0x30 }
  - { offsetInCU: 0x7AD24, offset: 0x7AD24, size: 0x8, addend: 0x0, symName: __ZNSt3__117__compressed_pairIPN6spdlog7details11D_formatterINS2_13scoped_padderEEENS_14default_deleteIS5_EEE5firstB7v160006Ev, symObjAddr: 0x18010, symBinAddr: 0x10001A500, symSize: 0x20 }
  - { offsetInCU: 0x7AD4A, offset: 0x7AD4A, size: 0x8, addend: 0x0, symName: __ZNSt3__122__compressed_pair_elemIPN6spdlog7details11D_formatterINS2_13scoped_padderEEELi0ELb0EE5__getB7v160006Ev, symObjAddr: 0x18030, symBinAddr: 0x10001A520, symSize: 0x10 }
  - { offsetInCU: 0x7AD70, offset: 0x7AD70, size: 0x8, addend: 0x0, symName: __ZNSt3__117__compressed_pairIPN6spdlog7details11D_formatterINS2_13scoped_padderEEENS_14default_deleteIS5_EEE6secondB7v160006Ev, symObjAddr: 0x18040, symBinAddr: 0x10001A530, symSize: 0x20 }
  - { offsetInCU: 0x7AD96, offset: 0x7AD96, size: 0x8, addend: 0x0, symName: __ZNSt3__122__compressed_pair_elemINS_14default_deleteIN6spdlog7details11D_formatterINS3_13scoped_padderEEEEELi1ELb1EE5__getB7v160006Ev, symObjAddr: 0x18060, symBinAddr: 0x10001A550, symSize: 0x10 }
  - { offsetInCU: 0x7ADBC, offset: 0x7ADBC, size: 0x8, addend: 0x0, symName: __ZNSt3__117__compressed_pairIPN6spdlog7details14flag_formatterENS_14default_deleteIS3_EEEC2B7v160006IPNS2_11D_formatterINS2_13scoped_padderEEENS5_ISB_EEEEOT_OT0_, symObjAddr: 0x18070, symBinAddr: 0x10001A560, symSize: 0x40 }
  - { offsetInCU: 0x7AE14, offset: 0x7AE14, size: 0x8, addend: 0x0, symName: __ZNSt3__122__compressed_pair_elemIPN6spdlog7details14flag_formatterELi0ELb0EEC2B7v160006IPNS2_11D_formatterINS2_13scoped_padderEEEvEEOT_, symObjAddr: 0x180B0, symBinAddr: 0x10001A5A0, symSize: 0x20 }
  - { offsetInCU: 0x7AE56, offset: 0x7AE56, size: 0x8, addend: 0x0, symName: __ZNSt3__122__compressed_pair_elemINS_14default_deleteIN6spdlog7details14flag_formatterEEELi1ELb1EEC2B7v160006INS1_INS3_11D_formatterINS3_13scoped_padderEEEEEvEEOT_, symObjAddr: 0x180D0, symBinAddr: 0x10001A5C0, symSize: 0x30 }
  - { offsetInCU: 0x7AE98, offset: 0x7AE98, size: 0x8, addend: 0x0, symName: __ZNSt3__114default_deleteIN6spdlog7details14flag_formatterEEC2B7v160006INS2_11D_formatterINS2_13scoped_padderEEEEERKNS0_IT_EEPNS_9enable_ifIXsr14is_convertibleIPS9_PS3_EE5valueEvE4typeE, symObjAddr: 0x18100, symBinAddr: 0x10001A5F0, symSize: 0x20 }
  - { offsetInCU: 0x7AEE1, offset: 0x7AEE1, size: 0x8, addend: 0x0, symName: __ZNSt3__110unique_ptrIN6spdlog7details11D_formatterINS2_13scoped_padderEEENS_14default_deleteIS5_EEED2B7v160006Ev, symObjAddr: 0x18120, symBinAddr: 0x10001A610, symSize: 0x20 }
  - { offsetInCU: 0x7AF0B, offset: 0x7AF0B, size: 0x8, addend: 0x0, symName: __ZNSt3__110unique_ptrIN6spdlog7details11D_formatterINS2_13scoped_padderEEENS_14default_deleteIS5_EEE5resetB7v160006EPS5_, symObjAddr: 0x18140, symBinAddr: 0x10001A630, symSize: 0x70 }
  - { offsetInCU: 0x7AF4F, offset: 0x7AF4F, size: 0x8, addend: 0x0, symName: __ZNKSt3__114default_deleteIN6spdlog7details11D_formatterINS2_13scoped_padderEEEEclB7v160006EPS5_, symObjAddr: 0x181B0, symBinAddr: 0x10001A6A0, symSize: 0x40 }
  - { offsetInCU: 0x7AF83, offset: 0x7AF83, size: 0x8, addend: 0x0, symName: __ZN6spdlog7details11m_formatterINS0_13scoped_padderEEC1ENS0_12padding_infoE, symObjAddr: 0x181F0, symBinAddr: 0x10001A6E0, symSize: 0x30 }
  - { offsetInCU: 0x7AFBC, offset: 0x7AFBC, size: 0x8, addend: 0x0, symName: __ZNSt3__110unique_ptrIN6spdlog7details11m_formatterINS2_13scoped_padderEEENS_14default_deleteIS5_EEEC1B7v160006ILb1EvEEPS5_, symObjAddr: 0x18220, symBinAddr: 0x10001A710, symSize: 0x30 }
  - { offsetInCU: 0x7AFFF, offset: 0x7AFFF, size: 0x8, addend: 0x0, symName: __ZN6spdlog7details11m_formatterINS0_13scoped_padderEEC2ENS0_12padding_infoE, symObjAddr: 0x18250, symBinAddr: 0x10001A740, symSize: 0x60 }
  - { offsetInCU: 0x7B038, offset: 0x7B038, size: 0x8, addend: 0x0, symName: __ZN6spdlog7details11m_formatterINS0_13scoped_padderEED1Ev, symObjAddr: 0x182B0, symBinAddr: 0x10001A7A0, symSize: 0x20 }
  - { offsetInCU: 0x7B065, offset: 0x7B065, size: 0x8, addend: 0x0, symName: __ZN6spdlog7details11m_formatterINS0_13scoped_padderEED0Ev, symObjAddr: 0x182D0, symBinAddr: 0x10001A7C0, symSize: 0x30 }
  - { offsetInCU: 0x7B092, offset: 0x7B092, size: 0x8, addend: 0x0, symName: __ZN6spdlog7details11m_formatterINS0_13scoped_padderEE6formatERKNS0_7log_msgERK2tmRN3fmt3v1119basic_memory_bufferIcLm250ENSt3__19allocatorIcEEEE, symObjAddr: 0x18300, symBinAddr: 0x10001A7F0, symSize: 0x80 }
  - { offsetInCU: 0x7B101, offset: 0x7B101, size: 0x8, addend: 0x0, symName: __ZN6spdlog7details11m_formatterINS0_13scoped_padderEED2Ev, symObjAddr: 0x18380, symBinAddr: 0x10001A870, symSize: 0x20 }
  - { offsetInCU: 0x7B12E, offset: 0x7B12E, size: 0x8, addend: 0x0, symName: __ZNSt3__110unique_ptrIN6spdlog7details11m_formatterINS2_13scoped_padderEEENS_14default_deleteIS5_EEEC2B7v160006ILb1EvEEPS5_, symObjAddr: 0x183A0, symBinAddr: 0x10001A890, symSize: 0x40 }
  - { offsetInCU: 0x7B171, offset: 0x7B171, size: 0x8, addend: 0x0, symName: __ZNSt3__117__compressed_pairIPN6spdlog7details11m_formatterINS2_13scoped_padderEEENS_14default_deleteIS5_EEEC1B7v160006IRS6_NS_16__value_init_tagEEEOT_OT0_, symObjAddr: 0x183E0, symBinAddr: 0x10001A8D0, symSize: 0x30 }
  - { offsetInCU: 0x7B1C9, offset: 0x7B1C9, size: 0x8, addend: 0x0, symName: __ZNSt3__117__compressed_pairIPN6spdlog7details11m_formatterINS2_13scoped_padderEEENS_14default_deleteIS5_EEEC2B7v160006IRS6_NS_16__value_init_tagEEEOT_OT0_, symObjAddr: 0x18410, symBinAddr: 0x10001A900, symSize: 0x40 }
  - { offsetInCU: 0x7B221, offset: 0x7B221, size: 0x8, addend: 0x0, symName: __ZNSt3__122__compressed_pair_elemIPN6spdlog7details11m_formatterINS2_13scoped_padderEEELi0ELb0EEC2B7v160006IRS6_vEEOT_, symObjAddr: 0x18450, symBinAddr: 0x10001A940, symSize: 0x20 }
  - { offsetInCU: 0x7B263, offset: 0x7B263, size: 0x8, addend: 0x0, symName: __ZNSt3__122__compressed_pair_elemINS_14default_deleteIN6spdlog7details11m_formatterINS3_13scoped_padderEEEEELi1ELb1EEC2B7v160006ENS_16__value_init_tagE, symObjAddr: 0x18470, symBinAddr: 0x10001A960, symSize: 0x10 }
  - { offsetInCU: 0x7B298, offset: 0x7B298, size: 0x8, addend: 0x0, symName: __ZNSt3__110unique_ptrIN6spdlog7details14flag_formatterENS_14default_deleteIS3_EEEC2B7v160006INS2_11m_formatterINS2_13scoped_padderEEENS4_ISA_EEvvEEONS0_IT_T0_EE, symObjAddr: 0x18480, symBinAddr: 0x10001A970, symSize: 0x60 }
  - { offsetInCU: 0x7B2E4, offset: 0x7B2E4, size: 0x8, addend: 0x0, symName: __ZNSt3__110unique_ptrIN6spdlog7details11m_formatterINS2_13scoped_padderEEENS_14default_deleteIS5_EEE7releaseB7v160006Ev, symObjAddr: 0x184E0, symBinAddr: 0x10001A9D0, symSize: 0x40 }
  - { offsetInCU: 0x7B319, offset: 0x7B319, size: 0x8, addend: 0x0, symName: __ZNSt3__110unique_ptrIN6spdlog7details11m_formatterINS2_13scoped_padderEEENS_14default_deleteIS5_EEE11get_deleterB7v160006Ev, symObjAddr: 0x18520, symBinAddr: 0x10001AA10, symSize: 0x20 }
  - { offsetInCU: 0x7B34B, offset: 0x7B34B, size: 0x8, addend: 0x0, symName: __ZNSt3__117__compressed_pairIPN6spdlog7details14flag_formatterENS_14default_deleteIS3_EEEC1B7v160006IPNS2_11m_formatterINS2_13scoped_padderEEENS5_ISB_EEEEOT_OT0_, symObjAddr: 0x18540, symBinAddr: 0x10001AA30, symSize: 0x30 }
  - { offsetInCU: 0x7B3A3, offset: 0x7B3A3, size: 0x8, addend: 0x0, symName: __ZNSt3__117__compressed_pairIPN6spdlog7details11m_formatterINS2_13scoped_padderEEENS_14default_deleteIS5_EEE5firstB7v160006Ev, symObjAddr: 0x18570, symBinAddr: 0x10001AA60, symSize: 0x20 }
  - { offsetInCU: 0x7B3C9, offset: 0x7B3C9, size: 0x8, addend: 0x0, symName: __ZNSt3__122__compressed_pair_elemIPN6spdlog7details11m_formatterINS2_13scoped_padderEEELi0ELb0EE5__getB7v160006Ev, symObjAddr: 0x18590, symBinAddr: 0x10001AA80, symSize: 0x10 }
  - { offsetInCU: 0x7B3EF, offset: 0x7B3EF, size: 0x8, addend: 0x0, symName: __ZNSt3__117__compressed_pairIPN6spdlog7details11m_formatterINS2_13scoped_padderEEENS_14default_deleteIS5_EEE6secondB7v160006Ev, symObjAddr: 0x185A0, symBinAddr: 0x10001AA90, symSize: 0x20 }
  - { offsetInCU: 0x7B415, offset: 0x7B415, size: 0x8, addend: 0x0, symName: __ZNSt3__122__compressed_pair_elemINS_14default_deleteIN6spdlog7details11m_formatterINS3_13scoped_padderEEEEELi1ELb1EE5__getB7v160006Ev, symObjAddr: 0x185C0, symBinAddr: 0x10001AAB0, symSize: 0x10 }
  - { offsetInCU: 0x7B43B, offset: 0x7B43B, size: 0x8, addend: 0x0, symName: __ZNSt3__117__compressed_pairIPN6spdlog7details14flag_formatterENS_14default_deleteIS3_EEEC2B7v160006IPNS2_11m_formatterINS2_13scoped_padderEEENS5_ISB_EEEEOT_OT0_, symObjAddr: 0x185D0, symBinAddr: 0x10001AAC0, symSize: 0x40 }
  - { offsetInCU: 0x7B493, offset: 0x7B493, size: 0x8, addend: 0x0, symName: __ZNSt3__122__compressed_pair_elemIPN6spdlog7details14flag_formatterELi0ELb0EEC2B7v160006IPNS2_11m_formatterINS2_13scoped_padderEEEvEEOT_, symObjAddr: 0x18610, symBinAddr: 0x10001AB00, symSize: 0x20 }
  - { offsetInCU: 0x7B4D5, offset: 0x7B4D5, size: 0x8, addend: 0x0, symName: __ZNSt3__122__compressed_pair_elemINS_14default_deleteIN6spdlog7details14flag_formatterEEELi1ELb1EEC2B7v160006INS1_INS3_11m_formatterINS3_13scoped_padderEEEEEvEEOT_, symObjAddr: 0x18630, symBinAddr: 0x10001AB20, symSize: 0x30 }
  - { offsetInCU: 0x7B517, offset: 0x7B517, size: 0x8, addend: 0x0, symName: __ZNSt3__114default_deleteIN6spdlog7details14flag_formatterEEC2B7v160006INS2_11m_formatterINS2_13scoped_padderEEEEERKNS0_IT_EEPNS_9enable_ifIXsr14is_convertibleIPS9_PS3_EE5valueEvE4typeE, symObjAddr: 0x18660, symBinAddr: 0x10001AB50, symSize: 0x20 }
  - { offsetInCU: 0x7B560, offset: 0x7B560, size: 0x8, addend: 0x0, symName: __ZNSt3__110unique_ptrIN6spdlog7details11m_formatterINS2_13scoped_padderEEENS_14default_deleteIS5_EEED2B7v160006Ev, symObjAddr: 0x18680, symBinAddr: 0x10001AB70, symSize: 0x20 }
  - { offsetInCU: 0x7B58A, offset: 0x7B58A, size: 0x8, addend: 0x0, symName: __ZNSt3__110unique_ptrIN6spdlog7details11m_formatterINS2_13scoped_padderEEENS_14default_deleteIS5_EEE5resetB7v160006EPS5_, symObjAddr: 0x186A0, symBinAddr: 0x10001AB90, symSize: 0x70 }
  - { offsetInCU: 0x7B5CE, offset: 0x7B5CE, size: 0x8, addend: 0x0, symName: __ZNKSt3__114default_deleteIN6spdlog7details11m_formatterINS2_13scoped_padderEEEEclB7v160006EPS5_, symObjAddr: 0x18710, symBinAddr: 0x10001AC00, symSize: 0x40 }
  - { offsetInCU: 0x7B602, offset: 0x7B602, size: 0x8, addend: 0x0, symName: __ZN6spdlog7details11d_formatterINS0_13scoped_padderEEC1ENS0_12padding_infoE, symObjAddr: 0x18750, symBinAddr: 0x10001AC40, symSize: 0x30 }
  - { offsetInCU: 0x7B63B, offset: 0x7B63B, size: 0x8, addend: 0x0, symName: __ZNSt3__110unique_ptrIN6spdlog7details11d_formatterINS2_13scoped_padderEEENS_14default_deleteIS5_EEEC1B7v160006ILb1EvEEPS5_, symObjAddr: 0x18780, symBinAddr: 0x10001AC70, symSize: 0x30 }
  - { offsetInCU: 0x7B67E, offset: 0x7B67E, size: 0x8, addend: 0x0, symName: __ZN6spdlog7details11d_formatterINS0_13scoped_padderEEC2ENS0_12padding_infoE, symObjAddr: 0x187B0, symBinAddr: 0x10001ACA0, symSize: 0x60 }
  - { offsetInCU: 0x7B6B7, offset: 0x7B6B7, size: 0x8, addend: 0x0, symName: __ZN6spdlog7details11d_formatterINS0_13scoped_padderEED1Ev, symObjAddr: 0x18810, symBinAddr: 0x10001AD00, symSize: 0x20 }
  - { offsetInCU: 0x7B6E4, offset: 0x7B6E4, size: 0x8, addend: 0x0, symName: __ZN6spdlog7details11d_formatterINS0_13scoped_padderEED0Ev, symObjAddr: 0x18830, symBinAddr: 0x10001AD20, symSize: 0x30 }
  - { offsetInCU: 0x7B711, offset: 0x7B711, size: 0x8, addend: 0x0, symName: __ZN6spdlog7details11d_formatterINS0_13scoped_padderEE6formatERKNS0_7log_msgERK2tmRN3fmt3v1119basic_memory_bufferIcLm250ENSt3__19allocatorIcEEEE, symObjAddr: 0x18860, symBinAddr: 0x10001AD50, symSize: 0x80 }
  - { offsetInCU: 0x7B780, offset: 0x7B780, size: 0x8, addend: 0x0, symName: __ZN6spdlog7details11d_formatterINS0_13scoped_padderEED2Ev, symObjAddr: 0x188E0, symBinAddr: 0x10001ADD0, symSize: 0x20 }
  - { offsetInCU: 0x7B7AD, offset: 0x7B7AD, size: 0x8, addend: 0x0, symName: __ZNSt3__110unique_ptrIN6spdlog7details11d_formatterINS2_13scoped_padderEEENS_14default_deleteIS5_EEEC2B7v160006ILb1EvEEPS5_, symObjAddr: 0x18900, symBinAddr: 0x10001ADF0, symSize: 0x40 }
  - { offsetInCU: 0x7B7F0, offset: 0x7B7F0, size: 0x8, addend: 0x0, symName: __ZNSt3__117__compressed_pairIPN6spdlog7details11d_formatterINS2_13scoped_padderEEENS_14default_deleteIS5_EEEC1B7v160006IRS6_NS_16__value_init_tagEEEOT_OT0_, symObjAddr: 0x18940, symBinAddr: 0x10001AE30, symSize: 0x30 }
  - { offsetInCU: 0x7B848, offset: 0x7B848, size: 0x8, addend: 0x0, symName: __ZNSt3__117__compressed_pairIPN6spdlog7details11d_formatterINS2_13scoped_padderEEENS_14default_deleteIS5_EEEC2B7v160006IRS6_NS_16__value_init_tagEEEOT_OT0_, symObjAddr: 0x18970, symBinAddr: 0x10001AE60, symSize: 0x40 }
  - { offsetInCU: 0x7B8A0, offset: 0x7B8A0, size: 0x8, addend: 0x0, symName: __ZNSt3__122__compressed_pair_elemIPN6spdlog7details11d_formatterINS2_13scoped_padderEEELi0ELb0EEC2B7v160006IRS6_vEEOT_, symObjAddr: 0x189B0, symBinAddr: 0x10001AEA0, symSize: 0x20 }
  - { offsetInCU: 0x7B8E2, offset: 0x7B8E2, size: 0x8, addend: 0x0, symName: __ZNSt3__122__compressed_pair_elemINS_14default_deleteIN6spdlog7details11d_formatterINS3_13scoped_padderEEEEELi1ELb1EEC2B7v160006ENS_16__value_init_tagE, symObjAddr: 0x189D0, symBinAddr: 0x10001AEC0, symSize: 0x10 }
  - { offsetInCU: 0x7B917, offset: 0x7B917, size: 0x8, addend: 0x0, symName: __ZNSt3__110unique_ptrIN6spdlog7details14flag_formatterENS_14default_deleteIS3_EEEC2B7v160006INS2_11d_formatterINS2_13scoped_padderEEENS4_ISA_EEvvEEONS0_IT_T0_EE, symObjAddr: 0x189E0, symBinAddr: 0x10001AED0, symSize: 0x60 }
  - { offsetInCU: 0x7B963, offset: 0x7B963, size: 0x8, addend: 0x0, symName: __ZNSt3__110unique_ptrIN6spdlog7details11d_formatterINS2_13scoped_padderEEENS_14default_deleteIS5_EEE7releaseB7v160006Ev, symObjAddr: 0x18A40, symBinAddr: 0x10001AF30, symSize: 0x40 }
  - { offsetInCU: 0x7B998, offset: 0x7B998, size: 0x8, addend: 0x0, symName: __ZNSt3__110unique_ptrIN6spdlog7details11d_formatterINS2_13scoped_padderEEENS_14default_deleteIS5_EEE11get_deleterB7v160006Ev, symObjAddr: 0x18A80, symBinAddr: 0x10001AF70, symSize: 0x20 }
  - { offsetInCU: 0x7B9CA, offset: 0x7B9CA, size: 0x8, addend: 0x0, symName: __ZNSt3__117__compressed_pairIPN6spdlog7details14flag_formatterENS_14default_deleteIS3_EEEC1B7v160006IPNS2_11d_formatterINS2_13scoped_padderEEENS5_ISB_EEEEOT_OT0_, symObjAddr: 0x18AA0, symBinAddr: 0x10001AF90, symSize: 0x30 }
  - { offsetInCU: 0x7BA22, offset: 0x7BA22, size: 0x8, addend: 0x0, symName: __ZNSt3__117__compressed_pairIPN6spdlog7details11d_formatterINS2_13scoped_padderEEENS_14default_deleteIS5_EEE5firstB7v160006Ev, symObjAddr: 0x18AD0, symBinAddr: 0x10001AFC0, symSize: 0x20 }
  - { offsetInCU: 0x7BA48, offset: 0x7BA48, size: 0x8, addend: 0x0, symName: __ZNSt3__122__compressed_pair_elemIPN6spdlog7details11d_formatterINS2_13scoped_padderEEELi0ELb0EE5__getB7v160006Ev, symObjAddr: 0x18AF0, symBinAddr: 0x10001AFE0, symSize: 0x10 }
  - { offsetInCU: 0x7BA6E, offset: 0x7BA6E, size: 0x8, addend: 0x0, symName: __ZNSt3__117__compressed_pairIPN6spdlog7details11d_formatterINS2_13scoped_padderEEENS_14default_deleteIS5_EEE6secondB7v160006Ev, symObjAddr: 0x18B00, symBinAddr: 0x10001AFF0, symSize: 0x20 }
  - { offsetInCU: 0x7BA94, offset: 0x7BA94, size: 0x8, addend: 0x0, symName: __ZNSt3__122__compressed_pair_elemINS_14default_deleteIN6spdlog7details11d_formatterINS3_13scoped_padderEEEEELi1ELb1EE5__getB7v160006Ev, symObjAddr: 0x18B20, symBinAddr: 0x10001B010, symSize: 0x10 }
  - { offsetInCU: 0x7BABA, offset: 0x7BABA, size: 0x8, addend: 0x0, symName: __ZNSt3__117__compressed_pairIPN6spdlog7details14flag_formatterENS_14default_deleteIS3_EEEC2B7v160006IPNS2_11d_formatterINS2_13scoped_padderEEENS5_ISB_EEEEOT_OT0_, symObjAddr: 0x18B30, symBinAddr: 0x10001B020, symSize: 0x40 }
  - { offsetInCU: 0x7BB12, offset: 0x7BB12, size: 0x8, addend: 0x0, symName: __ZNSt3__122__compressed_pair_elemIPN6spdlog7details14flag_formatterELi0ELb0EEC2B7v160006IPNS2_11d_formatterINS2_13scoped_padderEEEvEEOT_, symObjAddr: 0x18B70, symBinAddr: 0x10001B060, symSize: 0x20 }
  - { offsetInCU: 0x7BB54, offset: 0x7BB54, size: 0x8, addend: 0x0, symName: __ZNSt3__122__compressed_pair_elemINS_14default_deleteIN6spdlog7details14flag_formatterEEELi1ELb1EEC2B7v160006INS1_INS3_11d_formatterINS3_13scoped_padderEEEEEvEEOT_, symObjAddr: 0x18B90, symBinAddr: 0x10001B080, symSize: 0x30 }
  - { offsetInCU: 0x7BB96, offset: 0x7BB96, size: 0x8, addend: 0x0, symName: __ZNSt3__114default_deleteIN6spdlog7details14flag_formatterEEC2B7v160006INS2_11d_formatterINS2_13scoped_padderEEEEERKNS0_IT_EEPNS_9enable_ifIXsr14is_convertibleIPS9_PS3_EE5valueEvE4typeE, symObjAddr: 0x18BC0, symBinAddr: 0x10001B0B0, symSize: 0x20 }
  - { offsetInCU: 0x7BBDF, offset: 0x7BBDF, size: 0x8, addend: 0x0, symName: __ZNSt3__110unique_ptrIN6spdlog7details11d_formatterINS2_13scoped_padderEEENS_14default_deleteIS5_EEED2B7v160006Ev, symObjAddr: 0x18BE0, symBinAddr: 0x10001B0D0, symSize: 0x20 }
  - { offsetInCU: 0x7BC09, offset: 0x7BC09, size: 0x8, addend: 0x0, symName: __ZNSt3__110unique_ptrIN6spdlog7details11d_formatterINS2_13scoped_padderEEENS_14default_deleteIS5_EEE5resetB7v160006EPS5_, symObjAddr: 0x18C00, symBinAddr: 0x10001B0F0, symSize: 0x70 }
  - { offsetInCU: 0x7BC4D, offset: 0x7BC4D, size: 0x8, addend: 0x0, symName: __ZNKSt3__114default_deleteIN6spdlog7details11d_formatterINS2_13scoped_padderEEEEclB7v160006EPS5_, symObjAddr: 0x18C70, symBinAddr: 0x10001B160, symSize: 0x40 }
  - { offsetInCU: 0x7BC81, offset: 0x7BC81, size: 0x8, addend: 0x0, symName: __ZN6spdlog7details11H_formatterINS0_13scoped_padderEEC1ENS0_12padding_infoE, symObjAddr: 0x18CB0, symBinAddr: 0x10001B1A0, symSize: 0x30 }
  - { offsetInCU: 0x7BCBA, offset: 0x7BCBA, size: 0x8, addend: 0x0, symName: __ZNSt3__110unique_ptrIN6spdlog7details11H_formatterINS2_13scoped_padderEEENS_14default_deleteIS5_EEEC1B7v160006ILb1EvEEPS5_, symObjAddr: 0x18CE0, symBinAddr: 0x10001B1D0, symSize: 0x30 }
  - { offsetInCU: 0x7BCFD, offset: 0x7BCFD, size: 0x8, addend: 0x0, symName: __ZN6spdlog7details11H_formatterINS0_13scoped_padderEEC2ENS0_12padding_infoE, symObjAddr: 0x18D10, symBinAddr: 0x10001B200, symSize: 0x60 }
  - { offsetInCU: 0x7BD36, offset: 0x7BD36, size: 0x8, addend: 0x0, symName: __ZN6spdlog7details11H_formatterINS0_13scoped_padderEED1Ev, symObjAddr: 0x18D70, symBinAddr: 0x10001B260, symSize: 0x20 }
  - { offsetInCU: 0x7BD63, offset: 0x7BD63, size: 0x8, addend: 0x0, symName: __ZN6spdlog7details11H_formatterINS0_13scoped_padderEED0Ev, symObjAddr: 0x18D90, symBinAddr: 0x10001B280, symSize: 0x30 }
  - { offsetInCU: 0x7BD90, offset: 0x7BD90, size: 0x8, addend: 0x0, symName: __ZN6spdlog7details11H_formatterINS0_13scoped_padderEE6formatERKNS0_7log_msgERK2tmRN3fmt3v1119basic_memory_bufferIcLm250ENSt3__19allocatorIcEEEE, symObjAddr: 0x18DC0, symBinAddr: 0x10001B2B0, symSize: 0x80 }
  - { offsetInCU: 0x7BDFF, offset: 0x7BDFF, size: 0x8, addend: 0x0, symName: __ZN6spdlog7details11H_formatterINS0_13scoped_padderEED2Ev, symObjAddr: 0x18E40, symBinAddr: 0x10001B330, symSize: 0x20 }
  - { offsetInCU: 0x7BE2C, offset: 0x7BE2C, size: 0x8, addend: 0x0, symName: __ZNSt3__110unique_ptrIN6spdlog7details11H_formatterINS2_13scoped_padderEEENS_14default_deleteIS5_EEEC2B7v160006ILb1EvEEPS5_, symObjAddr: 0x18E60, symBinAddr: 0x10001B350, symSize: 0x40 }
  - { offsetInCU: 0x7BE6F, offset: 0x7BE6F, size: 0x8, addend: 0x0, symName: __ZNSt3__117__compressed_pairIPN6spdlog7details11H_formatterINS2_13scoped_padderEEENS_14default_deleteIS5_EEEC1B7v160006IRS6_NS_16__value_init_tagEEEOT_OT0_, symObjAddr: 0x18EA0, symBinAddr: 0x10001B390, symSize: 0x30 }
  - { offsetInCU: 0x7BEC7, offset: 0x7BEC7, size: 0x8, addend: 0x0, symName: __ZNSt3__117__compressed_pairIPN6spdlog7details11H_formatterINS2_13scoped_padderEEENS_14default_deleteIS5_EEEC2B7v160006IRS6_NS_16__value_init_tagEEEOT_OT0_, symObjAddr: 0x18ED0, symBinAddr: 0x10001B3C0, symSize: 0x40 }
  - { offsetInCU: 0x7BF1F, offset: 0x7BF1F, size: 0x8, addend: 0x0, symName: __ZNSt3__122__compressed_pair_elemIPN6spdlog7details11H_formatterINS2_13scoped_padderEEELi0ELb0EEC2B7v160006IRS6_vEEOT_, symObjAddr: 0x18F10, symBinAddr: 0x10001B400, symSize: 0x20 }
  - { offsetInCU: 0x7BF61, offset: 0x7BF61, size: 0x8, addend: 0x0, symName: __ZNSt3__122__compressed_pair_elemINS_14default_deleteIN6spdlog7details11H_formatterINS3_13scoped_padderEEEEELi1ELb1EEC2B7v160006ENS_16__value_init_tagE, symObjAddr: 0x18F30, symBinAddr: 0x10001B420, symSize: 0x10 }
  - { offsetInCU: 0x7BF96, offset: 0x7BF96, size: 0x8, addend: 0x0, symName: __ZNSt3__110unique_ptrIN6spdlog7details14flag_formatterENS_14default_deleteIS3_EEEC2B7v160006INS2_11H_formatterINS2_13scoped_padderEEENS4_ISA_EEvvEEONS0_IT_T0_EE, symObjAddr: 0x18F40, symBinAddr: 0x10001B430, symSize: 0x60 }
  - { offsetInCU: 0x7BFE2, offset: 0x7BFE2, size: 0x8, addend: 0x0, symName: __ZNSt3__110unique_ptrIN6spdlog7details11H_formatterINS2_13scoped_padderEEENS_14default_deleteIS5_EEE7releaseB7v160006Ev, symObjAddr: 0x18FA0, symBinAddr: 0x10001B490, symSize: 0x40 }
  - { offsetInCU: 0x7C017, offset: 0x7C017, size: 0x8, addend: 0x0, symName: __ZNSt3__110unique_ptrIN6spdlog7details11H_formatterINS2_13scoped_padderEEENS_14default_deleteIS5_EEE11get_deleterB7v160006Ev, symObjAddr: 0x18FE0, symBinAddr: 0x10001B4D0, symSize: 0x20 }
  - { offsetInCU: 0x7C049, offset: 0x7C049, size: 0x8, addend: 0x0, symName: __ZNSt3__117__compressed_pairIPN6spdlog7details14flag_formatterENS_14default_deleteIS3_EEEC1B7v160006IPNS2_11H_formatterINS2_13scoped_padderEEENS5_ISB_EEEEOT_OT0_, symObjAddr: 0x19000, symBinAddr: 0x10001B4F0, symSize: 0x30 }
  - { offsetInCU: 0x7C0A1, offset: 0x7C0A1, size: 0x8, addend: 0x0, symName: __ZNSt3__117__compressed_pairIPN6spdlog7details11H_formatterINS2_13scoped_padderEEENS_14default_deleteIS5_EEE5firstB7v160006Ev, symObjAddr: 0x19030, symBinAddr: 0x10001B520, symSize: 0x20 }
  - { offsetInCU: 0x7C0C7, offset: 0x7C0C7, size: 0x8, addend: 0x0, symName: __ZNSt3__122__compressed_pair_elemIPN6spdlog7details11H_formatterINS2_13scoped_padderEEELi0ELb0EE5__getB7v160006Ev, symObjAddr: 0x19050, symBinAddr: 0x10001B540, symSize: 0x10 }
  - { offsetInCU: 0x7C0ED, offset: 0x7C0ED, size: 0x8, addend: 0x0, symName: __ZNSt3__117__compressed_pairIPN6spdlog7details11H_formatterINS2_13scoped_padderEEENS_14default_deleteIS5_EEE6secondB7v160006Ev, symObjAddr: 0x19060, symBinAddr: 0x10001B550, symSize: 0x20 }
  - { offsetInCU: 0x7C113, offset: 0x7C113, size: 0x8, addend: 0x0, symName: __ZNSt3__122__compressed_pair_elemINS_14default_deleteIN6spdlog7details11H_formatterINS3_13scoped_padderEEEEELi1ELb1EE5__getB7v160006Ev, symObjAddr: 0x19080, symBinAddr: 0x10001B570, symSize: 0x10 }
  - { offsetInCU: 0x7C139, offset: 0x7C139, size: 0x8, addend: 0x0, symName: __ZNSt3__117__compressed_pairIPN6spdlog7details14flag_formatterENS_14default_deleteIS3_EEEC2B7v160006IPNS2_11H_formatterINS2_13scoped_padderEEENS5_ISB_EEEEOT_OT0_, symObjAddr: 0x19090, symBinAddr: 0x10001B580, symSize: 0x40 }
  - { offsetInCU: 0x7C191, offset: 0x7C191, size: 0x8, addend: 0x0, symName: __ZNSt3__122__compressed_pair_elemIPN6spdlog7details14flag_formatterELi0ELb0EEC2B7v160006IPNS2_11H_formatterINS2_13scoped_padderEEEvEEOT_, symObjAddr: 0x190D0, symBinAddr: 0x10001B5C0, symSize: 0x20 }
  - { offsetInCU: 0x7C1D3, offset: 0x7C1D3, size: 0x8, addend: 0x0, symName: __ZNSt3__122__compressed_pair_elemINS_14default_deleteIN6spdlog7details14flag_formatterEEELi1ELb1EEC2B7v160006INS1_INS3_11H_formatterINS3_13scoped_padderEEEEEvEEOT_, symObjAddr: 0x190F0, symBinAddr: 0x10001B5E0, symSize: 0x30 }
  - { offsetInCU: 0x7C215, offset: 0x7C215, size: 0x8, addend: 0x0, symName: __ZNSt3__114default_deleteIN6spdlog7details14flag_formatterEEC2B7v160006INS2_11H_formatterINS2_13scoped_padderEEEEERKNS0_IT_EEPNS_9enable_ifIXsr14is_convertibleIPS9_PS3_EE5valueEvE4typeE, symObjAddr: 0x19120, symBinAddr: 0x10001B610, symSize: 0x20 }
  - { offsetInCU: 0x7C25E, offset: 0x7C25E, size: 0x8, addend: 0x0, symName: __ZNSt3__110unique_ptrIN6spdlog7details11H_formatterINS2_13scoped_padderEEENS_14default_deleteIS5_EEED2B7v160006Ev, symObjAddr: 0x19140, symBinAddr: 0x10001B630, symSize: 0x20 }
  - { offsetInCU: 0x7C288, offset: 0x7C288, size: 0x8, addend: 0x0, symName: __ZNSt3__110unique_ptrIN6spdlog7details11H_formatterINS2_13scoped_padderEEENS_14default_deleteIS5_EEE5resetB7v160006EPS5_, symObjAddr: 0x19160, symBinAddr: 0x10001B650, symSize: 0x70 }
  - { offsetInCU: 0x7C2CC, offset: 0x7C2CC, size: 0x8, addend: 0x0, symName: __ZNKSt3__114default_deleteIN6spdlog7details11H_formatterINS2_13scoped_padderEEEEclB7v160006EPS5_, symObjAddr: 0x191D0, symBinAddr: 0x10001B6C0, symSize: 0x40 }
  - { offsetInCU: 0x7C300, offset: 0x7C300, size: 0x8, addend: 0x0, symName: __ZN6spdlog7details11I_formatterINS0_13scoped_padderEEC1ENS0_12padding_infoE, symObjAddr: 0x19210, symBinAddr: 0x10001B700, symSize: 0x30 }
  - { offsetInCU: 0x7C339, offset: 0x7C339, size: 0x8, addend: 0x0, symName: __ZNSt3__110unique_ptrIN6spdlog7details11I_formatterINS2_13scoped_padderEEENS_14default_deleteIS5_EEEC1B7v160006ILb1EvEEPS5_, symObjAddr: 0x19240, symBinAddr: 0x10001B730, symSize: 0x30 }
  - { offsetInCU: 0x7C37C, offset: 0x7C37C, size: 0x8, addend: 0x0, symName: __ZN6spdlog7details11I_formatterINS0_13scoped_padderEEC2ENS0_12padding_infoE, symObjAddr: 0x19270, symBinAddr: 0x10001B760, symSize: 0x60 }
  - { offsetInCU: 0x7C3B5, offset: 0x7C3B5, size: 0x8, addend: 0x0, symName: __ZN6spdlog7details11I_formatterINS0_13scoped_padderEED1Ev, symObjAddr: 0x192D0, symBinAddr: 0x10001B7C0, symSize: 0x20 }
  - { offsetInCU: 0x7C3E2, offset: 0x7C3E2, size: 0x8, addend: 0x0, symName: __ZN6spdlog7details11I_formatterINS0_13scoped_padderEED0Ev, symObjAddr: 0x192F0, symBinAddr: 0x10001B7E0, symSize: 0x30 }
  - { offsetInCU: 0x7C40F, offset: 0x7C40F, size: 0x8, addend: 0x0, symName: __ZN6spdlog7details11I_formatterINS0_13scoped_padderEE6formatERKNS0_7log_msgERK2tmRN3fmt3v1119basic_memory_bufferIcLm250ENSt3__19allocatorIcEEEE, symObjAddr: 0x19320, symBinAddr: 0x10001B810, symSize: 0x90 }
  - { offsetInCU: 0x7C47E, offset: 0x7C47E, size: 0x8, addend: 0x0, symName: __ZN6spdlog7details11I_formatterINS0_13scoped_padderEED2Ev, symObjAddr: 0x193B0, symBinAddr: 0x10001B8A0, symSize: 0x20 }
  - { offsetInCU: 0x7C4AB, offset: 0x7C4AB, size: 0x8, addend: 0x0, symName: __ZNSt3__110unique_ptrIN6spdlog7details11I_formatterINS2_13scoped_padderEEENS_14default_deleteIS5_EEEC2B7v160006ILb1EvEEPS5_, symObjAddr: 0x19410, symBinAddr: 0x10001B900, symSize: 0x40 }
  - { offsetInCU: 0x7C4EE, offset: 0x7C4EE, size: 0x8, addend: 0x0, symName: __ZNSt3__117__compressed_pairIPN6spdlog7details11I_formatterINS2_13scoped_padderEEENS_14default_deleteIS5_EEEC1B7v160006IRS6_NS_16__value_init_tagEEEOT_OT0_, symObjAddr: 0x19450, symBinAddr: 0x10001B940, symSize: 0x30 }
  - { offsetInCU: 0x7C546, offset: 0x7C546, size: 0x8, addend: 0x0, symName: __ZNSt3__117__compressed_pairIPN6spdlog7details11I_formatterINS2_13scoped_padderEEENS_14default_deleteIS5_EEEC2B7v160006IRS6_NS_16__value_init_tagEEEOT_OT0_, symObjAddr: 0x19480, symBinAddr: 0x10001B970, symSize: 0x40 }
  - { offsetInCU: 0x7C59E, offset: 0x7C59E, size: 0x8, addend: 0x0, symName: __ZNSt3__122__compressed_pair_elemIPN6spdlog7details11I_formatterINS2_13scoped_padderEEELi0ELb0EEC2B7v160006IRS6_vEEOT_, symObjAddr: 0x194C0, symBinAddr: 0x10001B9B0, symSize: 0x20 }
  - { offsetInCU: 0x7C5E0, offset: 0x7C5E0, size: 0x8, addend: 0x0, symName: __ZNSt3__122__compressed_pair_elemINS_14default_deleteIN6spdlog7details11I_formatterINS3_13scoped_padderEEEEELi1ELb1EEC2B7v160006ENS_16__value_init_tagE, symObjAddr: 0x194E0, symBinAddr: 0x10001B9D0, symSize: 0x10 }
  - { offsetInCU: 0x7C615, offset: 0x7C615, size: 0x8, addend: 0x0, symName: __ZNSt3__110unique_ptrIN6spdlog7details14flag_formatterENS_14default_deleteIS3_EEEC2B7v160006INS2_11I_formatterINS2_13scoped_padderEEENS4_ISA_EEvvEEONS0_IT_T0_EE, symObjAddr: 0x194F0, symBinAddr: 0x10001B9E0, symSize: 0x60 }
  - { offsetInCU: 0x7C661, offset: 0x7C661, size: 0x8, addend: 0x0, symName: __ZNSt3__110unique_ptrIN6spdlog7details11I_formatterINS2_13scoped_padderEEENS_14default_deleteIS5_EEE7releaseB7v160006Ev, symObjAddr: 0x19550, symBinAddr: 0x10001BA40, symSize: 0x40 }
  - { offsetInCU: 0x7C696, offset: 0x7C696, size: 0x8, addend: 0x0, symName: __ZNSt3__110unique_ptrIN6spdlog7details11I_formatterINS2_13scoped_padderEEENS_14default_deleteIS5_EEE11get_deleterB7v160006Ev, symObjAddr: 0x19590, symBinAddr: 0x10001BA80, symSize: 0x20 }
  - { offsetInCU: 0x7C6C8, offset: 0x7C6C8, size: 0x8, addend: 0x0, symName: __ZNSt3__117__compressed_pairIPN6spdlog7details14flag_formatterENS_14default_deleteIS3_EEEC1B7v160006IPNS2_11I_formatterINS2_13scoped_padderEEENS5_ISB_EEEEOT_OT0_, symObjAddr: 0x195B0, symBinAddr: 0x10001BAA0, symSize: 0x30 }
  - { offsetInCU: 0x7C720, offset: 0x7C720, size: 0x8, addend: 0x0, symName: __ZNSt3__117__compressed_pairIPN6spdlog7details11I_formatterINS2_13scoped_padderEEENS_14default_deleteIS5_EEE5firstB7v160006Ev, symObjAddr: 0x195E0, symBinAddr: 0x10001BAD0, symSize: 0x20 }
  - { offsetInCU: 0x7C746, offset: 0x7C746, size: 0x8, addend: 0x0, symName: __ZNSt3__122__compressed_pair_elemIPN6spdlog7details11I_formatterINS2_13scoped_padderEEELi0ELb0EE5__getB7v160006Ev, symObjAddr: 0x19600, symBinAddr: 0x10001BAF0, symSize: 0x10 }
  - { offsetInCU: 0x7C76C, offset: 0x7C76C, size: 0x8, addend: 0x0, symName: __ZNSt3__117__compressed_pairIPN6spdlog7details11I_formatterINS2_13scoped_padderEEENS_14default_deleteIS5_EEE6secondB7v160006Ev, symObjAddr: 0x19610, symBinAddr: 0x10001BB00, symSize: 0x20 }
  - { offsetInCU: 0x7C792, offset: 0x7C792, size: 0x8, addend: 0x0, symName: __ZNSt3__122__compressed_pair_elemINS_14default_deleteIN6spdlog7details11I_formatterINS3_13scoped_padderEEEEELi1ELb1EE5__getB7v160006Ev, symObjAddr: 0x19630, symBinAddr: 0x10001BB20, symSize: 0x10 }
  - { offsetInCU: 0x7C7B8, offset: 0x7C7B8, size: 0x8, addend: 0x0, symName: __ZNSt3__117__compressed_pairIPN6spdlog7details14flag_formatterENS_14default_deleteIS3_EEEC2B7v160006IPNS2_11I_formatterINS2_13scoped_padderEEENS5_ISB_EEEEOT_OT0_, symObjAddr: 0x19640, symBinAddr: 0x10001BB30, symSize: 0x40 }
  - { offsetInCU: 0x7C810, offset: 0x7C810, size: 0x8, addend: 0x0, symName: __ZNSt3__122__compressed_pair_elemIPN6spdlog7details14flag_formatterELi0ELb0EEC2B7v160006IPNS2_11I_formatterINS2_13scoped_padderEEEvEEOT_, symObjAddr: 0x19680, symBinAddr: 0x10001BB70, symSize: 0x20 }
  - { offsetInCU: 0x7C852, offset: 0x7C852, size: 0x8, addend: 0x0, symName: __ZNSt3__122__compressed_pair_elemINS_14default_deleteIN6spdlog7details14flag_formatterEEELi1ELb1EEC2B7v160006INS1_INS3_11I_formatterINS3_13scoped_padderEEEEEvEEOT_, symObjAddr: 0x196A0, symBinAddr: 0x10001BB90, symSize: 0x30 }
  - { offsetInCU: 0x7C894, offset: 0x7C894, size: 0x8, addend: 0x0, symName: __ZNSt3__114default_deleteIN6spdlog7details14flag_formatterEEC2B7v160006INS2_11I_formatterINS2_13scoped_padderEEEEERKNS0_IT_EEPNS_9enable_ifIXsr14is_convertibleIPS9_PS3_EE5valueEvE4typeE, symObjAddr: 0x196D0, symBinAddr: 0x10001BBC0, symSize: 0x20 }
  - { offsetInCU: 0x7C8DD, offset: 0x7C8DD, size: 0x8, addend: 0x0, symName: __ZNSt3__110unique_ptrIN6spdlog7details11I_formatterINS2_13scoped_padderEEENS_14default_deleteIS5_EEED2B7v160006Ev, symObjAddr: 0x196F0, symBinAddr: 0x10001BBE0, symSize: 0x20 }
  - { offsetInCU: 0x7C907, offset: 0x7C907, size: 0x8, addend: 0x0, symName: __ZNSt3__110unique_ptrIN6spdlog7details11I_formatterINS2_13scoped_padderEEENS_14default_deleteIS5_EEE5resetB7v160006EPS5_, symObjAddr: 0x19710, symBinAddr: 0x10001BC00, symSize: 0x70 }
  - { offsetInCU: 0x7C94B, offset: 0x7C94B, size: 0x8, addend: 0x0, symName: __ZNKSt3__114default_deleteIN6spdlog7details11I_formatterINS2_13scoped_padderEEEEclB7v160006EPS5_, symObjAddr: 0x19780, symBinAddr: 0x10001BC70, symSize: 0x40 }
  - { offsetInCU: 0x7C97F, offset: 0x7C97F, size: 0x8, addend: 0x0, symName: __ZN6spdlog7details11M_formatterINS0_13scoped_padderEEC1ENS0_12padding_infoE, symObjAddr: 0x197C0, symBinAddr: 0x10001BCB0, symSize: 0x30 }
  - { offsetInCU: 0x7C9B8, offset: 0x7C9B8, size: 0x8, addend: 0x0, symName: __ZNSt3__110unique_ptrIN6spdlog7details11M_formatterINS2_13scoped_padderEEENS_14default_deleteIS5_EEEC1B7v160006ILb1EvEEPS5_, symObjAddr: 0x197F0, symBinAddr: 0x10001BCE0, symSize: 0x30 }
  - { offsetInCU: 0x7C9FB, offset: 0x7C9FB, size: 0x8, addend: 0x0, symName: __ZN6spdlog7details11M_formatterINS0_13scoped_padderEEC2ENS0_12padding_infoE, symObjAddr: 0x19820, symBinAddr: 0x10001BD10, symSize: 0x60 }
  - { offsetInCU: 0x7CA34, offset: 0x7CA34, size: 0x8, addend: 0x0, symName: __ZN6spdlog7details11M_formatterINS0_13scoped_padderEED1Ev, symObjAddr: 0x19880, symBinAddr: 0x10001BD70, symSize: 0x20 }
  - { offsetInCU: 0x7CA61, offset: 0x7CA61, size: 0x8, addend: 0x0, symName: __ZN6spdlog7details11M_formatterINS0_13scoped_padderEED0Ev, symObjAddr: 0x198A0, symBinAddr: 0x10001BD90, symSize: 0x30 }
  - { offsetInCU: 0x7CA8E, offset: 0x7CA8E, size: 0x8, addend: 0x0, symName: __ZN6spdlog7details11M_formatterINS0_13scoped_padderEE6formatERKNS0_7log_msgERK2tmRN3fmt3v1119basic_memory_bufferIcLm250ENSt3__19allocatorIcEEEE, symObjAddr: 0x198D0, symBinAddr: 0x10001BDC0, symSize: 0x80 }
  - { offsetInCU: 0x7CAFD, offset: 0x7CAFD, size: 0x8, addend: 0x0, symName: __ZN6spdlog7details11M_formatterINS0_13scoped_padderEED2Ev, symObjAddr: 0x19950, symBinAddr: 0x10001BE40, symSize: 0x20 }
  - { offsetInCU: 0x7CB2A, offset: 0x7CB2A, size: 0x8, addend: 0x0, symName: __ZNSt3__110unique_ptrIN6spdlog7details11M_formatterINS2_13scoped_padderEEENS_14default_deleteIS5_EEEC2B7v160006ILb1EvEEPS5_, symObjAddr: 0x19970, symBinAddr: 0x10001BE60, symSize: 0x40 }
  - { offsetInCU: 0x7CB6D, offset: 0x7CB6D, size: 0x8, addend: 0x0, symName: __ZNSt3__117__compressed_pairIPN6spdlog7details11M_formatterINS2_13scoped_padderEEENS_14default_deleteIS5_EEEC1B7v160006IRS6_NS_16__value_init_tagEEEOT_OT0_, symObjAddr: 0x199B0, symBinAddr: 0x10001BEA0, symSize: 0x30 }
  - { offsetInCU: 0x7CBC5, offset: 0x7CBC5, size: 0x8, addend: 0x0, symName: __ZNSt3__117__compressed_pairIPN6spdlog7details11M_formatterINS2_13scoped_padderEEENS_14default_deleteIS5_EEEC2B7v160006IRS6_NS_16__value_init_tagEEEOT_OT0_, symObjAddr: 0x199E0, symBinAddr: 0x10001BED0, symSize: 0x40 }
  - { offsetInCU: 0x7CC1D, offset: 0x7CC1D, size: 0x8, addend: 0x0, symName: __ZNSt3__122__compressed_pair_elemIPN6spdlog7details11M_formatterINS2_13scoped_padderEEELi0ELb0EEC2B7v160006IRS6_vEEOT_, symObjAddr: 0x19A20, symBinAddr: 0x10001BF10, symSize: 0x20 }
  - { offsetInCU: 0x7CC5F, offset: 0x7CC5F, size: 0x8, addend: 0x0, symName: __ZNSt3__122__compressed_pair_elemINS_14default_deleteIN6spdlog7details11M_formatterINS3_13scoped_padderEEEEELi1ELb1EEC2B7v160006ENS_16__value_init_tagE, symObjAddr: 0x19A40, symBinAddr: 0x10001BF30, symSize: 0x10 }
  - { offsetInCU: 0x7CC94, offset: 0x7CC94, size: 0x8, addend: 0x0, symName: __ZNSt3__110unique_ptrIN6spdlog7details14flag_formatterENS_14default_deleteIS3_EEEC2B7v160006INS2_11M_formatterINS2_13scoped_padderEEENS4_ISA_EEvvEEONS0_IT_T0_EE, symObjAddr: 0x19A50, symBinAddr: 0x10001BF40, symSize: 0x60 }
  - { offsetInCU: 0x7CCE0, offset: 0x7CCE0, size: 0x8, addend: 0x0, symName: __ZNSt3__110unique_ptrIN6spdlog7details11M_formatterINS2_13scoped_padderEEENS_14default_deleteIS5_EEE7releaseB7v160006Ev, symObjAddr: 0x19AB0, symBinAddr: 0x10001BFA0, symSize: 0x40 }
  - { offsetInCU: 0x7CD15, offset: 0x7CD15, size: 0x8, addend: 0x0, symName: __ZNSt3__110unique_ptrIN6spdlog7details11M_formatterINS2_13scoped_padderEEENS_14default_deleteIS5_EEE11get_deleterB7v160006Ev, symObjAddr: 0x19AF0, symBinAddr: 0x10001BFE0, symSize: 0x20 }
  - { offsetInCU: 0x7CD47, offset: 0x7CD47, size: 0x8, addend: 0x0, symName: __ZNSt3__117__compressed_pairIPN6spdlog7details14flag_formatterENS_14default_deleteIS3_EEEC1B7v160006IPNS2_11M_formatterINS2_13scoped_padderEEENS5_ISB_EEEEOT_OT0_, symObjAddr: 0x19B10, symBinAddr: 0x10001C000, symSize: 0x30 }
  - { offsetInCU: 0x7CD9F, offset: 0x7CD9F, size: 0x8, addend: 0x0, symName: __ZNSt3__117__compressed_pairIPN6spdlog7details11M_formatterINS2_13scoped_padderEEENS_14default_deleteIS5_EEE5firstB7v160006Ev, symObjAddr: 0x19B40, symBinAddr: 0x10001C030, symSize: 0x20 }
  - { offsetInCU: 0x7CDC5, offset: 0x7CDC5, size: 0x8, addend: 0x0, symName: __ZNSt3__122__compressed_pair_elemIPN6spdlog7details11M_formatterINS2_13scoped_padderEEELi0ELb0EE5__getB7v160006Ev, symObjAddr: 0x19B60, symBinAddr: 0x10001C050, symSize: 0x10 }
  - { offsetInCU: 0x7CDEB, offset: 0x7CDEB, size: 0x8, addend: 0x0, symName: __ZNSt3__117__compressed_pairIPN6spdlog7details11M_formatterINS2_13scoped_padderEEENS_14default_deleteIS5_EEE6secondB7v160006Ev, symObjAddr: 0x19B70, symBinAddr: 0x10001C060, symSize: 0x20 }
  - { offsetInCU: 0x7CE11, offset: 0x7CE11, size: 0x8, addend: 0x0, symName: __ZNSt3__122__compressed_pair_elemINS_14default_deleteIN6spdlog7details11M_formatterINS3_13scoped_padderEEEEELi1ELb1EE5__getB7v160006Ev, symObjAddr: 0x19B90, symBinAddr: 0x10001C080, symSize: 0x10 }
  - { offsetInCU: 0x7CE37, offset: 0x7CE37, size: 0x8, addend: 0x0, symName: __ZNSt3__117__compressed_pairIPN6spdlog7details14flag_formatterENS_14default_deleteIS3_EEEC2B7v160006IPNS2_11M_formatterINS2_13scoped_padderEEENS5_ISB_EEEEOT_OT0_, symObjAddr: 0x19BA0, symBinAddr: 0x10001C090, symSize: 0x40 }
  - { offsetInCU: 0x7CE8F, offset: 0x7CE8F, size: 0x8, addend: 0x0, symName: __ZNSt3__122__compressed_pair_elemIPN6spdlog7details14flag_formatterELi0ELb0EEC2B7v160006IPNS2_11M_formatterINS2_13scoped_padderEEEvEEOT_, symObjAddr: 0x19BE0, symBinAddr: 0x10001C0D0, symSize: 0x20 }
  - { offsetInCU: 0x7CED1, offset: 0x7CED1, size: 0x8, addend: 0x0, symName: __ZNSt3__122__compressed_pair_elemINS_14default_deleteIN6spdlog7details14flag_formatterEEELi1ELb1EEC2B7v160006INS1_INS3_11M_formatterINS3_13scoped_padderEEEEEvEEOT_, symObjAddr: 0x19C00, symBinAddr: 0x10001C0F0, symSize: 0x30 }
  - { offsetInCU: 0x7CF13, offset: 0x7CF13, size: 0x8, addend: 0x0, symName: __ZNSt3__114default_deleteIN6spdlog7details14flag_formatterEEC2B7v160006INS2_11M_formatterINS2_13scoped_padderEEEEERKNS0_IT_EEPNS_9enable_ifIXsr14is_convertibleIPS9_PS3_EE5valueEvE4typeE, symObjAddr: 0x19C30, symBinAddr: 0x10001C120, symSize: 0x20 }
  - { offsetInCU: 0x7CF5C, offset: 0x7CF5C, size: 0x8, addend: 0x0, symName: __ZNSt3__110unique_ptrIN6spdlog7details11M_formatterINS2_13scoped_padderEEENS_14default_deleteIS5_EEED2B7v160006Ev, symObjAddr: 0x19C50, symBinAddr: 0x10001C140, symSize: 0x20 }
  - { offsetInCU: 0x7CF86, offset: 0x7CF86, size: 0x8, addend: 0x0, symName: __ZNSt3__110unique_ptrIN6spdlog7details11M_formatterINS2_13scoped_padderEEENS_14default_deleteIS5_EEE5resetB7v160006EPS5_, symObjAddr: 0x19C70, symBinAddr: 0x10001C160, symSize: 0x70 }
  - { offsetInCU: 0x7CFCA, offset: 0x7CFCA, size: 0x8, addend: 0x0, symName: __ZNKSt3__114default_deleteIN6spdlog7details11M_formatterINS2_13scoped_padderEEEEclB7v160006EPS5_, symObjAddr: 0x19CE0, symBinAddr: 0x10001C1D0, symSize: 0x40 }
  - { offsetInCU: 0x7CFFE, offset: 0x7CFFE, size: 0x8, addend: 0x0, symName: __ZN6spdlog7details11S_formatterINS0_13scoped_padderEEC1ENS0_12padding_infoE, symObjAddr: 0x19D20, symBinAddr: 0x10001C210, symSize: 0x30 }
  - { offsetInCU: 0x7D037, offset: 0x7D037, size: 0x8, addend: 0x0, symName: __ZNSt3__110unique_ptrIN6spdlog7details11S_formatterINS2_13scoped_padderEEENS_14default_deleteIS5_EEEC1B7v160006ILb1EvEEPS5_, symObjAddr: 0x19D50, symBinAddr: 0x10001C240, symSize: 0x30 }
  - { offsetInCU: 0x7D07A, offset: 0x7D07A, size: 0x8, addend: 0x0, symName: __ZN6spdlog7details11S_formatterINS0_13scoped_padderEEC2ENS0_12padding_infoE, symObjAddr: 0x19D80, symBinAddr: 0x10001C270, symSize: 0x60 }
  - { offsetInCU: 0x7D0B3, offset: 0x7D0B3, size: 0x8, addend: 0x0, symName: __ZN6spdlog7details11S_formatterINS0_13scoped_padderEED1Ev, symObjAddr: 0x19DE0, symBinAddr: 0x10001C2D0, symSize: 0x20 }
  - { offsetInCU: 0x7D0E0, offset: 0x7D0E0, size: 0x8, addend: 0x0, symName: __ZN6spdlog7details11S_formatterINS0_13scoped_padderEED0Ev, symObjAddr: 0x19E00, symBinAddr: 0x10001C2F0, symSize: 0x30 }
  - { offsetInCU: 0x7D10D, offset: 0x7D10D, size: 0x8, addend: 0x0, symName: __ZN6spdlog7details11S_formatterINS0_13scoped_padderEE6formatERKNS0_7log_msgERK2tmRN3fmt3v1119basic_memory_bufferIcLm250ENSt3__19allocatorIcEEEE, symObjAddr: 0x19E30, symBinAddr: 0x10001C320, symSize: 0x80 }
  - { offsetInCU: 0x7D17C, offset: 0x7D17C, size: 0x8, addend: 0x0, symName: __ZN6spdlog7details11S_formatterINS0_13scoped_padderEED2Ev, symObjAddr: 0x19EB0, symBinAddr: 0x10001C3A0, symSize: 0x20 }
  - { offsetInCU: 0x7D1A9, offset: 0x7D1A9, size: 0x8, addend: 0x0, symName: __ZNSt3__110unique_ptrIN6spdlog7details11S_formatterINS2_13scoped_padderEEENS_14default_deleteIS5_EEEC2B7v160006ILb1EvEEPS5_, symObjAddr: 0x19ED0, symBinAddr: 0x10001C3C0, symSize: 0x40 }
  - { offsetInCU: 0x7D1EC, offset: 0x7D1EC, size: 0x8, addend: 0x0, symName: __ZNSt3__117__compressed_pairIPN6spdlog7details11S_formatterINS2_13scoped_padderEEENS_14default_deleteIS5_EEEC1B7v160006IRS6_NS_16__value_init_tagEEEOT_OT0_, symObjAddr: 0x19F10, symBinAddr: 0x10001C400, symSize: 0x30 }
  - { offsetInCU: 0x7D244, offset: 0x7D244, size: 0x8, addend: 0x0, symName: __ZNSt3__117__compressed_pairIPN6spdlog7details11S_formatterINS2_13scoped_padderEEENS_14default_deleteIS5_EEEC2B7v160006IRS6_NS_16__value_init_tagEEEOT_OT0_, symObjAddr: 0x19F40, symBinAddr: 0x10001C430, symSize: 0x40 }
  - { offsetInCU: 0x7D29C, offset: 0x7D29C, size: 0x8, addend: 0x0, symName: __ZNSt3__122__compressed_pair_elemIPN6spdlog7details11S_formatterINS2_13scoped_padderEEELi0ELb0EEC2B7v160006IRS6_vEEOT_, symObjAddr: 0x19F80, symBinAddr: 0x10001C470, symSize: 0x20 }
  - { offsetInCU: 0x7D2DE, offset: 0x7D2DE, size: 0x8, addend: 0x0, symName: __ZNSt3__122__compressed_pair_elemINS_14default_deleteIN6spdlog7details11S_formatterINS3_13scoped_padderEEEEELi1ELb1EEC2B7v160006ENS_16__value_init_tagE, symObjAddr: 0x19FA0, symBinAddr: 0x10001C490, symSize: 0x10 }
